                                      1 ;--------------------------------------------------------
                                      2 ; File Created by SDCC : free open source ISO C Compiler 
                                      3 ; Version 4.3.2 #14228 (Linux)
                                      4 ;--------------------------------------------------------
                                      5 	.module director
                                      6 	.optsdcc -msm83
                                      7 	
                                      8 ;--------------------------------------------------------
                                      9 ; Public variables in this module
                                     10 ;--------------------------------------------------------
                                     11 	.globl _LCD_interrupt
                                     12 	.globl _VBL_interrupt
                                     13 	.globl _end_frame
                                     14 	.globl _render_player
                                     15 	.globl _player_init
                                     16 	.globl _load_map
                                     17 	.globl _fill_bkg_rect
                                     18 	.globl _set_sprite_data
                                     19 	.globl _set_win_tiles
                                     20 	.globl _set_bkg_tile_xy
                                     21 	.globl _set_bkg_tiles
                                     22 	.globl _set_bkg_data
                                     23 	.globl _wait_vbl_done
                                     24 	.globl _set_interrupts
                                     25 	.globl _joypad
                                     26 	.globl _add_LCD
                                     27 	.globl _add_VBL
                                     28 	.globl _remove_LCD
                                     29 	.globl _remove_VBL
                                     30 	.globl _open_window_map
                                     31 	.globl _open_window_tiles
                                     32 	.globl _cloud_map
                                     33 	.globl _cloud_tiles
                                     34 	.globl _play_intro_cinematic
                                     35 	.globl _finish_frame_inner
                                     36 	.globl _finish_frame_with_animation_inner
                                     37 	.globl _screen_shake
                                     38 	.globl _pan_up
                                     39 	.globl _pan_cloud
                                     40 ;--------------------------------------------------------
                                     41 ; special function registers
                                     42 ;--------------------------------------------------------
                                     43 ;--------------------------------------------------------
                                     44 ; ram data
                                     45 ;--------------------------------------------------------
                                     46 	.area _DATA
      000000                         47 _i:
      000000                         48 	.ds 1
      000001                         49 _current_camera_y:
      000001                         50 	.ds 1
      000002                         51 _prev_camera_y:
      000002                         52 	.ds 1
      000003                         53 _is_generated:
      000003                         54 	.ds 1
      000004                         55 _max_scan:
      000004                         56 	.ds 1
      000005                         57 _cloud_cut_scan:
      000005                         58 	.ds 1
                                     59 ;--------------------------------------------------------
                                     60 ; ram data
                                     61 ;--------------------------------------------------------
                                     62 	.area _INITIALIZED
      000000                         63 _frame_counter:
      000000                         64 	.ds 1
                                     65 ;--------------------------------------------------------
                                     66 ; absolute external ram data
                                     67 ;--------------------------------------------------------
                                     68 	.area _DABS (ABS)
                                     69 ;--------------------------------------------------------
                                     70 ; global & static initialisations
                                     71 ;--------------------------------------------------------
                                     72 	.area _HOME
                                     73 	.area _GSINIT
                                     74 	.area _GSFINAL
                                     75 	.area _GSINIT
                                     76 ;--------------------------------------------------------
                                     77 ; Home
                                     78 ;--------------------------------------------------------
                                     79 	.area _HOME
                                     80 	.area _HOME
                                     81 ;--------------------------------------------------------
                                     82 ; code
                                     83 ;--------------------------------------------------------
                                     84 	.area _CODE
                                     85 ;src/director.c:81: void VBL_interrupt(void) {
                                     86 ;	---------------------------------
                                     87 ; Function VBL_interrupt
                                     88 ; ---------------------------------
      000000                         89 _VBL_interrupt::
                                     90 ;src/director.c:83: SHOW_WIN;
      000000 F0r00            [12]   91 	ldh	a, (_LCDC_REG + 0)
      000002 F6 20            [ 8]   92 	or	a, #0x20
      000004 E0r00            [12]   93 	ldh	(_LCDC_REG + 0), a
                                     94 ;src/director.c:84: LYC_REG = cloud_cut_scan; 
      000006 FAr05r00         [16]   95 	ld	a, (#_cloud_cut_scan)
      000009 E0r00            [12]   96 	ldh	(_LYC_REG + 0), a
                                     97 ;src/director.c:85: BGP_REG = DMG_PALETTE(DMG_WHITE, DMG_WHITE, DMG_WHITE, DMG_WHITE); 
      00000B AF               [ 4]   98 	xor	a, a
      00000C E0r00            [12]   99 	ldh	(_BGP_REG + 0), a
                                    100 ;src/director.c:86: }
      00000E C9               [16]  101 	ret
      00000F                        102 _cloud_tiles:
      00000F E0                     103 	.db #0xe0	; 224
      000010 E0                     104 	.db #0xe0	; 224
      000011 18                     105 	.db #0x18	; 24
      000012 18                     106 	.db #0x18	; 24
      000013 07                     107 	.db #0x07	; 7
      000014 07                     108 	.db #0x07	; 7
      000015 00                     109 	.db #0x00	; 0
      000016 00                     110 	.db #0x00	; 0
      000017 00                     111 	.db #0x00	; 0
      000018 00                     112 	.db #0x00	; 0
      000019 00                     113 	.db #0x00	; 0
      00001A 00                     114 	.db #0x00	; 0
      00001B 00                     115 	.db #0x00	; 0
      00001C 00                     116 	.db #0x00	; 0
      00001D 00                     117 	.db #0x00	; 0
      00001E 00                     118 	.db #0x00	; 0
      00001F 07                     119 	.db #0x07	; 7
      000020 07                     120 	.db #0x07	; 7
      000021 18                     121 	.db #0x18	; 24
      000022 18                     122 	.db #0x18	; 24
      000023 E0                     123 	.db #0xe0	; 224
      000024 E0                     124 	.db #0xe0	; 224
      000025 00                     125 	.db #0x00	; 0
      000026 00                     126 	.db #0x00	; 0
      000027 00                     127 	.db #0x00	; 0
      000028 00                     128 	.db #0x00	; 0
      000029 00                     129 	.db #0x00	; 0
      00002A 00                     130 	.db #0x00	; 0
      00002B 00                     131 	.db #0x00	; 0
      00002C 00                     132 	.db #0x00	; 0
      00002D 00                     133 	.db #0x00	; 0
      00002E 00                     134 	.db #0x00	; 0
      00002F                        135 _cloud_map:
      00002F 70                     136 	.db #0x70	; 112	'p'
      000030 71                     137 	.db #0x71	; 113	'q'
      000031 70                     138 	.db #0x70	; 112	'p'
      000032 71                     139 	.db #0x71	; 113	'q'
      000033 70                     140 	.db #0x70	; 112	'p'
      000034 71                     141 	.db #0x71	; 113	'q'
      000035 70                     142 	.db #0x70	; 112	'p'
      000036 71                     143 	.db #0x71	; 113	'q'
      000037 70                     144 	.db #0x70	; 112	'p'
      000038 71                     145 	.db #0x71	; 113	'q'
      000039 70                     146 	.db #0x70	; 112	'p'
      00003A 71                     147 	.db #0x71	; 113	'q'
      00003B 70                     148 	.db #0x70	; 112	'p'
      00003C 71                     149 	.db #0x71	; 113	'q'
      00003D 70                     150 	.db #0x70	; 112	'p'
      00003E 71                     151 	.db #0x71	; 113	'q'
      00003F 70                     152 	.db #0x70	; 112	'p'
      000040 71                     153 	.db #0x71	; 113	'q'
      000041 70                     154 	.db #0x70	; 112	'p'
      000042 71                     155 	.db #0x71	; 113	'q'
      000043 70                     156 	.db #0x70	; 112	'p'
      000044 71                     157 	.db #0x71	; 113	'q'
      000045 70                     158 	.db #0x70	; 112	'p'
      000046 71                     159 	.db #0x71	; 113	'q'
      000047 70                     160 	.db #0x70	; 112	'p'
      000048 71                     161 	.db #0x71	; 113	'q'
      000049 70                     162 	.db #0x70	; 112	'p'
      00004A 71                     163 	.db #0x71	; 113	'q'
      00004B 70                     164 	.db #0x70	; 112	'p'
      00004C 71                     165 	.db #0x71	; 113	'q'
      00004D 70                     166 	.db #0x70	; 112	'p'
      00004E 71                     167 	.db #0x71	; 113	'q'
      00004F                        168 _open_window_tiles:
      00004F 00                     169 	.db #0x00	; 0
      000050 00                     170 	.db #0x00	; 0
      000051 00                     171 	.db #0x00	; 0
      000052 00                     172 	.db #0x00	; 0
      000053 00                     173 	.db #0x00	; 0
      000054 00                     174 	.db #0x00	; 0
      000055 00                     175 	.db #0x00	; 0
      000056 00                     176 	.db #0x00	; 0
      000057 80                     177 	.db #0x80	; 128
      000058 00                     178 	.db #0x00	; 0
      000059 C0                     179 	.db #0xc0	; 192
      00005A 0C                     180 	.db #0x0c	; 12
      00005B C0                     181 	.db #0xc0	; 192
      00005C 3C                     182 	.db #0x3c	; 60
      00005D 80                     183 	.db #0x80	; 128
      00005E FC                     184 	.db #0xfc	; 252
      00005F 80                     185 	.db #0x80	; 128
      000060 FC                     186 	.db #0xfc	; 252
      000061 80                     187 	.db #0x80	; 128
      000062 FC                     188 	.db #0xfc	; 252
      000063 80                     189 	.db #0x80	; 128
      000064 FC                     190 	.db #0xfc	; 252
      000065 80                     191 	.db #0x80	; 128
      000066 FC                     192 	.db #0xfc	; 252
      000067 80                     193 	.db #0x80	; 128
      000068 FC                     194 	.db #0xfc	; 252
      000069 80                     195 	.db #0x80	; 128
      00006A FC                     196 	.db #0xfc	; 252
      00006B 80                     197 	.db #0x80	; 128
      00006C FC                     198 	.db #0xfc	; 252
      00006D 80                     199 	.db #0x80	; 128
      00006E FC                     200 	.db #0xfc	; 252
      00006F 80                     201 	.db #0x80	; 128
      000070 FC                     202 	.db #0xfc	; 252
      000071 98                     203 	.db #0x98	; 152
      000072 FC                     204 	.db #0xfc	; 252
      000073 88                     205 	.db #0x88	; 136
      000074 FC                     206 	.db #0xfc	; 252
      000075 88                     207 	.db #0x88	; 136
      000076 FC                     208 	.db #0xfc	; 252
      000077 88                     209 	.db #0x88	; 136
      000078 FC                     210 	.db #0xfc	; 252
      000079 80                     211 	.db #0x80	; 128
      00007A FC                     212 	.db #0xfc	; 252
      00007B 80                     213 	.db #0x80	; 128
      00007C FC                     214 	.db #0xfc	; 252
      00007D 80                     215 	.db #0x80	; 128
      00007E FC                     216 	.db #0xfc	; 252
      00007F FF                     217 	.db #0xff	; 255
      000080 FF                     218 	.db #0xff	; 255
      000081 FF                     219 	.db #0xff	; 255
      000082 FF                     220 	.db #0xff	; 255
      000083 FF                     221 	.db #0xff	; 255
      000084 FF                     222 	.db #0xff	; 255
      000085 FC                     223 	.db #0xfc	; 252
      000086 FF                     224 	.db #0xff	; 255
      000087 FF                     225 	.db #0xff	; 255
      000088 FF                     226 	.db #0xff	; 255
      000089 F0                     227 	.db #0xf0	; 240
      00008A FF                     228 	.db #0xff	; 255
      00008B C0                     229 	.db #0xc0	; 192
      00008C FF                     230 	.db #0xff	; 255
      00008D 00                     231 	.db #0x00	; 0
      00008E FF                     232 	.db #0xff	; 255
      00008F FF                     233 	.db #0xff	; 255
      000090 FF                     234 	.db #0xff	; 255
      000091 FF                     235 	.db #0xff	; 255
      000092 FF                     236 	.db #0xff	; 255
      000093 FF                     237 	.db #0xff	; 255
      000094 FF                     238 	.db #0xff	; 255
      000095 3F                     239 	.db #0x3f	; 63
      000096 FF                     240 	.db #0xff	; 255
      000097 FF                     241 	.db #0xff	; 255
      000098 FF                     242 	.db #0xff	; 255
      000099 0F                     243 	.db #0x0f	; 15
      00009A FF                     244 	.db #0xff	; 255
      00009B 03                     245 	.db #0x03	; 3
      00009C FF                     246 	.db #0xff	; 255
      00009D 00                     247 	.db #0x00	; 0
      00009E FF                     248 	.db #0xff	; 255
      00009F C0                     249 	.db #0xc0	; 192
      0000A0 FC                     250 	.db #0xfc	; 252
      0000A1 30                     251 	.db #0x30	; 48	'0'
      0000A2 FC                     252 	.db #0xfc	; 252
      0000A3 DC                     253 	.db #0xdc	; 220
      0000A4 3C                     254 	.db #0x3c	; 60
      0000A5 40                     255 	.db #0x40	; 64
      0000A6 C0                     256 	.db #0xc0	; 192
      0000A7 00                     257 	.db #0x00	; 0
      0000A8 C0                     258 	.db #0xc0	; 192
      0000A9 00                     259 	.db #0x00	; 0
      0000AA 00                     260 	.db #0x00	; 0
      0000AB 00                     261 	.db #0x00	; 0
      0000AC 00                     262 	.db #0x00	; 0
      0000AD 00                     263 	.db #0x00	; 0
      0000AE 00                     264 	.db #0x00	; 0
      0000AF                        265 _open_window_map:
      0000AF 11                     266 	.db #0x11	; 17
      0000B0 12                     267 	.db #0x12	; 18
      0000B1 12                     268 	.db #0x12	; 18
      0000B2 72                     269 	.db #0x72	; 114	'r'
      0000B3 04                     270 	.db #0x04	; 4
      0000B4 5A                     271 	.db #0x5a	; 90	'Z'
      0000B5 5A                     272 	.db #0x5a	; 90	'Z'
      0000B6 73                     273 	.db #0x73	; 115	's'
      0000B7 04                     274 	.db #0x04	; 4
      0000B8 61                     275 	.db #0x61	; 97	'a'
      0000B9 61                     276 	.db #0x61	; 97	'a'
      0000BA 74                     277 	.db #0x74	; 116	't'
      0000BB 04                     278 	.db #0x04	; 4
      0000BC 75                     279 	.db #0x75	; 117	'u'
      0000BD 76                     280 	.db #0x76	; 118	'v'
      0000BE 73                     281 	.db #0x73	; 115	's'
      0000BF 28                     282 	.db #0x28	; 40
      0000C0 29                     283 	.db #0x29	; 41
      0000C1 29                     284 	.db #0x29	; 41
      0000C2 77                     285 	.db #0x77	; 119	'w'
                                    286 ;src/director.c:87: void LCD_interrupt(void) {
                                    287 ;	---------------------------------
                                    288 ; Function LCD_interrupt
                                    289 ; ---------------------------------
      0000C3                        290 _LCD_interrupt::
                                    291 ;src/director.c:88: if (LY_REG < 144) {
      0000C3 F0r00            [12]  292 	ldh	a, (_LY_REG + 0)
      0000C5 D6 90            [ 8]  293 	sub	a, #0x90
      0000C7 D0               [20]  294 	ret	NC
                                    295 ;src/director.c:89: if (LY_REG == max_scan)
      0000C8 F0r00            [12]  296 	ldh	a, (_LY_REG + 0)
      0000CA 21r04r00         [12]  297 	ld	hl, #_max_scan
      0000CD 96               [ 8]  298 	sub	a, (hl)
      0000CE 20 0B            [12]  299 	jr	NZ, 00104$
                                    300 ;src/director.c:91: HIDE_WIN;
      0000D0 F0r00            [12]  301 	ldh	a, (_LCDC_REG + 0)
      0000D2 E6 DF            [ 8]  302 	and	a, #0xdf
      0000D4 E0r00            [12]  303 	ldh	(_LCDC_REG + 0), a
                                    304 ;src/director.c:92: WX_REG = 160; //THIS IS TO COVER A BUG ON THE DMG!!! REMOVE IT FOR THE GBC VERSION
      0000D6 3E A0            [ 8]  305 	ld	a, #0xa0
      0000D8 E0r00            [12]  306 	ldh	(_WX_REG + 0), a
      0000DA C9               [16]  307 	ret
      0000DB                        308 00104$:
                                    309 ;src/director.c:94: } else if (LY_REG == cloud_cut_scan -6)
      0000DB FAr05r00         [16]  310 	ld	a, (#_cloud_cut_scan)
      0000DE 06 00            [ 8]  311 	ld	b, #0x00
      0000E0 C6 FA            [ 8]  312 	add	a, #0xfa
      0000E2 4F               [ 4]  313 	ld	c, a
      0000E3 78               [ 4]  314 	ld	a, b
      0000E4 CE FF            [ 8]  315 	adc	a, #0xff
      0000E6 47               [ 4]  316 	ld	b, a
      0000E7 F0r00            [12]  317 	ldh	a, (_LY_REG + 0)
      0000E9 5F               [ 4]  318 	ld	e, a
      0000EA 16 00            [ 8]  319 	ld	d, #0x00
      0000EC 7B               [ 4]  320 	ld	a, e
      0000ED 91               [ 4]  321 	sub	a, c
      0000EE C0               [20]  322 	ret	NZ
      0000EF 7A               [ 4]  323 	ld	a, d
      0000F0 90               [ 4]  324 	sub	a, b
      0000F1 C0               [20]  325 	ret	NZ
                                    326 ;src/director.c:96: LYC_REG = max_scan;
      0000F2 FAr04r00         [16]  327 	ld	a, (#_max_scan)
      0000F5 E0r00            [12]  328 	ldh	(_LYC_REG + 0), a
                                    329 ;src/director.c:98: BGP_REG = DMG_PALETTE(DMG_WHITE, DMG_LITE_GRAY, DMG_DARK_GRAY, DMG_BLACK); 
      0000F7 3E E4            [ 8]  330 	ld	a, #0xe4
      0000F9 E0r00            [12]  331 	ldh	(_BGP_REG + 0), a
                                    332 ;src/director.c:112: }
      0000FB C9               [16]  333 	ret
                                    334 ;src/director.c:116: void play_intro_cinematic(void){
                                    335 ;	---------------------------------
                                    336 ; Function play_intro_cinematic
                                    337 ; ---------------------------------
      0000FC                        338 _play_intro_cinematic::
      0000FC E8 FB            [16]  339 	add	sp, #-5
                                    340 ;src/director.c:118: SHOW_BKG; SHOW_SPRITES; HIDE_WIN;
      0000FE F0r00            [12]  341 	ldh	a, (_LCDC_REG + 0)
      000100 F6 01            [ 8]  342 	or	a, #0x01
      000102 E0r00            [12]  343 	ldh	(_LCDC_REG + 0), a
      000104 F0r00            [12]  344 	ldh	a, (_LCDC_REG + 0)
      000106 F6 02            [ 8]  345 	or	a, #0x02
      000108 E0r00            [12]  346 	ldh	(_LCDC_REG + 0), a
      00010A F0r00            [12]  347 	ldh	a, (_LCDC_REG + 0)
      00010C E6 DF            [ 8]  348 	and	a, #0xdf
      00010E E0r00            [12]  349 	ldh	(_LCDC_REG + 0), a
                                    350 ;src/director.c:121: load_map();
      000110 CDr00r00         [24]  351 	call	_load_map
                                    352 ;src/director.c:124: player_init();
      000113 CDr00r00         [24]  353 	call	_player_init
                                    354 ;src/director.c:126: set_sprite_data(37, 10, playerSprite_extra);
      000116 11r00r00         [12]  355 	ld	de, #_playerSprite_extra
      000119 D5               [16]  356 	push	de
      00011A 21 25 0A         [12]  357 	ld	hl, #0xa25
      00011D E5               [16]  358 	push	hl
      00011E CDr00r00         [24]  359 	call	_set_sprite_data
      000121 E8 04            [16]  360 	add	sp, #4
                                    361 ;src/director.c:127: set_sprite_data(47, 23, thought_bubble);
      000123 11r00r00         [12]  362 	ld	de, #_thought_bubble
      000126 D5               [16]  363 	push	de
      000127 21 2F 17         [12]  364 	ld	hl, #0x172f
      00012A E5               [16]  365 	push	hl
      00012B CDr00r00         [24]  366 	call	_set_sprite_data
      00012E E8 04            [16]  367 	add	sp, #4
                                    368 ;src/director.c:128: set_bkg_data(0x70, 2, cloud_tiles);
      000130 11r0Fr00         [12]  369 	ld	de, #_cloud_tiles
      000133 D5               [16]  370 	push	de
      000134 21 70 02         [12]  371 	ld	hl, #0x270
      000137 E5               [16]  372 	push	hl
      000138 CDr00r00         [24]  373 	call	_set_bkg_data
      00013B E8 04            [16]  374 	add	sp, #4
                                    375 ;src/director.c:129: set_bkg_data(0x72, 6, open_window_tiles);
      00013D 11r4Fr00         [12]  376 	ld	de, #_open_window_tiles
      000140 D5               [16]  377 	push	de
      000141 21 72 06         [12]  378 	ld	hl, #0x672
      000144 E5               [16]  379 	push	hl
      000145 CDr00r00         [24]  380 	call	_set_bkg_data
      000148 E8 04            [16]  381 	add	sp, #4
                                    382 ;src/director.c:130: set_bkg_tile_xy(0, 17, 0x61);
      00014A 21 11 61         [12]  383 	ld	hl, #0x6111
      00014D E5               [16]  384 	push	hl
      00014E AF               [ 4]  385 	xor	a, a
      00014F F5               [16]  386 	push	af
      000150 33               [ 8]  387 	inc	sp
      000151 CDr00r00         [24]  388 	call	_set_bkg_tile_xy
      000154 E8 03            [16]  389 	add	sp, #3
                                    390 ;src/director.c:131: set_bkg_tile_xy(0, 16, 0x6D);
      000156 21 10 6D         [12]  391 	ld	hl, #0x6d10
      000159 E5               [16]  392 	push	hl
      00015A AF               [ 4]  393 	xor	a, a
      00015B F5               [16]  394 	push	af
      00015C 33               [ 8]  395 	inc	sp
      00015D CDr00r00         [24]  396 	call	_set_bkg_tile_xy
      000160 E8 03            [16]  397 	add	sp, #3
                                    398 ;src/director.c:132: set_bkg_tile_xy(21, 17, 0x61);
      000162 21 11 61         [12]  399 	ld	hl, #0x6111
      000165 E5               [16]  400 	push	hl
      000166 3E 15            [ 8]  401 	ld	a, #0x15
      000168 F5               [16]  402 	push	af
      000169 33               [ 8]  403 	inc	sp
      00016A CDr00r00         [24]  404 	call	_set_bkg_tile_xy
      00016D E8 03            [16]  405 	add	sp, #3
                                    406 ;src/director.c:133: set_bkg_tile_xy(21, 16, 0x6C);
      00016F 21 10 6C         [12]  407 	ld	hl, #0x6c10
      000172 E5               [16]  408 	push	hl
      000173 3E 15            [ 8]  409 	ld	a, #0x15
      000175 F5               [16]  410 	push	af
      000176 33               [ 8]  411 	inc	sp
      000177 CDr00r00         [24]  412 	call	_set_bkg_tile_xy
      00017A E8 03            [16]  413 	add	sp, #3
                                    414 ;src/director.c:134: set_bkg_tile_xy(0, 15, 0x4D);
      00017C 21 0F 4D         [12]  415 	ld	hl, #0x4d0f
      00017F E5               [16]  416 	push	hl
      000180 AF               [ 4]  417 	xor	a, a
      000181 F5               [16]  418 	push	af
      000182 33               [ 8]  419 	inc	sp
      000183 CDr00r00         [24]  420 	call	_set_bkg_tile_xy
      000186 E8 03            [16]  421 	add	sp, #3
                                    422 ;src/director.c:136: player_x = 0;
      000188 AF               [ 4]  423 	xor	a, a
      000189 21r00r00         [12]  424 	ld	hl, #_player_x
      00018C 22               [ 8]  425 	ld	(hl+), a
      00018D 77               [ 8]  426 	ld	(hl), a
                                    427 ;src/director.c:137: move_metasprite(idle_metasprites[0], TILE_NUM_START, SPR_NUM_START, (uint8_t)SUB_TO_PX(player_x), player_y);
      00018E 21r00r00         [12]  428 	ld	hl, #_player_y
      000191 4E               [ 8]  429 	ld	c, (hl)
      000192 21r00r00         [12]  430 	ld	hl, #_idle_metasprites
      000195 2A               [ 8]  431 	ld	a, (hl+)
      000196 47               [ 4]  432 	ld	b, a
      000197 7E               [ 8]  433 	ld	a, (hl)
                                    434 ;/home/javier/Escritorio/gb_development/gbdk/include/gb/metasprites.h:160: __current_metasprite = metasprite;
      000198 21r00r00         [12]  435 	ld	hl, #___current_metasprite
      00019B 70               [ 8]  436 	ld	(hl), b
      00019C 23               [ 8]  437 	inc	hl
      00019D 77               [ 8]  438 	ld	(hl), a
                                    439 ;/home/javier/Escritorio/gb_development/gbdk/include/gb/metasprites.h:161: __current_base_tile = base_tile;
      00019E 21r00r00         [12]  440 	ld	hl, #___current_base_tile
      0001A1 36 00            [12]  441 	ld	(hl), #0x00
                                    442 ;/home/javier/Escritorio/gb_development/gbdk/include/gb/metasprites.h:162: __current_base_prop = 0;
      0001A3 21r00r00         [12]  443 	ld	hl, #___current_base_prop
      0001A6 36 00            [12]  444 	ld	(hl), #0x00
                                    445 ;/home/javier/Escritorio/gb_development/gbdk/include/gb/metasprites.h:163: return __move_metasprite(base_sprite, (y << 8) | (uint8_t)x);
      0001A8 F8 03            [12]  446 	ldhl	sp,	#3
      0001AA 79               [ 4]  447 	ld	a, c
      0001AB 22               [ 8]  448 	ld	(hl+), a
      0001AC AF               [ 4]  449 	xor	a, a
      0001AD 32               [ 8]  450 	ld	(hl-), a
      0001AE 2A               [ 8]  451 	ld	a, (hl+)
      0001AF 32               [ 8]  452 	ld	(hl-), a
      0001B0 36 00            [12]  453 	ld	(hl), #0x00
      0001B2 2A               [ 8]  454 	ld	a, (hl+)
      0001B3 5F               [ 4]  455 	ld	e, a
      0001B4 56               [ 8]  456 	ld	d, (hl)
      0001B5 AF               [ 4]  457 	xor	a, a
      0001B6 CDr00r00         [24]  458 	call	___move_metasprite
                                    459 ;src/director.c:138: current_state = PLAYER_STATE_RUNNING;
      0001B9 21r00r00         [12]  460 	ld	hl, #_current_state
      0001BC 36 01            [12]  461 	ld	(hl), #0x01
                                    462 ;src/director.c:141: for (i = 0; i < 42; i++){
      0001BE 21r00r00         [12]  463 	ld	hl, #_i
      0001C1 36 00            [12]  464 	ld	(hl), #0x00
      0001C3                        465 00314$:
                                    466 ;src/director.c:142: player_x += 1<<8;
      0001C3 21r00r00         [12]  467 	ld	hl, #_player_x
      0001C6 2A               [ 8]  468 	ld	a, (hl+)
      0001C7 4F               [ 4]  469 	ld	c, a
      0001C8 3A               [ 8]  470 	ld	a, (hl-)
      0001C9 3C               [ 4]  471 	inc	a
      0001CA 71               [ 8]  472 	ld	(hl), c
      0001CB 23               [ 8]  473 	inc	hl
      0001CC 77               [ 8]  474 	ld	(hl), a
                                    475 ;src/director.c:144: finish_frame_with_animation(1)
      0001CD 3E 01            [ 8]  476 	ld	a, #0x01
      0001CF CDrE4r0D         [24]  477 	call	_finish_frame_with_animation_inner
      0001D2 CB 47            [ 8]  478 	bit	0,a
      0001D4 C2rC4r0D         [16]  479 	jp	NZ,00349$
                                    480 ;src/director.c:141: for (i = 0; i < 42; i++){
      0001D7 21r00r00         [12]  481 	ld	hl, #_i
      0001DA 34               [12]  482 	inc	(hl)
      0001DB 7E               [ 8]  483 	ld	a, (hl)
      0001DC D6 2A            [ 8]  484 	sub	a, #0x2a
      0001DE 38 E3            [12]  485 	jr	C, 00314$
                                    486 ;src/director.c:147: for (i = 0; i < 36; i++)
      0001E0 36 00            [12]  487 	ld	(hl), #0x00
      0001E2                        488 00316$:
                                    489 ;src/director.c:149: if (frame_counter & 0x01)
      0001E2 FAr00r00         [16]  490 	ld	a, (#_frame_counter)
      0001E5 0F               [ 4]  491 	rrca
      0001E6 30 27            [12]  492 	jr	NC, 00105$
                                    493 ;src/director.c:151: player_x += 1<<8;
      0001E8 FAr00r00         [16]  494 	ld	a, (#_player_x)
      0001EB F8 01            [12]  495 	ldhl	sp,	#1
      0001ED 77               [ 8]  496 	ld	(hl), a
      0001EE FAr01r00         [16]  497 	ld	a, (#_player_x + 1)
      0001F1 F8 02            [12]  498 	ldhl	sp,	#2
      0001F3 32               [ 8]  499 	ld	(hl-), a
      0001F4 2A               [ 8]  500 	ld	a, (hl+)
      0001F5 5F               [ 4]  501 	ld	e, a
      0001F6 56               [ 8]  502 	ld	d, (hl)
      0001F7 21 00 01         [12]  503 	ld	hl, #0x0100
      0001FA 19               [ 8]  504 	add	hl, de
      0001FB E5               [16]  505 	push	hl
      0001FC 7D               [ 4]  506 	ld	a, l
      0001FD F8 05            [12]  507 	ldhl	sp,	#5
      0001FF 77               [ 8]  508 	ld	(hl), a
      000200 E1               [12]  509 	pop	hl
      000201 7C               [ 4]  510 	ld	a, h
      000202 F8 04            [12]  511 	ldhl	sp,	#4
      000204 32               [ 8]  512 	ld	(hl-), a
      000205 7E               [ 8]  513 	ld	a, (hl)
      000206 EAr00r00         [16]  514 	ld	(#_player_x),a
      000209 F8 04            [12]  515 	ldhl	sp,	#4
      00020B 7E               [ 8]  516 	ld	a, (hl)
      00020C EAr01r00         [16]  517 	ld	(#_player_x + 1),a
      00020F                        518 00105$:
                                    519 ;src/director.c:154: finish_frame_with_animation(1)
      00020F 3E 01            [ 8]  520 	ld	a, #0x01
      000211 CDrE4r0D         [24]  521 	call	_finish_frame_with_animation_inner
      000214 CB 47            [ 8]  522 	bit	0,a
      000216 C2rC4r0D         [16]  523 	jp	NZ,00349$
                                    524 ;src/director.c:147: for (i = 0; i < 36; i++)
      000219 21r00r00         [12]  525 	ld	hl, #_i
      00021C 34               [12]  526 	inc	(hl)
      00021D 7E               [ 8]  527 	ld	a, (hl)
      00021E D6 24            [ 8]  528 	sub	a, #0x24
      000220 38 C0            [12]  529 	jr	C, 00316$
                                    530 ;src/director.c:157: current_state = PLAYER_STATE_IDLE;
      000222 21r00r00         [12]  531 	ld	hl, #_current_state
      000225 36 00            [12]  532 	ld	(hl), #0x00
                                    533 ;src/director.c:158: finish_frame_with_animation(15)
      000227 3E 0F            [ 8]  534 	ld	a, #0x0f
      000229 CDrE4r0D         [24]  535 	call	_finish_frame_with_animation_inner
      00022C CB 47            [ 8]  536 	bit	0,a
      00022E C2rC4r0D         [16]  537 	jp	NZ,00349$
                                    538 ;src/director.c:159: is_facing_right = false;
      000231 21r00r00         [12]  539 	ld	hl, #_is_facing_right
      000234 36 00            [12]  540 	ld	(hl), #0x00
                                    541 ;src/director.c:160: finish_frame_with_animation(26)
      000236 3E 1A            [ 8]  542 	ld	a, #0x1a
      000238 CDrE4r0D         [24]  543 	call	_finish_frame_with_animation_inner
      00023B CB 47            [ 8]  544 	bit	0,a
      00023D C2rC4r0D         [16]  545 	jp	NZ,00349$
                                    546 ;src/director.c:163: move_metasprite_vflip(idle_metasprites[0], TILE_NUM_START, SPR_NUM_START, (uint8_t)SUB_TO_PX(player_x), player_y);
      000240 21r00r00         [12]  547 	ld	hl, #_player_y
      000243 46               [ 8]  548 	ld	b, (hl)
      000244 21r01r00         [12]  549 	ld	hl, #_player_x + 1
      000247 4E               [ 8]  550 	ld	c, (hl)
      000248 21r01r00         [12]  551 	ld	hl, #_idle_metasprites + 1
      00024B 3A               [ 8]  552 	ld	a,	(hl-)
                                    553 ;	spillPairReg hl
                                    554 ;/home/javier/Escritorio/gb_development/gbdk/include/gb/metasprites.h:200: __current_metasprite = metasprite;
      00024C 5E               [ 8]  555 	ld	e, (hl)
      00024D 57               [ 4]  556 	ld	d, a
      00024E 21r00r00         [12]  557 	ld	hl, #___current_metasprite
      000251 7B               [ 4]  558 	ld	a, e
      000252 22               [ 8]  559 	ld	(hl+), a
      000253 72               [ 8]  560 	ld	(hl), d
                                    561 ;/home/javier/Escritorio/gb_development/gbdk/include/gb/metasprites.h:201: __current_base_tile = base_tile;
      000254 21r00r00         [12]  562 	ld	hl, #___current_base_tile
      000257 36 00            [12]  563 	ld	(hl), #0x00
                                    564 ;/home/javier/Escritorio/gb_development/gbdk/include/gb/metasprites.h:202: __current_base_prop = 0;
      000259 21r00r00         [12]  565 	ld	hl, #___current_base_prop
      00025C 36 00            [12]  566 	ld	(hl), #0x00
                                    567 ;/home/javier/Escritorio/gb_development/gbdk/include/gb/metasprites.h:203: return __move_metasprite_vflip(base_sprite, (y << 8) | (uint8_t)(x - 8u));
      00025E 50               [ 4]  568 	ld	d, b
      00025F 1E 00            [ 8]  569 	ld	e, #0x00
      000261 79               [ 4]  570 	ld	a, c
      000262 C6 F8            [ 8]  571 	add	a, #0xf8
      000264 B3               [ 4]  572 	or	a, e
      000265 5F               [ 4]  573 	ld	e, a
      000266 AF               [ 4]  574 	xor	a, a
      000267 CDr00r00         [24]  575 	call	___move_metasprite_vflip
                                    576 ;src/director.c:165: for (i=0; i<6; i++){
      00026A 21r00r00         [12]  577 	ld	hl, #_i
      00026D 36 00            [12]  578 	ld	(hl), #0x00
      00026F                        579 00318$:
                                    580 ;src/director.c:166: move_metasprite(key_left_0, TILE_NUM_START, SPR_NUM_START, (uint8_t)SUB_TO_PX(player_x), player_y);
      00026F 21r00r00         [12]  581 	ld	hl, #_player_y
      000272 5E               [ 8]  582 	ld	e, (hl)
      000273 21r01r00         [12]  583 	ld	hl, #_player_x + 1
      000276 4E               [ 8]  584 	ld	c, (hl)
                                    585 ;/home/javier/Escritorio/gb_development/gbdk/include/gb/metasprites.h:160: __current_metasprite = metasprite;
      000277 21r00r00         [12]  586 	ld	hl, #___current_metasprite
      00027A 3Er00            [ 8]  587 	ld	a, #<(_key_left_0)
      00027C 22               [ 8]  588 	ld	(hl+), a
      00027D 36s00            [12]  589 	ld	(hl), #>(_key_left_0)
                                    590 ;/home/javier/Escritorio/gb_development/gbdk/include/gb/metasprites.h:161: __current_base_tile = base_tile;
      00027F 21r00r00         [12]  591 	ld	hl, #___current_base_tile
      000282 36 00            [12]  592 	ld	(hl), #0x00
                                    593 ;/home/javier/Escritorio/gb_development/gbdk/include/gb/metasprites.h:162: __current_base_prop = 0;
      000284 21r00r00         [12]  594 	ld	hl, #___current_base_prop
      000287 36 00            [12]  595 	ld	(hl), #0x00
                                    596 ;/home/javier/Escritorio/gb_development/gbdk/include/gb/metasprites.h:163: return __move_metasprite(base_sprite, (y << 8) | (uint8_t)x);
      000289 53               [ 4]  597 	ld	d, e
      00028A AF               [ 4]  598 	xor	a, a
      00028B B1               [ 4]  599 	or	a, c
      00028C 5F               [ 4]  600 	ld	e, a
      00028D AF               [ 4]  601 	xor	a, a
      00028E CDr00r00         [24]  602 	call	___move_metasprite
                                    603 ;src/director.c:168: finish_frame(8)
      000291 3E 08            [ 8]  604 	ld	a, #0x08
      000293 CDrC7r0D         [24]  605 	call	_finish_frame_inner
      000296 CB 47            [ 8]  606 	bit	0,a
      000298 C2rC4r0D         [16]  607 	jp	NZ,00349$
                                    608 ;src/director.c:170: move_metasprite(key_left_1, TILE_NUM_START, SPR_NUM_START, (uint8_t)SUB_TO_PX(player_x), player_y);
      00029B 21r00r00         [12]  609 	ld	hl, #_player_y
      00029E 4E               [ 8]  610 	ld	c, (hl)
      00029F 21r01r00         [12]  611 	ld	hl, #_player_x + 1
      0002A2 5E               [ 8]  612 	ld	e, (hl)
                                    613 ;/home/javier/Escritorio/gb_development/gbdk/include/gb/metasprites.h:160: __current_metasprite = metasprite;
      0002A3 21r00r00         [12]  614 	ld	hl, #___current_metasprite
      0002A6 3Er00            [ 8]  615 	ld	a, #<(_key_left_1)
      0002A8 22               [ 8]  616 	ld	(hl+), a
      0002A9 36s00            [12]  617 	ld	(hl), #>(_key_left_1)
                                    618 ;/home/javier/Escritorio/gb_development/gbdk/include/gb/metasprites.h:161: __current_base_tile = base_tile;
      0002AB 21r00r00         [12]  619 	ld	hl, #___current_base_tile
      0002AE 36 00            [12]  620 	ld	(hl), #0x00
                                    621 ;/home/javier/Escritorio/gb_development/gbdk/include/gb/metasprites.h:162: __current_base_prop = 0;
      0002B0 21r00r00         [12]  622 	ld	hl, #___current_base_prop
      0002B3 36 00            [12]  623 	ld	(hl), #0x00
                                    624 ;/home/javier/Escritorio/gb_development/gbdk/include/gb/metasprites.h:163: return __move_metasprite(base_sprite, (y << 8) | (uint8_t)x);
      0002B5 AF               [ 4]  625 	xor	a, a
      0002B6 B3               [ 4]  626 	or	a, e
      0002B7 5F               [ 4]  627 	ld	e, a
      0002B8 51               [ 4]  628 	ld	d, c
      0002B9 AF               [ 4]  629 	xor	a, a
      0002BA CDr00r00         [24]  630 	call	___move_metasprite
                                    631 ;src/director.c:172: finish_frame(8)
      0002BD 3E 08            [ 8]  632 	ld	a, #0x08
      0002BF CDrC7r0D         [24]  633 	call	_finish_frame_inner
      0002C2 CB 47            [ 8]  634 	bit	0,a
      0002C4 C2rC4r0D         [16]  635 	jp	NZ,00349$
                                    636 ;src/director.c:165: for (i=0; i<6; i++){
      0002C7 21r00r00         [12]  637 	ld	hl, #_i
      0002CA 34               [12]  638 	inc	(hl)
      0002CB 7E               [ 8]  639 	ld	a, (hl)
      0002CC D6 06            [ 8]  640 	sub	a, #0x06
      0002CE 38 9F            [12]  641 	jr	C, 00318$
                                    642 ;src/director.c:174: for (i=0; i<6; i++){
      0002D0 36 00            [12]  643 	ld	(hl), #0x00
      0002D2                        644 00320$:
                                    645 ;src/director.c:175: move_metasprite(key_right_0, TILE_NUM_START, SPR_NUM_START, (uint8_t)SUB_TO_PX(player_x), player_y);
      0002D2 21r00r00         [12]  646 	ld	hl, #_player_y
      0002D5 5E               [ 8]  647 	ld	e, (hl)
      0002D6 21r01r00         [12]  648 	ld	hl, #_player_x + 1
      0002D9 4E               [ 8]  649 	ld	c, (hl)
                                    650 ;/home/javier/Escritorio/gb_development/gbdk/include/gb/metasprites.h:160: __current_metasprite = metasprite;
      0002DA 21r00r00         [12]  651 	ld	hl, #___current_metasprite
      0002DD 3Er00            [ 8]  652 	ld	a, #<(_key_right_0)
      0002DF 22               [ 8]  653 	ld	(hl+), a
      0002E0 36s00            [12]  654 	ld	(hl), #>(_key_right_0)
                                    655 ;/home/javier/Escritorio/gb_development/gbdk/include/gb/metasprites.h:161: __current_base_tile = base_tile;
      0002E2 21r00r00         [12]  656 	ld	hl, #___current_base_tile
      0002E5 36 00            [12]  657 	ld	(hl), #0x00
                                    658 ;/home/javier/Escritorio/gb_development/gbdk/include/gb/metasprites.h:162: __current_base_prop = 0;
      0002E7 21r00r00         [12]  659 	ld	hl, #___current_base_prop
      0002EA 36 00            [12]  660 	ld	(hl), #0x00
                                    661 ;/home/javier/Escritorio/gb_development/gbdk/include/gb/metasprites.h:163: return __move_metasprite(base_sprite, (y << 8) | (uint8_t)x);
      0002EC 53               [ 4]  662 	ld	d, e
      0002ED AF               [ 4]  663 	xor	a, a
      0002EE B1               [ 4]  664 	or	a, c
      0002EF 5F               [ 4]  665 	ld	e, a
      0002F0 AF               [ 4]  666 	xor	a, a
      0002F1 CDr00r00         [24]  667 	call	___move_metasprite
                                    668 ;src/director.c:177: finish_frame(8)
      0002F4 3E 08            [ 8]  669 	ld	a, #0x08
      0002F6 CDrC7r0D         [24]  670 	call	_finish_frame_inner
      0002F9 CB 47            [ 8]  671 	bit	0,a
      0002FB C2rC4r0D         [16]  672 	jp	NZ,00349$
                                    673 ;src/director.c:179: move_metasprite(key_right_1, TILE_NUM_START, SPR_NUM_START, (uint8_t)SUB_TO_PX(player_x), player_y);
      0002FE 21r00r00         [12]  674 	ld	hl, #_player_y
      000301 4E               [ 8]  675 	ld	c, (hl)
      000302 21r01r00         [12]  676 	ld	hl, #_player_x + 1
      000305 5E               [ 8]  677 	ld	e, (hl)
                                    678 ;/home/javier/Escritorio/gb_development/gbdk/include/gb/metasprites.h:160: __current_metasprite = metasprite;
      000306 21r00r00         [12]  679 	ld	hl, #___current_metasprite
      000309 3Er00            [ 8]  680 	ld	a, #<(_key_right_1)
      00030B 22               [ 8]  681 	ld	(hl+), a
      00030C 36s00            [12]  682 	ld	(hl), #>(_key_right_1)
                                    683 ;/home/javier/Escritorio/gb_development/gbdk/include/gb/metasprites.h:161: __current_base_tile = base_tile;
      00030E 21r00r00         [12]  684 	ld	hl, #___current_base_tile
      000311 36 00            [12]  685 	ld	(hl), #0x00
                                    686 ;/home/javier/Escritorio/gb_development/gbdk/include/gb/metasprites.h:162: __current_base_prop = 0;
      000313 21r00r00         [12]  687 	ld	hl, #___current_base_prop
      000316 36 00            [12]  688 	ld	(hl), #0x00
                                    689 ;/home/javier/Escritorio/gb_development/gbdk/include/gb/metasprites.h:163: return __move_metasprite(base_sprite, (y << 8) | (uint8_t)x);
      000318 AF               [ 4]  690 	xor	a, a
      000319 B3               [ 4]  691 	or	a, e
      00031A 5F               [ 4]  692 	ld	e, a
      00031B 51               [ 4]  693 	ld	d, c
      00031C AF               [ 4]  694 	xor	a, a
      00031D CDr00r00         [24]  695 	call	___move_metasprite
                                    696 ;src/director.c:181: finish_frame(8)
      000320 3E 08            [ 8]  697 	ld	a, #0x08
      000322 CDrC7r0D         [24]  698 	call	_finish_frame_inner
      000325 CB 47            [ 8]  699 	bit	0,a
      000327 C2rC4r0D         [16]  700 	jp	NZ,00349$
                                    701 ;src/director.c:174: for (i=0; i<6; i++){
      00032A 21r00r00         [12]  702 	ld	hl, #_i
      00032D 34               [12]  703 	inc	(hl)
      00032E 7E               [ 8]  704 	ld	a, (hl)
      00032F D6 06            [ 8]  705 	sub	a, #0x06
      000331 38 9F            [12]  706 	jr	C, 00320$
                                    707 ;src/director.c:184: current_state = PLAYER_STATE_IDLE;
      000333 21r00r00         [12]  708 	ld	hl, #_current_state
      000336 36 00            [12]  709 	ld	(hl), #0x00
                                    710 ;src/director.c:185: is_facing_right = false;
      000338 21r00r00         [12]  711 	ld	hl, #_is_facing_right
      00033B 36 00            [12]  712 	ld	(hl), #0x00
                                    713 ;src/director.c:186: finish_frame_with_animation(20)
      00033D 3E 14            [ 8]  714 	ld	a, #0x14
      00033F CDrE4r0D         [24]  715 	call	_finish_frame_with_animation_inner
      000342 CB 47            [ 8]  716 	bit	0,a
      000344 C2rC4r0D         [16]  717 	jp	NZ,00349$
                                    718 ;src/director.c:191: bubble_x = (uint8_t)SUB_TO_PX(player_x) - 4;
      000347 FAr01r00         [16]  719 	ld	a, (#_player_x + 1)
      00034A C6 FC            [ 8]  720 	add	a, #0xfc
      00034C 4F               [ 4]  721 	ld	c, a
                                    722 ;src/director.c:192: bubble_y = player_y - 7; // 11
      00034D FAr00r00         [16]  723 	ld	a, (#_player_y)
      000350 C6 F9            [ 8]  724 	add	a, #0xf9
      000352 47               [ 4]  725 	ld	b, a
                                    726 ;src/director.c:193: OBP1_REG = DMG_PALETTE(DMG_WHITE, DMG_WHITE, DMG_DARK_GRAY, DMG_BLACK);
      000353 3E E0            [ 8]  727 	ld	a, #0xe0
      000355 E0r00            [12]  728 	ldh	(_OBP1_REG + 0), a
                                    729 ;/home/javier/Escritorio/gb_development/gbdk/include/gb/gb.h:1804: shadow_OAM[nb].tile=tile;
      000357 21r52r00         [12]  730 	ld	hl, #(_shadow_OAM + 82)
      00035A 36 3B            [12]  731 	ld	(hl), #0x3b
                                    732 ;/home/javier/Escritorio/gb_development/gbdk/include/gb/gb.h:1850: shadow_OAM[nb].prop=prop;
      00035C 21r53r00         [12]  733 	ld	hl, #(_shadow_OAM + 83)
      00035F 36 10            [12]  734 	ld	(hl), #0x10
                                    735 ;/home/javier/Escritorio/gb_development/gbdk/include/gb/gb.h:1877: OAM_item_t * itm = &shadow_OAM[nb];
      000361 21r50r00         [12]  736 	ld	hl, #(_shadow_OAM + 80)
                                    737 ;/home/javier/Escritorio/gb_development/gbdk/include/gb/gb.h:1878: itm->y=y, itm->x=x;
      000364 78               [ 4]  738 	ld	a, b
      000365 22               [ 8]  739 	ld	(hl+), a
      000366 71               [ 8]  740 	ld	(hl), c
                                    741 ;src/director.c:197: finish_frame_with_animation(3)
      000367 C5               [16]  742 	push	bc
      000368 3E 03            [ 8]  743 	ld	a, #0x03
      00036A CDrE4r0D         [24]  744 	call	_finish_frame_with_animation_inner
      00036D 5F               [ 4]  745 	ld	e, a
      00036E C1               [12]  746 	pop	bc
      00036F CB 43            [ 8]  747 	bit	0, e
      000371 C2rC4r0D         [16]  748 	jp	NZ,00349$
                                    749 ;/home/javier/Escritorio/gb_development/gbdk/include/gb/gb.h:1804: shadow_OAM[nb].tile=tile;
      000374 21r52r00         [12]  750 	ld	hl, #(_shadow_OAM + 82)
      000377 36 3C            [12]  751 	ld	(hl), #0x3c
                                    752 ;src/director.c:199: move_sprite(20, bubble_x, bubble_y - 2);
      000379 58               [ 4]  753 	ld	e, b
      00037A 1D               [ 4]  754 	dec	e
      00037B 1D               [ 4]  755 	dec	e
                                    756 ;/home/javier/Escritorio/gb_development/gbdk/include/gb/gb.h:1877: OAM_item_t * itm = &shadow_OAM[nb];
      00037C 21r50r00         [12]  757 	ld	hl, #(_shadow_OAM + 80)
                                    758 ;/home/javier/Escritorio/gb_development/gbdk/include/gb/gb.h:1878: itm->y=y, itm->x=x;
      00037F 7B               [ 4]  759 	ld	a, e
      000380 22               [ 8]  760 	ld	(hl+), a
      000381 71               [ 8]  761 	ld	(hl), c
                                    762 ;src/director.c:200: finish_frame_with_animation(3)
      000382 C5               [16]  763 	push	bc
      000383 3E 03            [ 8]  764 	ld	a, #0x03
      000385 CDrE4r0D         [24]  765 	call	_finish_frame_with_animation_inner
      000388 5F               [ 4]  766 	ld	e, a
      000389 C1               [12]  767 	pop	bc
      00038A CB 43            [ 8]  768 	bit	0, e
      00038C C2rC4r0D         [16]  769 	jp	NZ,00349$
                                    770 ;/home/javier/Escritorio/gb_development/gbdk/include/gb/gb.h:1804: shadow_OAM[nb].tile=tile;
      00038F 21r52r00         [12]  771 	ld	hl, #(_shadow_OAM + 82)
      000392 36 3D            [12]  772 	ld	(hl), #0x3d
                                    773 ;src/director.c:202: move_sprite(20, bubble_x, bubble_y - 4);
      000394 78               [ 4]  774 	ld	a, b
      000395 C6 FC            [ 8]  775 	add	a, #0xfc
                                    776 ;/home/javier/Escritorio/gb_development/gbdk/include/gb/gb.h:1877: OAM_item_t * itm = &shadow_OAM[nb];
                                    777 ;/home/javier/Escritorio/gb_development/gbdk/include/gb/gb.h:1878: itm->y=y, itm->x=x;
      000397 21r50r00         [12]  778 	ld	hl, #(_shadow_OAM + 80)
      00039A 22               [ 8]  779 	ld	(hl+), a
      00039B 71               [ 8]  780 	ld	(hl), c
                                    781 ;src/director.c:203: finish_frame(3)
      00039C 3E 03            [ 8]  782 	ld	a, #0x03
      00039E CDrC7r0D         [24]  783 	call	_finish_frame_inner
      0003A1 CB 47            [ 8]  784 	bit	0,a
      0003A3 C2rC4r0D         [16]  785 	jp	NZ,00349$
                                    786 ;src/director.c:206: bubble_y = player_y - 14;
      0003A6 FAr00r00         [16]  787 	ld	a, (#_player_y)
      0003A9 C6 F2            [ 8]  788 	add	a, #0xf2
      0003AB 4F               [ 4]  789 	ld	c, a
                                    790 ;src/director.c:207: move_metasprite(bubble_key, 0, 20, (uint8_t)SUB_TO_PX(player_x), bubble_y);
      0003AC 21r01r00         [12]  791 	ld	hl, #_player_x + 1
      0003AF 46               [ 8]  792 	ld	b, (hl)
                                    793 ;/home/javier/Escritorio/gb_development/gbdk/include/gb/metasprites.h:160: __current_metasprite = metasprite;
      0003B0 21r00r00         [12]  794 	ld	hl, #___current_metasprite
      0003B3 3Er00            [ 8]  795 	ld	a, #<(_bubble_key)
      0003B5 22               [ 8]  796 	ld	(hl+), a
      0003B6 36s00            [12]  797 	ld	(hl), #>(_bubble_key)
                                    798 ;/home/javier/Escritorio/gb_development/gbdk/include/gb/metasprites.h:161: __current_base_tile = base_tile;
      0003B8 21r00r00         [12]  799 	ld	hl, #___current_base_tile
      0003BB 36 00            [12]  800 	ld	(hl), #0x00
                                    801 ;/home/javier/Escritorio/gb_development/gbdk/include/gb/metasprites.h:162: __current_base_prop = 0;
      0003BD 21r00r00         [12]  802 	ld	hl, #___current_base_prop
      0003C0 36 00            [12]  803 	ld	(hl), #0x00
                                    804 ;/home/javier/Escritorio/gb_development/gbdk/include/gb/metasprites.h:163: return __move_metasprite(base_sprite, (y << 8) | (uint8_t)x);
      0003C2 59               [ 4]  805 	ld	e, c
      0003C3 F8 01            [12]  806 	ldhl	sp,	#1
      0003C5 7B               [ 4]  807 	ld	a, e
      0003C6 32               [ 8]  808 	ld	(hl-), a
      0003C7 36 00            [12]  809 	ld	(hl), #0x00
      0003C9 78               [ 4]  810 	ld	a, b
      0003CA B6               [ 8]  811 	or	a, (hl)
      0003CB 23               [ 8]  812 	inc	hl
      0003CC 5F               [ 4]  813 	ld	e, a
      0003CD 56               [ 8]  814 	ld	d, (hl)
      0003CE C5               [16]  815 	push	bc
      0003CF 3E 14            [ 8]  816 	ld	a, #0x14
      0003D1 CDr00r00         [24]  817 	call	___move_metasprite
      0003D4 3E 04            [ 8]  818 	ld	a, #0x04
      0003D6 CDrC7r0D         [24]  819 	call	_finish_frame_inner
      0003D9 5F               [ 4]  820 	ld	e, a
      0003DA C1               [12]  821 	pop	bc
      0003DB CB 43            [ 8]  822 	bit	0, e
      0003DD C2rC4r0D         [16]  823 	jp	NZ,00349$
                                    824 ;src/director.c:209: move_metasprite(bubble_key, 0, 20, (uint8_t)SUB_TO_PX(player_x), bubble_y - 1);
      0003E0 79               [ 4]  825 	ld	a, c
      0003E1 3D               [ 4]  826 	dec	a
      0003E2 F8 02            [12]  827 	ldhl	sp,	#2
      0003E4 77               [ 8]  828 	ld	(hl), a
      0003E5 5E               [ 8]  829 	ld	e, (hl)
      0003E6 21r01r00         [12]  830 	ld	hl, #_player_x + 1
      0003E9 6E               [ 8]  831 	ld	l, (hl)
                                    832 ;	spillPairReg hl
                                    833 ;	spillPairReg hl
                                    834 ;/home/javier/Escritorio/gb_development/gbdk/include/gb/metasprites.h:160: __current_metasprite = metasprite;
      0003EA 3Er00            [ 8]  835 	ld	a, #<(_bubble_key)
      0003EC EAr00r00         [16]  836 	ld	(___current_metasprite), a
      0003EF 3Es00            [ 8]  837 	ld	a, #>(_bubble_key)
      0003F1 EAr01r00         [16]  838 	ld	(___current_metasprite + 1), a
                                    839 ;/home/javier/Escritorio/gb_development/gbdk/include/gb/metasprites.h:161: __current_base_tile = base_tile;
      0003F4 AF               [ 4]  840 	xor	a, a
      0003F5 EAr00r00         [16]  841 	ld	(___current_base_tile), a
                                    842 ;/home/javier/Escritorio/gb_development/gbdk/include/gb/metasprites.h:162: __current_base_prop = 0;
      0003F8 AF               [ 4]  843 	xor	a, a
      0003F9 EAr00r00         [16]  844 	ld	(___current_base_prop), a
                                    845 ;/home/javier/Escritorio/gb_development/gbdk/include/gb/metasprites.h:163: return __move_metasprite(base_sprite, (y << 8) | (uint8_t)x);
      0003FC 53               [ 4]  846 	ld	d, e
                                    847 ;	spillPairReg hl
                                    848 ;	spillPairReg hl
      0003FD AF               [ 4]  849 	xor	a, a
      0003FE B5               [ 4]  850 	or	a, l
      0003FF 5F               [ 4]  851 	ld	e, a
      000400 C5               [16]  852 	push	bc
      000401 3E 14            [ 8]  853 	ld	a, #0x14
      000403 CDr00r00         [24]  854 	call	___move_metasprite
      000406 3E 04            [ 8]  855 	ld	a, #0x04
      000408 CDrC7r0D         [24]  856 	call	_finish_frame_inner
      00040B 5F               [ 4]  857 	ld	e, a
      00040C C1               [12]  858 	pop	bc
      00040D CB 43            [ 8]  859 	bit	0, e
      00040F C2rC4r0D         [16]  860 	jp	NZ,00349$
                                    861 ;src/director.c:211: move_metasprite(bubble_key, 0, 20, (uint8_t)SUB_TO_PX(player_x), bubble_y - 2);
      000412 79               [ 4]  862 	ld	a, c
      000413 C6 FE            [ 8]  863 	add	a, #0xfe
      000415 F8 03            [12]  864 	ldhl	sp,	#3
      000417 77               [ 8]  865 	ld	(hl), a
      000418 5E               [ 8]  866 	ld	e, (hl)
      000419 21r01r00         [12]  867 	ld	hl, #_player_x + 1
      00041C 6E               [ 8]  868 	ld	l, (hl)
                                    869 ;	spillPairReg hl
                                    870 ;	spillPairReg hl
                                    871 ;/home/javier/Escritorio/gb_development/gbdk/include/gb/metasprites.h:160: __current_metasprite = metasprite;
      00041D 3Er00            [ 8]  872 	ld	a, #<(_bubble_key)
      00041F EAr00r00         [16]  873 	ld	(___current_metasprite), a
      000422 3Es00            [ 8]  874 	ld	a, #>(_bubble_key)
      000424 EAr01r00         [16]  875 	ld	(___current_metasprite + 1), a
                                    876 ;/home/javier/Escritorio/gb_development/gbdk/include/gb/metasprites.h:161: __current_base_tile = base_tile;
      000427 AF               [ 4]  877 	xor	a, a
      000428 EAr00r00         [16]  878 	ld	(___current_base_tile), a
                                    879 ;/home/javier/Escritorio/gb_development/gbdk/include/gb/metasprites.h:162: __current_base_prop = 0;
      00042B AF               [ 4]  880 	xor	a, a
      00042C EAr00r00         [16]  881 	ld	(___current_base_prop), a
                                    882 ;/home/javier/Escritorio/gb_development/gbdk/include/gb/metasprites.h:163: return __move_metasprite(base_sprite, (y << 8) | (uint8_t)x);
      00042F 53               [ 4]  883 	ld	d, e
                                    884 ;	spillPairReg hl
                                    885 ;	spillPairReg hl
      000430 AF               [ 4]  886 	xor	a, a
      000431 B5               [ 4]  887 	or	a, l
      000432 5F               [ 4]  888 	ld	e, a
      000433 C5               [16]  889 	push	bc
      000434 3E 14            [ 8]  890 	ld	a, #0x14
      000436 CDr00r00         [24]  891 	call	___move_metasprite
      000439 3E 04            [ 8]  892 	ld	a, #0x04
      00043B CDrC7r0D         [24]  893 	call	_finish_frame_inner
      00043E 5F               [ 4]  894 	ld	e, a
      00043F C1               [12]  895 	pop	bc
      000440 CB 43            [ 8]  896 	bit	0, e
      000442 C2rC4r0D         [16]  897 	jp	NZ,00349$
                                    898 ;src/director.c:213: move_metasprite(bubble_key, 0, 20, (uint8_t)SUB_TO_PX(player_x), bubble_y - 3);
      000445 79               [ 4]  899 	ld	a, c
      000446 C6 FD            [ 8]  900 	add	a, #0xfd
      000448 F8 04            [12]  901 	ldhl	sp,	#4
      00044A 77               [ 8]  902 	ld	(hl), a
      00044B 5E               [ 8]  903 	ld	e, (hl)
      00044C 21r01r00         [12]  904 	ld	hl, #_player_x + 1
      00044F 4E               [ 8]  905 	ld	c, (hl)
                                    906 ;/home/javier/Escritorio/gb_development/gbdk/include/gb/metasprites.h:160: __current_metasprite = metasprite;
      000450 21r00r00         [12]  907 	ld	hl, #___current_metasprite
      000453 3Er00            [ 8]  908 	ld	a, #<(_bubble_key)
      000455 22               [ 8]  909 	ld	(hl+), a
      000456 36s00            [12]  910 	ld	(hl), #>(_bubble_key)
                                    911 ;/home/javier/Escritorio/gb_development/gbdk/include/gb/metasprites.h:161: __current_base_tile = base_tile;
      000458 21r00r00         [12]  912 	ld	hl, #___current_base_tile
      00045B 36 00            [12]  913 	ld	(hl), #0x00
                                    914 ;/home/javier/Escritorio/gb_development/gbdk/include/gb/metasprites.h:162: __current_base_prop = 0;
      00045D 21r00r00         [12]  915 	ld	hl, #___current_base_prop
      000460 36 00            [12]  916 	ld	(hl), #0x00
                                    917 ;/home/javier/Escritorio/gb_development/gbdk/include/gb/metasprites.h:163: return __move_metasprite(base_sprite, (y << 8) | (uint8_t)x);
      000462 53               [ 4]  918 	ld	d, e
      000463 AF               [ 4]  919 	xor	a, a
      000464 B1               [ 4]  920 	or	a, c
      000465 5F               [ 4]  921 	ld	e, a
      000466 3E 14            [ 8]  922 	ld	a, #0x14
      000468 CDr00r00         [24]  923 	call	___move_metasprite
                                    924 ;src/director.c:214: finish_frame(8)
      00046B 3E 08            [ 8]  925 	ld	a, #0x08
      00046D CDrC7r0D         [24]  926 	call	_finish_frame_inner
      000470 CB 47            [ 8]  927 	bit	0,a
      000472 C2rC4r0D         [16]  928 	jp	NZ,00349$
                                    929 ;src/director.c:215: move_metasprite(bubble_key, 0, 20, (uint8_t)SUB_TO_PX(player_x), player_y -16);
      000475 FAr00r00         [16]  930 	ld	a, (#_player_y)
      000478 C6 F0            [ 8]  931 	add	a, #0xf0
      00047A 21r01r00         [12]  932 	ld	hl, #_player_x + 1
      00047D 4E               [ 8]  933 	ld	c, (hl)
                                    934 ;/home/javier/Escritorio/gb_development/gbdk/include/gb/metasprites.h:160: __current_metasprite = metasprite;
      00047E 21r00r00         [12]  935 	ld	hl, #___current_metasprite
      000481 36r00            [12]  936 	ld	(hl), #<(_bubble_key)
      000483 23               [ 8]  937 	inc	hl
      000484 36s00            [12]  938 	ld	(hl), #>(_bubble_key)
                                    939 ;/home/javier/Escritorio/gb_development/gbdk/include/gb/metasprites.h:161: __current_base_tile = base_tile;
      000486 21r00r00         [12]  940 	ld	hl, #___current_base_tile
      000489 36 00            [12]  941 	ld	(hl), #0x00
                                    942 ;/home/javier/Escritorio/gb_development/gbdk/include/gb/metasprites.h:162: __current_base_prop = 0;
      00048B 21r00r00         [12]  943 	ld	hl, #___current_base_prop
      00048E 36 00            [12]  944 	ld	(hl), #0x00
                                    945 ;/home/javier/Escritorio/gb_development/gbdk/include/gb/metasprites.h:163: return __move_metasprite(base_sprite, (y << 8) | (uint8_t)x);
      000490 57               [ 4]  946 	ld	d, a
      000491 AF               [ 4]  947 	xor	a, a
      000492 B1               [ 4]  948 	or	a, c
      000493 5F               [ 4]  949 	ld	e, a
      000494 3E 14            [ 8]  950 	ld	a, #0x14
      000496 CDr00r00         [24]  951 	call	___move_metasprite
                                    952 ;src/director.c:216: finish_frame(90)
      000499 3E 5A            [ 8]  953 	ld	a, #0x5a
      00049B CDrC7r0D         [24]  954 	call	_finish_frame_inner
      00049E CB 47            [ 8]  955 	bit	0,a
      0004A0 C2rC4r0D         [16]  956 	jp	NZ,00349$
                                    957 ;src/director.c:218: move_metasprite(bubble_empty, 0, 20, (uint8_t)SUB_TO_PX(player_x), player_y -16);
      0004A3 FAr00r00         [16]  958 	ld	a, (#_player_y)
      0004A6 C6 F0            [ 8]  959 	add	a, #0xf0
      0004A8 4F               [ 4]  960 	ld	c, a
      0004A9 21r01r00         [12]  961 	ld	hl, #_player_x + 1
      0004AC 5E               [ 8]  962 	ld	e, (hl)
                                    963 ;/home/javier/Escritorio/gb_development/gbdk/include/gb/metasprites.h:160: __current_metasprite = metasprite;
      0004AD 21r00r00         [12]  964 	ld	hl, #___current_metasprite
      0004B0 3Er00            [ 8]  965 	ld	a, #<(_bubble_empty)
      0004B2 22               [ 8]  966 	ld	(hl+), a
      0004B3 36s00            [12]  967 	ld	(hl), #>(_bubble_empty)
                                    968 ;/home/javier/Escritorio/gb_development/gbdk/include/gb/metasprites.h:161: __current_base_tile = base_tile;
      0004B5 21r00r00         [12]  969 	ld	hl, #___current_base_tile
      0004B8 36 00            [12]  970 	ld	(hl), #0x00
                                    971 ;/home/javier/Escritorio/gb_development/gbdk/include/gb/metasprites.h:162: __current_base_prop = 0;
      0004BA 21r00r00         [12]  972 	ld	hl, #___current_base_prop
      0004BD 36 00            [12]  973 	ld	(hl), #0x00
                                    974 ;/home/javier/Escritorio/gb_development/gbdk/include/gb/metasprites.h:163: return __move_metasprite(base_sprite, (y << 8) | (uint8_t)x);
      0004BF AF               [ 4]  975 	xor	a, a
      0004C0 B3               [ 4]  976 	or	a, e
      0004C1 5F               [ 4]  977 	ld	e, a
      0004C2 51               [ 4]  978 	ld	d, c
      0004C3 3E 14            [ 8]  979 	ld	a, #0x14
      0004C5 CDr00r00         [24]  980 	call	___move_metasprite
                                    981 ;src/director.c:219: finish_frame(15)
      0004C8 3E 0F            [ 8]  982 	ld	a, #0x0f
      0004CA CDrC7r0D         [24]  983 	call	_finish_frame_inner
      0004CD CB 47            [ 8]  984 	bit	0,a
      0004CF C2rC4r0D         [16]  985 	jp	NZ,00349$
                                    986 ;src/director.c:220: move_metasprite(bubble_key, 0, 20, (uint8_t)SUB_TO_PX(player_x), player_y -16);
      0004D2 FAr00r00         [16]  987 	ld	a, (#_player_y)
      0004D5 C6 F0            [ 8]  988 	add	a, #0xf0
      0004D7 21r01r00         [12]  989 	ld	hl, #_player_x + 1
      0004DA 5E               [ 8]  990 	ld	e, (hl)
                                    991 ;/home/javier/Escritorio/gb_development/gbdk/include/gb/metasprites.h:160: __current_metasprite = metasprite;
      0004DB 21r00r00         [12]  992 	ld	hl, #___current_metasprite
      0004DE 36r00            [12]  993 	ld	(hl), #<(_bubble_key)
      0004E0 23               [ 8]  994 	inc	hl
      0004E1 36s00            [12]  995 	ld	(hl), #>(_bubble_key)
                                    996 ;/home/javier/Escritorio/gb_development/gbdk/include/gb/metasprites.h:161: __current_base_tile = base_tile;
      0004E3 21r00r00         [12]  997 	ld	hl, #___current_base_tile
      0004E6 36 00            [12]  998 	ld	(hl), #0x00
                                    999 ;/home/javier/Escritorio/gb_development/gbdk/include/gb/metasprites.h:162: __current_base_prop = 0;
      0004E8 21r00r00         [12] 1000 	ld	hl, #___current_base_prop
      0004EB 36 00            [12] 1001 	ld	(hl), #0x00
                                   1002 ;/home/javier/Escritorio/gb_development/gbdk/include/gb/metasprites.h:163: return __move_metasprite(base_sprite, (y << 8) | (uint8_t)x);
      0004ED 4F               [ 4] 1003 	ld	c, a
      0004EE AF               [ 4] 1004 	xor	a, a
      0004EF B3               [ 4] 1005 	or	a, e
      0004F0 5F               [ 4] 1006 	ld	e, a
      0004F1 51               [ 4] 1007 	ld	d, c
      0004F2 3E 14            [ 8] 1008 	ld	a, #0x14
      0004F4 CDr00r00         [24] 1009 	call	___move_metasprite
                                   1010 ;src/director.c:221: finish_frame(15)
      0004F7 3E 0F            [ 8] 1011 	ld	a, #0x0f
      0004F9 CDrC7r0D         [24] 1012 	call	_finish_frame_inner
      0004FC CB 47            [ 8] 1013 	bit	0,a
      0004FE C2rC4r0D         [16] 1014 	jp	NZ,00349$
                                   1015 ;src/director.c:222: move_metasprite(bubble_empty, 0, 20, (uint8_t)SUB_TO_PX(player_x), player_y -16);
      000501 FAr00r00         [16] 1016 	ld	a, (#_player_y)
      000504 C6 F0            [ 8] 1017 	add	a, #0xf0
      000506 21r01r00         [12] 1018 	ld	hl, #_player_x + 1
      000509 5E               [ 8] 1019 	ld	e, (hl)
                                   1020 ;/home/javier/Escritorio/gb_development/gbdk/include/gb/metasprites.h:160: __current_metasprite = metasprite;
      00050A 21r00r00         [12] 1021 	ld	hl, #___current_metasprite
      00050D 36r00            [12] 1022 	ld	(hl), #<(_bubble_empty)
      00050F 23               [ 8] 1023 	inc	hl
      000510 36s00            [12] 1024 	ld	(hl), #>(_bubble_empty)
                                   1025 ;/home/javier/Escritorio/gb_development/gbdk/include/gb/metasprites.h:161: __current_base_tile = base_tile;
      000512 21r00r00         [12] 1026 	ld	hl, #___current_base_tile
      000515 36 00            [12] 1027 	ld	(hl), #0x00
                                   1028 ;/home/javier/Escritorio/gb_development/gbdk/include/gb/metasprites.h:162: __current_base_prop = 0;
      000517 21r00r00         [12] 1029 	ld	hl, #___current_base_prop
      00051A 36 00            [12] 1030 	ld	(hl), #0x00
                                   1031 ;/home/javier/Escritorio/gb_development/gbdk/include/gb/metasprites.h:163: return __move_metasprite(base_sprite, (y << 8) | (uint8_t)x);
      00051C 4F               [ 4] 1032 	ld	c, a
      00051D AF               [ 4] 1033 	xor	a, a
      00051E B3               [ 4] 1034 	or	a, e
      00051F 5F               [ 4] 1035 	ld	e, a
      000520 51               [ 4] 1036 	ld	d, c
      000521 3E 14            [ 8] 1037 	ld	a, #0x14
      000523 CDr00r00         [24] 1038 	call	___move_metasprite
                                   1039 ;src/director.c:223: finish_frame(15)
      000526 3E 0F            [ 8] 1040 	ld	a, #0x0f
      000528 CDrC7r0D         [24] 1041 	call	_finish_frame_inner
      00052B CB 47            [ 8] 1042 	bit	0,a
      00052D C2rC4r0D         [16] 1043 	jp	NZ,00349$
                                   1044 ;src/director.c:224: move_metasprite(bubble_key, 0, 20, (uint8_t)SUB_TO_PX(player_x), player_y -16);
      000530 FAr00r00         [16] 1045 	ld	a, (#_player_y)
      000533 C6 F0            [ 8] 1046 	add	a, #0xf0
      000535 21r01r00         [12] 1047 	ld	hl, #_player_x + 1
      000538 5E               [ 8] 1048 	ld	e, (hl)
                                   1049 ;/home/javier/Escritorio/gb_development/gbdk/include/gb/metasprites.h:160: __current_metasprite = metasprite;
      000539 21r00r00         [12] 1050 	ld	hl, #___current_metasprite
      00053C 36r00            [12] 1051 	ld	(hl), #<(_bubble_key)
      00053E 23               [ 8] 1052 	inc	hl
      00053F 36s00            [12] 1053 	ld	(hl), #>(_bubble_key)
                                   1054 ;/home/javier/Escritorio/gb_development/gbdk/include/gb/metasprites.h:161: __current_base_tile = base_tile;
      000541 21r00r00         [12] 1055 	ld	hl, #___current_base_tile
      000544 36 00            [12] 1056 	ld	(hl), #0x00
                                   1057 ;/home/javier/Escritorio/gb_development/gbdk/include/gb/metasprites.h:162: __current_base_prop = 0;
      000546 21r00r00         [12] 1058 	ld	hl, #___current_base_prop
      000549 36 00            [12] 1059 	ld	(hl), #0x00
                                   1060 ;/home/javier/Escritorio/gb_development/gbdk/include/gb/metasprites.h:163: return __move_metasprite(base_sprite, (y << 8) | (uint8_t)x);
      00054B 4F               [ 4] 1061 	ld	c, a
      00054C AF               [ 4] 1062 	xor	a, a
      00054D B3               [ 4] 1063 	or	a, e
      00054E 5F               [ 4] 1064 	ld	e, a
      00054F 51               [ 4] 1065 	ld	d, c
      000550 3E 14            [ 8] 1066 	ld	a, #0x14
      000552 CDr00r00         [24] 1067 	call	___move_metasprite
                                   1068 ;src/director.c:225: finish_frame(15)
      000555 3E 0F            [ 8] 1069 	ld	a, #0x0f
      000557 CDrC7r0D         [24] 1070 	call	_finish_frame_inner
      00055A CB 47            [ 8] 1071 	bit	0,a
      00055C C2rC4r0D         [16] 1072 	jp	NZ,00349$
                                   1073 ;src/director.c:226: move_metasprite(bubble_empty, 0, 20, (uint8_t)SUB_TO_PX(player_x), player_y -16);
      00055F FAr00r00         [16] 1074 	ld	a, (#_player_y)
      000562 C6 F0            [ 8] 1075 	add	a, #0xf0
      000564 21r01r00         [12] 1076 	ld	hl, #_player_x + 1
      000567 5E               [ 8] 1077 	ld	e, (hl)
                                   1078 ;/home/javier/Escritorio/gb_development/gbdk/include/gb/metasprites.h:160: __current_metasprite = metasprite;
      000568 21r00r00         [12] 1079 	ld	hl, #___current_metasprite
      00056B 36r00            [12] 1080 	ld	(hl), #<(_bubble_empty)
      00056D 23               [ 8] 1081 	inc	hl
      00056E 36s00            [12] 1082 	ld	(hl), #>(_bubble_empty)
                                   1083 ;/home/javier/Escritorio/gb_development/gbdk/include/gb/metasprites.h:161: __current_base_tile = base_tile;
      000570 21r00r00         [12] 1084 	ld	hl, #___current_base_tile
      000573 36 00            [12] 1085 	ld	(hl), #0x00
                                   1086 ;/home/javier/Escritorio/gb_development/gbdk/include/gb/metasprites.h:162: __current_base_prop = 0;
      000575 21r00r00         [12] 1087 	ld	hl, #___current_base_prop
      000578 36 00            [12] 1088 	ld	(hl), #0x00
                                   1089 ;/home/javier/Escritorio/gb_development/gbdk/include/gb/metasprites.h:163: return __move_metasprite(base_sprite, (y << 8) | (uint8_t)x);
      00057A 4F               [ 4] 1090 	ld	c, a
      00057B AF               [ 4] 1091 	xor	a, a
      00057C B3               [ 4] 1092 	or	a, e
      00057D 5F               [ 4] 1093 	ld	e, a
      00057E 51               [ 4] 1094 	ld	d, c
      00057F 3E 14            [ 8] 1095 	ld	a, #0x14
      000581 CDr00r00         [24] 1096 	call	___move_metasprite
                                   1097 ;src/director.c:227: finish_frame(20)
      000584 3E 14            [ 8] 1098 	ld	a, #0x14
      000586 CDrC7r0D         [24] 1099 	call	_finish_frame_inner
      000589 CB 47            [ 8] 1100 	bit	0,a
      00058B C2rC4r0D         [16] 1101 	jp	NZ,00349$
                                   1102 ;src/director.c:228: move_metasprite(bubble_key, 0, 20, (uint8_t)SUB_TO_PX(player_x), player_y -16);
      00058E FAr00r00         [16] 1103 	ld	a, (#_player_y)
      000591 C6 F0            [ 8] 1104 	add	a, #0xf0
      000593 21r01r00         [12] 1105 	ld	hl, #_player_x + 1
      000596 5E               [ 8] 1106 	ld	e, (hl)
                                   1107 ;/home/javier/Escritorio/gb_development/gbdk/include/gb/metasprites.h:160: __current_metasprite = metasprite;
      000597 21r00r00         [12] 1108 	ld	hl, #___current_metasprite
      00059A 36r00            [12] 1109 	ld	(hl), #<(_bubble_key)
      00059C 23               [ 8] 1110 	inc	hl
      00059D 36s00            [12] 1111 	ld	(hl), #>(_bubble_key)
                                   1112 ;/home/javier/Escritorio/gb_development/gbdk/include/gb/metasprites.h:161: __current_base_tile = base_tile;
      00059F 21r00r00         [12] 1113 	ld	hl, #___current_base_tile
      0005A2 36 00            [12] 1114 	ld	(hl), #0x00
                                   1115 ;/home/javier/Escritorio/gb_development/gbdk/include/gb/metasprites.h:162: __current_base_prop = 0;
      0005A4 21r00r00         [12] 1116 	ld	hl, #___current_base_prop
      0005A7 36 00            [12] 1117 	ld	(hl), #0x00
                                   1118 ;/home/javier/Escritorio/gb_development/gbdk/include/gb/metasprites.h:163: return __move_metasprite(base_sprite, (y << 8) | (uint8_t)x);
      0005A9 4F               [ 4] 1119 	ld	c, a
      0005AA AF               [ 4] 1120 	xor	a, a
      0005AB B3               [ 4] 1121 	or	a, e
      0005AC 5F               [ 4] 1122 	ld	e, a
      0005AD 51               [ 4] 1123 	ld	d, c
      0005AE 3E 14            [ 8] 1124 	ld	a, #0x14
      0005B0 CDr00r00         [24] 1125 	call	___move_metasprite
                                   1126 ;src/director.c:229: finish_frame(30)
      0005B3 3E 1E            [ 8] 1127 	ld	a, #0x1e
      0005B5 CDrC7r0D         [24] 1128 	call	_finish_frame_inner
      0005B8 CB 47            [ 8] 1129 	bit	0,a
      0005BA C2rC4r0D         [16] 1130 	jp	NZ,00349$
                                   1131 ;src/director.c:230: move_metasprite(bubble_empty, 0, 20, (uint8_t)SUB_TO_PX(player_x), player_y -16);
      0005BD FAr00r00         [16] 1132 	ld	a, (#_player_y)
      0005C0 C6 F0            [ 8] 1133 	add	a, #0xf0
      0005C2 21r01r00         [12] 1134 	ld	hl, #_player_x + 1
      0005C5 5E               [ 8] 1135 	ld	e, (hl)
                                   1136 ;/home/javier/Escritorio/gb_development/gbdk/include/gb/metasprites.h:160: __current_metasprite = metasprite;
      0005C6 21r00r00         [12] 1137 	ld	hl, #___current_metasprite
      0005C9 36r00            [12] 1138 	ld	(hl), #<(_bubble_empty)
      0005CB 23               [ 8] 1139 	inc	hl
      0005CC 36s00            [12] 1140 	ld	(hl), #>(_bubble_empty)
                                   1141 ;/home/javier/Escritorio/gb_development/gbdk/include/gb/metasprites.h:161: __current_base_tile = base_tile;
      0005CE 21r00r00         [12] 1142 	ld	hl, #___current_base_tile
      0005D1 36 00            [12] 1143 	ld	(hl), #0x00
                                   1144 ;/home/javier/Escritorio/gb_development/gbdk/include/gb/metasprites.h:162: __current_base_prop = 0;
      0005D3 21r00r00         [12] 1145 	ld	hl, #___current_base_prop
      0005D6 36 00            [12] 1146 	ld	(hl), #0x00
                                   1147 ;/home/javier/Escritorio/gb_development/gbdk/include/gb/metasprites.h:163: return __move_metasprite(base_sprite, (y << 8) | (uint8_t)x);
      0005D8 4F               [ 4] 1148 	ld	c, a
      0005D9 AF               [ 4] 1149 	xor	a, a
      0005DA B3               [ 4] 1150 	or	a, e
      0005DB 5F               [ 4] 1151 	ld	e, a
      0005DC 51               [ 4] 1152 	ld	d, c
      0005DD 3E 14            [ 8] 1153 	ld	a, #0x14
      0005DF CDr00r00         [24] 1154 	call	___move_metasprite
                                   1155 ;src/director.c:232: finish_frame(120)
      0005E2 3E 78            [ 8] 1156 	ld	a, #0x78
      0005E4 CDrC7r0D         [24] 1157 	call	_finish_frame_inner
      0005E7 CB 47            [ 8] 1158 	bit	0,a
      0005E9 C2rC4r0D         [16] 1159 	jp	NZ,00349$
                                   1160 ;src/director.c:234: hide_metasprite(bubble_empty, 20);
                                   1161 ;/home/javier/Escritorio/gb_development/gbdk/include/gb/metasprites.h:297: __current_metasprite = metasprite;
      0005EC 21r00r00         [12] 1162 	ld	hl, #___current_metasprite
      0005EF 3Er00            [ 8] 1163 	ld	a, #<(_bubble_empty)
      0005F1 22               [ 8] 1164 	ld	(hl+), a
      0005F2 36s00            [12] 1165 	ld	(hl), #>(_bubble_empty)
                                   1166 ;/home/javier/Escritorio/gb_development/gbdk/include/gb/metasprites.h:298: __hide_metasprite(base_sprite);
      0005F4 3E 14            [ 8] 1167 	ld	a, #0x14
      0005F6 CDr00r00         [24] 1168 	call	___hide_metasprite
                                   1169 ;src/director.c:235: finish_frame(30)
      0005F9 3E 1E            [ 8] 1170 	ld	a, #0x1e
      0005FB CDrC7r0D         [24] 1171 	call	_finish_frame_inner
      0005FE CB 47            [ 8] 1172 	bit	0,a
      000600 C2rC4r0D         [16] 1173 	jp	NZ,00349$
                                   1174 ;src/director.c:237: move_metasprite(bubble_qmark, 0, 20, (uint8_t)SUB_TO_PX(player_x), bubble_y);
      000603 21r01r00         [12] 1175 	ld	hl, #_player_x + 1
      000606 4E               [ 8] 1176 	ld	c, (hl)
                                   1177 ;/home/javier/Escritorio/gb_development/gbdk/include/gb/metasprites.h:160: __current_metasprite = metasprite;
      000607 21r00r00         [12] 1178 	ld	hl, #___current_metasprite
      00060A 36r00            [12] 1179 	ld	(hl), #<(_bubble_qmark)
      00060C 23               [ 8] 1180 	inc	hl
      00060D 36s00            [12] 1181 	ld	(hl), #>(_bubble_qmark)
                                   1182 ;/home/javier/Escritorio/gb_development/gbdk/include/gb/metasprites.h:161: __current_base_tile = base_tile;
      00060F 21r00r00         [12] 1183 	ld	hl, #___current_base_tile
      000612 36 00            [12] 1184 	ld	(hl), #0x00
                                   1185 ;/home/javier/Escritorio/gb_development/gbdk/include/gb/metasprites.h:162: __current_base_prop = 0;
      000614 21r00r00         [12] 1186 	ld	hl, #___current_base_prop
      000617 36 00            [12] 1187 	ld	(hl), #0x00
                                   1188 ;/home/javier/Escritorio/gb_development/gbdk/include/gb/metasprites.h:163: return __move_metasprite(base_sprite, (y << 8) | (uint8_t)x);
      000619 F8 00            [12] 1189 	ldhl	sp,	#0
      00061B 2A               [ 8] 1190 	ld	a, (hl+)
      00061C B1               [ 4] 1191 	or	a, c
      00061D 56               [ 8] 1192 	ld	d, (hl)
      00061E 5F               [ 4] 1193 	ld	e, a
      00061F 3E 14            [ 8] 1194 	ld	a, #0x14
      000621 CDr00r00         [24] 1195 	call	___move_metasprite
                                   1196 ;src/director.c:238: finish_frame(4)
      000624 3E 04            [ 8] 1197 	ld	a, #0x04
      000626 CDrC7r0D         [24] 1198 	call	_finish_frame_inner
      000629 CB 47            [ 8] 1199 	bit	0,a
      00062B C2rC4r0D         [16] 1200 	jp	NZ,00349$
                                   1201 ;src/director.c:239: move_metasprite(bubble_qmark, 0, 20, (uint8_t)SUB_TO_PX(player_x), bubble_y - 1);
      00062E 21r01r00         [12] 1202 	ld	hl, #_player_x + 1
      000631 5E               [ 8] 1203 	ld	e, (hl)
      000632 F8 02            [12] 1204 	ldhl	sp,	#2
      000634 4E               [ 8] 1205 	ld	c, (hl)
                                   1206 ;/home/javier/Escritorio/gb_development/gbdk/include/gb/metasprites.h:160: __current_metasprite = metasprite;
      000635 21r00r00         [12] 1207 	ld	hl, #___current_metasprite
      000638 36r00            [12] 1208 	ld	(hl), #<(_bubble_qmark)
      00063A 23               [ 8] 1209 	inc	hl
      00063B 36s00            [12] 1210 	ld	(hl), #>(_bubble_qmark)
                                   1211 ;/home/javier/Escritorio/gb_development/gbdk/include/gb/metasprites.h:161: __current_base_tile = base_tile;
      00063D 21r00r00         [12] 1212 	ld	hl, #___current_base_tile
      000640 36 00            [12] 1213 	ld	(hl), #0x00
                                   1214 ;/home/javier/Escritorio/gb_development/gbdk/include/gb/metasprites.h:162: __current_base_prop = 0;
      000642 21r00r00         [12] 1215 	ld	hl, #___current_base_prop
      000645 36 00            [12] 1216 	ld	(hl), #0x00
                                   1217 ;/home/javier/Escritorio/gb_development/gbdk/include/gb/metasprites.h:163: return __move_metasprite(base_sprite, (y << 8) | (uint8_t)x);
      000647 AF               [ 4] 1218 	xor	a, a
      000648 B3               [ 4] 1219 	or	a, e
      000649 5F               [ 4] 1220 	ld	e, a
      00064A 51               [ 4] 1221 	ld	d, c
      00064B 3E 14            [ 8] 1222 	ld	a, #0x14
      00064D CDr00r00         [24] 1223 	call	___move_metasprite
                                   1224 ;src/director.c:240: finish_frame(4)
      000650 3E 04            [ 8] 1225 	ld	a, #0x04
      000652 CDrC7r0D         [24] 1226 	call	_finish_frame_inner
      000655 CB 47            [ 8] 1227 	bit	0,a
      000657 C2rC4r0D         [16] 1228 	jp	NZ,00349$
                                   1229 ;src/director.c:241: move_metasprite(bubble_qmark, 0, 20, (uint8_t)SUB_TO_PX(player_x), bubble_y - 2);
      00065A 21r01r00         [12] 1230 	ld	hl, #_player_x + 1
      00065D 5E               [ 8] 1231 	ld	e, (hl)
      00065E F8 03            [12] 1232 	ldhl	sp,	#3
      000660 4E               [ 8] 1233 	ld	c, (hl)
                                   1234 ;/home/javier/Escritorio/gb_development/gbdk/include/gb/metasprites.h:160: __current_metasprite = metasprite;
      000661 21r00r00         [12] 1235 	ld	hl, #___current_metasprite
      000664 36r00            [12] 1236 	ld	(hl), #<(_bubble_qmark)
      000666 23               [ 8] 1237 	inc	hl
      000667 36s00            [12] 1238 	ld	(hl), #>(_bubble_qmark)
                                   1239 ;/home/javier/Escritorio/gb_development/gbdk/include/gb/metasprites.h:161: __current_base_tile = base_tile;
      000669 21r00r00         [12] 1240 	ld	hl, #___current_base_tile
      00066C 36 00            [12] 1241 	ld	(hl), #0x00
                                   1242 ;/home/javier/Escritorio/gb_development/gbdk/include/gb/metasprites.h:162: __current_base_prop = 0;
      00066E 21r00r00         [12] 1243 	ld	hl, #___current_base_prop
      000671 36 00            [12] 1244 	ld	(hl), #0x00
                                   1245 ;/home/javier/Escritorio/gb_development/gbdk/include/gb/metasprites.h:163: return __move_metasprite(base_sprite, (y << 8) | (uint8_t)x);
      000673 AF               [ 4] 1246 	xor	a, a
      000674 B3               [ 4] 1247 	or	a, e
      000675 5F               [ 4] 1248 	ld	e, a
      000676 51               [ 4] 1249 	ld	d, c
      000677 3E 14            [ 8] 1250 	ld	a, #0x14
      000679 CDr00r00         [24] 1251 	call	___move_metasprite
                                   1252 ;src/director.c:242: finish_frame(4)
      00067C 3E 04            [ 8] 1253 	ld	a, #0x04
      00067E CDrC7r0D         [24] 1254 	call	_finish_frame_inner
      000681 CB 47            [ 8] 1255 	bit	0,a
      000683 C2rC4r0D         [16] 1256 	jp	NZ,00349$
                                   1257 ;src/director.c:243: move_metasprite(bubble_qmark, 0, 20, (uint8_t)SUB_TO_PX(player_x), bubble_y - 3);
      000686 21r01r00         [12] 1258 	ld	hl, #_player_x + 1
      000689 5E               [ 8] 1259 	ld	e, (hl)
      00068A F8 04            [12] 1260 	ldhl	sp,	#4
      00068C 4E               [ 8] 1261 	ld	c, (hl)
                                   1262 ;/home/javier/Escritorio/gb_development/gbdk/include/gb/metasprites.h:160: __current_metasprite = metasprite;
      00068D 21r00r00         [12] 1263 	ld	hl, #___current_metasprite
      000690 36r00            [12] 1264 	ld	(hl), #<(_bubble_qmark)
      000692 23               [ 8] 1265 	inc	hl
      000693 36s00            [12] 1266 	ld	(hl), #>(_bubble_qmark)
                                   1267 ;/home/javier/Escritorio/gb_development/gbdk/include/gb/metasprites.h:161: __current_base_tile = base_tile;
      000695 21r00r00         [12] 1268 	ld	hl, #___current_base_tile
      000698 36 00            [12] 1269 	ld	(hl), #0x00
                                   1270 ;/home/javier/Escritorio/gb_development/gbdk/include/gb/metasprites.h:162: __current_base_prop = 0;
      00069A 21r00r00         [12] 1271 	ld	hl, #___current_base_prop
      00069D 36 00            [12] 1272 	ld	(hl), #0x00
                                   1273 ;/home/javier/Escritorio/gb_development/gbdk/include/gb/metasprites.h:163: return __move_metasprite(base_sprite, (y << 8) | (uint8_t)x);
      00069F AF               [ 4] 1274 	xor	a, a
      0006A0 B3               [ 4] 1275 	or	a, e
      0006A1 5F               [ 4] 1276 	ld	e, a
      0006A2 51               [ 4] 1277 	ld	d, c
      0006A3 3E 14            [ 8] 1278 	ld	a, #0x14
      0006A5 CDr00r00         [24] 1279 	call	___move_metasprite
                                   1280 ;src/director.c:244: finish_frame(8)
      0006A8 3E 08            [ 8] 1281 	ld	a, #0x08
      0006AA CDrC7r0D         [24] 1282 	call	_finish_frame_inner
      0006AD CB 47            [ 8] 1283 	bit	0,a
      0006AF C2rC4r0D         [16] 1284 	jp	NZ,00349$
                                   1285 ;src/director.c:245: move_metasprite(bubble_qmark, 0, 20, (uint8_t)SUB_TO_PX(player_x), player_y -16);
      0006B2 FAr00r00         [16] 1286 	ld	a, (#_player_y)
      0006B5 C6 F0            [ 8] 1287 	add	a, #0xf0
      0006B7 21r01r00         [12] 1288 	ld	hl, #_player_x + 1
      0006BA 5E               [ 8] 1289 	ld	e, (hl)
                                   1290 ;/home/javier/Escritorio/gb_development/gbdk/include/gb/metasprites.h:160: __current_metasprite = metasprite;
      0006BB 21r00r00         [12] 1291 	ld	hl, #___current_metasprite
      0006BE 36r00            [12] 1292 	ld	(hl), #<(_bubble_qmark)
      0006C0 23               [ 8] 1293 	inc	hl
      0006C1 36s00            [12] 1294 	ld	(hl), #>(_bubble_qmark)
                                   1295 ;/home/javier/Escritorio/gb_development/gbdk/include/gb/metasprites.h:161: __current_base_tile = base_tile;
      0006C3 21r00r00         [12] 1296 	ld	hl, #___current_base_tile
      0006C6 36 00            [12] 1297 	ld	(hl), #0x00
                                   1298 ;/home/javier/Escritorio/gb_development/gbdk/include/gb/metasprites.h:162: __current_base_prop = 0;
      0006C8 21r00r00         [12] 1299 	ld	hl, #___current_base_prop
      0006CB 36 00            [12] 1300 	ld	(hl), #0x00
                                   1301 ;/home/javier/Escritorio/gb_development/gbdk/include/gb/metasprites.h:163: return __move_metasprite(base_sprite, (y << 8) | (uint8_t)x);
      0006CD 4F               [ 4] 1302 	ld	c, a
      0006CE AF               [ 4] 1303 	xor	a, a
      0006CF B3               [ 4] 1304 	or	a, e
      0006D0 5F               [ 4] 1305 	ld	e, a
      0006D1 51               [ 4] 1306 	ld	d, c
      0006D2 3E 14            [ 8] 1307 	ld	a, #0x14
      0006D4 CDr00r00         [24] 1308 	call	___move_metasprite
                                   1309 ;src/director.c:246: finish_frame(120)
      0006D7 3E 78            [ 8] 1310 	ld	a, #0x78
      0006D9 CDrC7r0D         [24] 1311 	call	_finish_frame_inner
      0006DC CB 47            [ 8] 1312 	bit	0,a
      0006DE C2rC4r0D         [16] 1313 	jp	NZ,00349$
                                   1314 ;src/director.c:249: screen_shake(10, idle_metasprites[0]);
      0006E1 21r00r00         [12] 1315 	ld	hl, #_idle_metasprites
      0006E4 2A               [ 8] 1316 	ld	a, (hl+)
      0006E5 4F               [ 4] 1317 	ld	c, a
      0006E6 46               [ 8] 1318 	ld	b, (hl)
      0006E7 59               [ 4] 1319 	ld	e, c
      0006E8 50               [ 4] 1320 	ld	d, b
      0006E9 3E 0A            [ 8] 1321 	ld	a, #0x0a
      0006EB CDr09r0E         [24] 1322 	call	_screen_shake
                                   1323 ;src/director.c:250: hide_metasprite(bubble_qmark, 20);
                                   1324 ;/home/javier/Escritorio/gb_development/gbdk/include/gb/metasprites.h:297: __current_metasprite = metasprite;
      0006EE 21r00r00         [12] 1325 	ld	hl, #___current_metasprite
      0006F1 36r00            [12] 1326 	ld	(hl), #<(_bubble_qmark)
      0006F3 23               [ 8] 1327 	inc	hl
      0006F4 36s00            [12] 1328 	ld	(hl), #>(_bubble_qmark)
                                   1329 ;/home/javier/Escritorio/gb_development/gbdk/include/gb/metasprites.h:298: __hide_metasprite(base_sprite);
      0006F6 3E 14            [ 8] 1330 	ld	a, #0x14
      0006F8 CDr00r00         [24] 1331 	call	___hide_metasprite
                                   1332 ;src/director.c:252: for (i=0; i<6; i++){
      0006FB 21r00r00         [12] 1333 	ld	hl, #_i
      0006FE 36 00            [12] 1334 	ld	(hl), #0x00
      000700                       1335 00322$:
                                   1336 ;src/director.c:253: move_metasprite(key_left_0, TILE_NUM_START, SPR_NUM_START, (uint8_t)SUB_TO_PX(player_x), player_y);
      000700 21r00r00         [12] 1337 	ld	hl, #_player_y
      000703 5E               [ 8] 1338 	ld	e, (hl)
      000704 21r01r00         [12] 1339 	ld	hl, #_player_x + 1
      000707 4E               [ 8] 1340 	ld	c, (hl)
                                   1341 ;/home/javier/Escritorio/gb_development/gbdk/include/gb/metasprites.h:160: __current_metasprite = metasprite;
      000708 21r00r00         [12] 1342 	ld	hl, #___current_metasprite
      00070B 3Er00            [ 8] 1343 	ld	a, #<(_key_left_0)
      00070D 22               [ 8] 1344 	ld	(hl+), a
      00070E 36s00            [12] 1345 	ld	(hl), #>(_key_left_0)
                                   1346 ;/home/javier/Escritorio/gb_development/gbdk/include/gb/metasprites.h:161: __current_base_tile = base_tile;
      000710 21r00r00         [12] 1347 	ld	hl, #___current_base_tile
      000713 36 00            [12] 1348 	ld	(hl), #0x00
                                   1349 ;/home/javier/Escritorio/gb_development/gbdk/include/gb/metasprites.h:162: __current_base_prop = 0;
      000715 21r00r00         [12] 1350 	ld	hl, #___current_base_prop
      000718 36 00            [12] 1351 	ld	(hl), #0x00
                                   1352 ;/home/javier/Escritorio/gb_development/gbdk/include/gb/metasprites.h:163: return __move_metasprite(base_sprite, (y << 8) | (uint8_t)x);
      00071A 53               [ 4] 1353 	ld	d, e
      00071B AF               [ 4] 1354 	xor	a, a
      00071C B1               [ 4] 1355 	or	a, c
      00071D 5F               [ 4] 1356 	ld	e, a
      00071E AF               [ 4] 1357 	xor	a, a
      00071F CDr00r00         [24] 1358 	call	___move_metasprite
                                   1359 ;src/director.c:254: finish_frame(4)
      000722 3E 04            [ 8] 1360 	ld	a, #0x04
      000724 CDrC7r0D         [24] 1361 	call	_finish_frame_inner
      000727 CB 47            [ 8] 1362 	bit	0,a
      000729 C2rC4r0D         [16] 1363 	jp	NZ,00349$
                                   1364 ;src/director.c:255: move_metasprite(key_left_1, TILE_NUM_START, SPR_NUM_START, (uint8_t)SUB_TO_PX(player_x), player_y);
      00072C 21r00r00         [12] 1365 	ld	hl, #_player_y
      00072F 4E               [ 8] 1366 	ld	c, (hl)
      000730 21r01r00         [12] 1367 	ld	hl, #_player_x + 1
      000733 5E               [ 8] 1368 	ld	e, (hl)
                                   1369 ;/home/javier/Escritorio/gb_development/gbdk/include/gb/metasprites.h:160: __current_metasprite = metasprite;
      000734 21r00r00         [12] 1370 	ld	hl, #___current_metasprite
      000737 3Er00            [ 8] 1371 	ld	a, #<(_key_left_1)
      000739 22               [ 8] 1372 	ld	(hl+), a
      00073A 36s00            [12] 1373 	ld	(hl), #>(_key_left_1)
                                   1374 ;/home/javier/Escritorio/gb_development/gbdk/include/gb/metasprites.h:161: __current_base_tile = base_tile;
      00073C 21r00r00         [12] 1375 	ld	hl, #___current_base_tile
      00073F 36 00            [12] 1376 	ld	(hl), #0x00
                                   1377 ;/home/javier/Escritorio/gb_development/gbdk/include/gb/metasprites.h:162: __current_base_prop = 0;
      000741 21r00r00         [12] 1378 	ld	hl, #___current_base_prop
      000744 36 00            [12] 1379 	ld	(hl), #0x00
                                   1380 ;/home/javier/Escritorio/gb_development/gbdk/include/gb/metasprites.h:163: return __move_metasprite(base_sprite, (y << 8) | (uint8_t)x);
      000746 AF               [ 4] 1381 	xor	a, a
      000747 B3               [ 4] 1382 	or	a, e
      000748 5F               [ 4] 1383 	ld	e, a
      000749 51               [ 4] 1384 	ld	d, c
      00074A AF               [ 4] 1385 	xor	a, a
      00074B CDr00r00         [24] 1386 	call	___move_metasprite
                                   1387 ;src/director.c:256: finish_frame(4)
      00074E 3E 04            [ 8] 1388 	ld	a, #0x04
      000750 CDrC7r0D         [24] 1389 	call	_finish_frame_inner
      000753 CB 47            [ 8] 1390 	bit	0,a
      000755 C2rC4r0D         [16] 1391 	jp	NZ,00349$
                                   1392 ;src/director.c:252: for (i=0; i<6; i++){
      000758 21r00r00         [12] 1393 	ld	hl, #_i
      00075B 34               [12] 1394 	inc	(hl)
      00075C 7E               [ 8] 1395 	ld	a, (hl)
      00075D D6 06            [ 8] 1396 	sub	a, #0x06
      00075F 38 9F            [12] 1397 	jr	C, 00322$
                                   1398 ;src/director.c:258: for (i=0; i<6; i++){
      000761 36 00            [12] 1399 	ld	(hl), #0x00
      000763                       1400 00324$:
                                   1401 ;src/director.c:259: move_metasprite(key_right_0, TILE_NUM_START, SPR_NUM_START, (uint8_t)SUB_TO_PX(player_x), player_y);
      000763 21r00r00         [12] 1402 	ld	hl, #_player_y
      000766 5E               [ 8] 1403 	ld	e, (hl)
      000767 21r01r00         [12] 1404 	ld	hl, #_player_x + 1
      00076A 4E               [ 8] 1405 	ld	c, (hl)
                                   1406 ;/home/javier/Escritorio/gb_development/gbdk/include/gb/metasprites.h:160: __current_metasprite = metasprite;
      00076B 21r00r00         [12] 1407 	ld	hl, #___current_metasprite
      00076E 3Er00            [ 8] 1408 	ld	a, #<(_key_right_0)
      000770 22               [ 8] 1409 	ld	(hl+), a
      000771 36s00            [12] 1410 	ld	(hl), #>(_key_right_0)
                                   1411 ;/home/javier/Escritorio/gb_development/gbdk/include/gb/metasprites.h:161: __current_base_tile = base_tile;
      000773 21r00r00         [12] 1412 	ld	hl, #___current_base_tile
      000776 36 00            [12] 1413 	ld	(hl), #0x00
                                   1414 ;/home/javier/Escritorio/gb_development/gbdk/include/gb/metasprites.h:162: __current_base_prop = 0;
      000778 21r00r00         [12] 1415 	ld	hl, #___current_base_prop
      00077B 36 00            [12] 1416 	ld	(hl), #0x00
                                   1417 ;/home/javier/Escritorio/gb_development/gbdk/include/gb/metasprites.h:163: return __move_metasprite(base_sprite, (y << 8) | (uint8_t)x);
      00077D 53               [ 4] 1418 	ld	d, e
      00077E AF               [ 4] 1419 	xor	a, a
      00077F B1               [ 4] 1420 	or	a, c
      000780 5F               [ 4] 1421 	ld	e, a
      000781 AF               [ 4] 1422 	xor	a, a
      000782 CDr00r00         [24] 1423 	call	___move_metasprite
                                   1424 ;src/director.c:260: finish_frame(4)
      000785 3E 04            [ 8] 1425 	ld	a, #0x04
      000787 CDrC7r0D         [24] 1426 	call	_finish_frame_inner
      00078A CB 47            [ 8] 1427 	bit	0,a
      00078C C2rC4r0D         [16] 1428 	jp	NZ,00349$
                                   1429 ;src/director.c:261: move_metasprite(key_right_1, TILE_NUM_START, SPR_NUM_START, (uint8_t)SUB_TO_PX(player_x), player_y);
      00078F 21r00r00         [12] 1430 	ld	hl, #_player_y
      000792 4E               [ 8] 1431 	ld	c, (hl)
      000793 21r01r00         [12] 1432 	ld	hl, #_player_x + 1
      000796 5E               [ 8] 1433 	ld	e, (hl)
                                   1434 ;/home/javier/Escritorio/gb_development/gbdk/include/gb/metasprites.h:160: __current_metasprite = metasprite;
      000797 21r00r00         [12] 1435 	ld	hl, #___current_metasprite
      00079A 3Er00            [ 8] 1436 	ld	a, #<(_key_right_1)
      00079C 22               [ 8] 1437 	ld	(hl+), a
      00079D 36s00            [12] 1438 	ld	(hl), #>(_key_right_1)
                                   1439 ;/home/javier/Escritorio/gb_development/gbdk/include/gb/metasprites.h:161: __current_base_tile = base_tile;
      00079F 21r00r00         [12] 1440 	ld	hl, #___current_base_tile
      0007A2 36 00            [12] 1441 	ld	(hl), #0x00
                                   1442 ;/home/javier/Escritorio/gb_development/gbdk/include/gb/metasprites.h:162: __current_base_prop = 0;
      0007A4 21r00r00         [12] 1443 	ld	hl, #___current_base_prop
      0007A7 36 00            [12] 1444 	ld	(hl), #0x00
                                   1445 ;/home/javier/Escritorio/gb_development/gbdk/include/gb/metasprites.h:163: return __move_metasprite(base_sprite, (y << 8) | (uint8_t)x);
      0007A9 AF               [ 4] 1446 	xor	a, a
      0007AA B3               [ 4] 1447 	or	a, e
      0007AB 5F               [ 4] 1448 	ld	e, a
      0007AC 51               [ 4] 1449 	ld	d, c
      0007AD AF               [ 4] 1450 	xor	a, a
      0007AE CDr00r00         [24] 1451 	call	___move_metasprite
                                   1452 ;src/director.c:262: finish_frame(4)
      0007B1 3E 04            [ 8] 1453 	ld	a, #0x04
      0007B3 CDrC7r0D         [24] 1454 	call	_finish_frame_inner
      0007B6 CB 47            [ 8] 1455 	bit	0,a
      0007B8 C2rC4r0D         [16] 1456 	jp	NZ,00349$
                                   1457 ;src/director.c:258: for (i=0; i<6; i++){
      0007BB 21r00r00         [12] 1458 	ld	hl, #_i
      0007BE 34               [12] 1459 	inc	(hl)
      0007BF 7E               [ 8] 1460 	ld	a, (hl)
      0007C0 D6 06            [ 8] 1461 	sub	a, #0x06
      0007C2 38 9F            [12] 1462 	jr	C, 00324$
                                   1463 ;src/director.c:264: for (i=0; i<6; i++){
      0007C4 36 00            [12] 1464 	ld	(hl), #0x00
      0007C6                       1465 00326$:
                                   1466 ;src/director.c:265: move_metasprite(key_left_0, TILE_NUM_START, SPR_NUM_START, (uint8_t)SUB_TO_PX(player_x), player_y);
      0007C6 21r00r00         [12] 1467 	ld	hl, #_player_y
      0007C9 5E               [ 8] 1468 	ld	e, (hl)
      0007CA 21r01r00         [12] 1469 	ld	hl, #_player_x + 1
      0007CD 4E               [ 8] 1470 	ld	c, (hl)
                                   1471 ;/home/javier/Escritorio/gb_development/gbdk/include/gb/metasprites.h:160: __current_metasprite = metasprite;
      0007CE 21r00r00         [12] 1472 	ld	hl, #___current_metasprite
      0007D1 3Er00            [ 8] 1473 	ld	a, #<(_key_left_0)
      0007D3 22               [ 8] 1474 	ld	(hl+), a
      0007D4 36s00            [12] 1475 	ld	(hl), #>(_key_left_0)
                                   1476 ;/home/javier/Escritorio/gb_development/gbdk/include/gb/metasprites.h:161: __current_base_tile = base_tile;
      0007D6 21r00r00         [12] 1477 	ld	hl, #___current_base_tile
      0007D9 36 00            [12] 1478 	ld	(hl), #0x00
                                   1479 ;/home/javier/Escritorio/gb_development/gbdk/include/gb/metasprites.h:162: __current_base_prop = 0;
      0007DB 21r00r00         [12] 1480 	ld	hl, #___current_base_prop
      0007DE 36 00            [12] 1481 	ld	(hl), #0x00
                                   1482 ;/home/javier/Escritorio/gb_development/gbdk/include/gb/metasprites.h:163: return __move_metasprite(base_sprite, (y << 8) | (uint8_t)x);
      0007E0 53               [ 4] 1483 	ld	d, e
      0007E1 AF               [ 4] 1484 	xor	a, a
      0007E2 B1               [ 4] 1485 	or	a, c
      0007E3 5F               [ 4] 1486 	ld	e, a
      0007E4 AF               [ 4] 1487 	xor	a, a
      0007E5 CDr00r00         [24] 1488 	call	___move_metasprite
                                   1489 ;src/director.c:266: finish_frame(4)
      0007E8 3E 04            [ 8] 1490 	ld	a, #0x04
      0007EA CDrC7r0D         [24] 1491 	call	_finish_frame_inner
      0007ED CB 47            [ 8] 1492 	bit	0,a
      0007EF C2rC4r0D         [16] 1493 	jp	NZ,00349$
                                   1494 ;src/director.c:267: move_metasprite(key_left_1, TILE_NUM_START, SPR_NUM_START, (uint8_t)SUB_TO_PX(player_x), player_y);
      0007F2 21r00r00         [12] 1495 	ld	hl, #_player_y
      0007F5 4E               [ 8] 1496 	ld	c, (hl)
      0007F6 21r01r00         [12] 1497 	ld	hl, #_player_x + 1
      0007F9 5E               [ 8] 1498 	ld	e, (hl)
                                   1499 ;/home/javier/Escritorio/gb_development/gbdk/include/gb/metasprites.h:160: __current_metasprite = metasprite;
      0007FA 21r00r00         [12] 1500 	ld	hl, #___current_metasprite
      0007FD 3Er00            [ 8] 1501 	ld	a, #<(_key_left_1)
      0007FF 22               [ 8] 1502 	ld	(hl+), a
      000800 36s00            [12] 1503 	ld	(hl), #>(_key_left_1)
                                   1504 ;/home/javier/Escritorio/gb_development/gbdk/include/gb/metasprites.h:161: __current_base_tile = base_tile;
      000802 21r00r00         [12] 1505 	ld	hl, #___current_base_tile
      000805 36 00            [12] 1506 	ld	(hl), #0x00
                                   1507 ;/home/javier/Escritorio/gb_development/gbdk/include/gb/metasprites.h:162: __current_base_prop = 0;
      000807 21r00r00         [12] 1508 	ld	hl, #___current_base_prop
      00080A 36 00            [12] 1509 	ld	(hl), #0x00
                                   1510 ;/home/javier/Escritorio/gb_development/gbdk/include/gb/metasprites.h:163: return __move_metasprite(base_sprite, (y << 8) | (uint8_t)x);
      00080C AF               [ 4] 1511 	xor	a, a
      00080D B3               [ 4] 1512 	or	a, e
      00080E 5F               [ 4] 1513 	ld	e, a
      00080F 51               [ 4] 1514 	ld	d, c
      000810 AF               [ 4] 1515 	xor	a, a
      000811 CDr00r00         [24] 1516 	call	___move_metasprite
                                   1517 ;src/director.c:268: finish_frame(4)
      000814 3E 04            [ 8] 1518 	ld	a, #0x04
      000816 CDrC7r0D         [24] 1519 	call	_finish_frame_inner
      000819 CB 47            [ 8] 1520 	bit	0,a
      00081B C2rC4r0D         [16] 1521 	jp	NZ,00349$
                                   1522 ;src/director.c:264: for (i=0; i<6; i++){
      00081E 21r00r00         [12] 1523 	ld	hl, #_i
      000821 34               [12] 1524 	inc	(hl)
      000822 7E               [ 8] 1525 	ld	a, (hl)
      000823 D6 06            [ 8] 1526 	sub	a, #0x06
      000825 38 9F            [12] 1527 	jr	C, 00326$
                                   1528 ;src/director.c:271: screen_shake(10, idle_metasprites[0]);
      000827 21r00r00         [12] 1529 	ld	hl, #_idle_metasprites
      00082A 2A               [ 8] 1530 	ld	a, (hl+)
      00082B 4F               [ 4] 1531 	ld	c, a
      00082C 46               [ 8] 1532 	ld	b, (hl)
      00082D 59               [ 4] 1533 	ld	e, c
      00082E 50               [ 4] 1534 	ld	d, b
      00082F 3E 0A            [ 8] 1535 	ld	a, #0x0a
      000831 CDr09r0E         [24] 1536 	call	_screen_shake
                                   1537 ;src/director.c:274: move_metasprite(pull_0, TILE_NUM_START, SPR_NUM_START, (uint8_t)SUB_TO_PX(player_x)-2, player_y);
      000834 21r00r00         [12] 1538 	ld	hl, #_player_y
      000837 4E               [ 8] 1539 	ld	c, (hl)
      000838 21r01r00         [12] 1540 	ld	hl, #_player_x + 1
      00083B 5E               [ 8] 1541 	ld	e, (hl)
      00083C 1D               [ 4] 1542 	dec	e
      00083D 1D               [ 4] 1543 	dec	e
                                   1544 ;/home/javier/Escritorio/gb_development/gbdk/include/gb/metasprites.h:160: __current_metasprite = metasprite;
      00083E 21r00r00         [12] 1545 	ld	hl, #___current_metasprite
      000841 3Er00            [ 8] 1546 	ld	a, #<(_pull_0)
      000843 22               [ 8] 1547 	ld	(hl+), a
      000844 36s00            [12] 1548 	ld	(hl), #>(_pull_0)
                                   1549 ;/home/javier/Escritorio/gb_development/gbdk/include/gb/metasprites.h:161: __current_base_tile = base_tile;
      000846 21r00r00         [12] 1550 	ld	hl, #___current_base_tile
      000849 36 00            [12] 1551 	ld	(hl), #0x00
                                   1552 ;/home/javier/Escritorio/gb_development/gbdk/include/gb/metasprites.h:162: __current_base_prop = 0;
      00084B 21r00r00         [12] 1553 	ld	hl, #___current_base_prop
      00084E 36 00            [12] 1554 	ld	(hl), #0x00
                                   1555 ;/home/javier/Escritorio/gb_development/gbdk/include/gb/metasprites.h:163: return __move_metasprite(base_sprite, (y << 8) | (uint8_t)x);
      000850 AF               [ 4] 1556 	xor	a, a
      000851 B3               [ 4] 1557 	or	a, e
      000852 5F               [ 4] 1558 	ld	e, a
      000853 51               [ 4] 1559 	ld	d, c
      000854 AF               [ 4] 1560 	xor	a, a
      000855 CDr00r00         [24] 1561 	call	___move_metasprite
                                   1562 ;src/director.c:275: finish_frame(1)
      000858 3E 01            [ 8] 1563 	ld	a, #0x01
      00085A CDrC7r0D         [24] 1564 	call	_finish_frame_inner
      00085D CB 47            [ 8] 1565 	bit	0,a
      00085F C2rC4r0D         [16] 1566 	jp	NZ,00349$
                                   1567 ;src/director.c:276: move_metasprite(pull_0, TILE_NUM_START, SPR_NUM_START, (uint8_t)SUB_TO_PX(player_x)-4, player_y);
      000862 21r00r00         [12] 1568 	ld	hl, #_player_y
      000865 4E               [ 8] 1569 	ld	c, (hl)
      000866 FAr01r00         [16] 1570 	ld	a, (#_player_x + 1)
      000869 C6 FC            [ 8] 1571 	add	a, #0xfc
                                   1572 ;/home/javier/Escritorio/gb_development/gbdk/include/gb/metasprites.h:160: __current_metasprite = metasprite;
      00086B 21r00r00         [12] 1573 	ld	hl, #___current_metasprite
      00086E 36r00            [12] 1574 	ld	(hl), #<(_pull_0)
      000870 23               [ 8] 1575 	inc	hl
      000871 36s00            [12] 1576 	ld	(hl), #>(_pull_0)
                                   1577 ;/home/javier/Escritorio/gb_development/gbdk/include/gb/metasprites.h:161: __current_base_tile = base_tile;
      000873 21r00r00         [12] 1578 	ld	hl, #___current_base_tile
      000876 36 00            [12] 1579 	ld	(hl), #0x00
                                   1580 ;/home/javier/Escritorio/gb_development/gbdk/include/gb/metasprites.h:162: __current_base_prop = 0;
      000878 21r00r00         [12] 1581 	ld	hl, #___current_base_prop
      00087B 36 00            [12] 1582 	ld	(hl), #0x00
                                   1583 ;/home/javier/Escritorio/gb_development/gbdk/include/gb/metasprites.h:163: return __move_metasprite(base_sprite, (y << 8) | (uint8_t)x);
      00087D 51               [ 4] 1584 	ld	d, c
      00087E 1E 00            [ 8] 1585 	ld	e, #0x00
      000880 B3               [ 4] 1586 	or	a, e
      000881 5F               [ 4] 1587 	ld	e, a
      000882 AF               [ 4] 1588 	xor	a, a
      000883 CDr00r00         [24] 1589 	call	___move_metasprite
                                   1590 ;src/director.c:277: finish_frame(1)
      000886 3E 01            [ 8] 1591 	ld	a, #0x01
      000888 CDrC7r0D         [24] 1592 	call	_finish_frame_inner
      00088B CB 47            [ 8] 1593 	bit	0,a
      00088D C2rC4r0D         [16] 1594 	jp	NZ,00349$
                                   1595 ;src/director.c:278: move_metasprite(pull_0, TILE_NUM_START, SPR_NUM_START, (uint8_t)SUB_TO_PX(player_x)-6, player_y);
      000890 21r00r00         [12] 1596 	ld	hl, #_player_y
      000893 4E               [ 8] 1597 	ld	c, (hl)
      000894 FAr01r00         [16] 1598 	ld	a, (#_player_x + 1)
      000897 C6 FA            [ 8] 1599 	add	a, #0xfa
                                   1600 ;/home/javier/Escritorio/gb_development/gbdk/include/gb/metasprites.h:160: __current_metasprite = metasprite;
      000899 21r00r00         [12] 1601 	ld	hl, #___current_metasprite
      00089C 36r00            [12] 1602 	ld	(hl), #<(_pull_0)
      00089E 23               [ 8] 1603 	inc	hl
      00089F 36s00            [12] 1604 	ld	(hl), #>(_pull_0)
                                   1605 ;/home/javier/Escritorio/gb_development/gbdk/include/gb/metasprites.h:161: __current_base_tile = base_tile;
      0008A1 21r00r00         [12] 1606 	ld	hl, #___current_base_tile
      0008A4 36 00            [12] 1607 	ld	(hl), #0x00
                                   1608 ;/home/javier/Escritorio/gb_development/gbdk/include/gb/metasprites.h:162: __current_base_prop = 0;
      0008A6 21r00r00         [12] 1609 	ld	hl, #___current_base_prop
      0008A9 36 00            [12] 1610 	ld	(hl), #0x00
                                   1611 ;/home/javier/Escritorio/gb_development/gbdk/include/gb/metasprites.h:163: return __move_metasprite(base_sprite, (y << 8) | (uint8_t)x);
      0008AB 51               [ 4] 1612 	ld	d, c
      0008AC 1E 00            [ 8] 1613 	ld	e, #0x00
      0008AE B3               [ 4] 1614 	or	a, e
      0008AF 5F               [ 4] 1615 	ld	e, a
      0008B0 AF               [ 4] 1616 	xor	a, a
      0008B1 CDr00r00         [24] 1617 	call	___move_metasprite
                                   1618 ;src/director.c:279: finish_frame(1)
      0008B4 3E 01            [ 8] 1619 	ld	a, #0x01
      0008B6 CDrC7r0D         [24] 1620 	call	_finish_frame_inner
      0008B9 CB 47            [ 8] 1621 	bit	0,a
                                   1622 ;src/director.c:282: for (uint8_t j = 0; j < 4; j++)
      0008BB C2rC4r0D         [16] 1623 	jp	NZ,00349$
      0008BE F8 04            [12] 1624 	ldhl	sp,	#4
      0008C0 36 00            [12] 1625 	ld	(hl), #0x00
      0008C2                       1626 00331$:
      0008C2 F8 04            [12] 1627 	ldhl	sp,	#4
      0008C4 7E               [ 8] 1628 	ld	a, (hl)
      0008C5 D6 04            [ 8] 1629 	sub	a, #0x04
      0008C7 D2r68r09         [16] 1630 	jp	NC, 00195$
                                   1631 ;src/director.c:284: move_metasprite(pull_0, TILE_NUM_START, SPR_NUM_START, (uint8_t)SUB_TO_PX(player_x)-9, player_y);        
      0008CA 21r00r00         [12] 1632 	ld	hl, #_player_y
      0008CD 4E               [ 8] 1633 	ld	c, (hl)
      0008CE FAr01r00         [16] 1634 	ld	a, (#_player_x + 1)
      0008D1 C6 F7            [ 8] 1635 	add	a, #0xf7
                                   1636 ;/home/javier/Escritorio/gb_development/gbdk/include/gb/metasprites.h:160: __current_metasprite = metasprite;
      0008D3 21r00r00         [12] 1637 	ld	hl, #___current_metasprite
      0008D6 36r00            [12] 1638 	ld	(hl), #<(_pull_0)
      0008D8 23               [ 8] 1639 	inc	hl
      0008D9 36s00            [12] 1640 	ld	(hl), #>(_pull_0)
                                   1641 ;/home/javier/Escritorio/gb_development/gbdk/include/gb/metasprites.h:161: __current_base_tile = base_tile;
      0008DB 21r00r00         [12] 1642 	ld	hl, #___current_base_tile
      0008DE 36 00            [12] 1643 	ld	(hl), #0x00
                                   1644 ;/home/javier/Escritorio/gb_development/gbdk/include/gb/metasprites.h:162: __current_base_prop = 0;
      0008E0 21r00r00         [12] 1645 	ld	hl, #___current_base_prop
      0008E3 36 00            [12] 1646 	ld	(hl), #0x00
                                   1647 ;/home/javier/Escritorio/gb_development/gbdk/include/gb/metasprites.h:163: return __move_metasprite(base_sprite, (y << 8) | (uint8_t)x);
      0008E5 51               [ 4] 1648 	ld	d, c
      0008E6 1E 00            [ 8] 1649 	ld	e, #0x00
      0008E8 B3               [ 4] 1650 	or	a,e
      0008E9 5F               [ 4] 1651 	ld	e, a
      0008EA AF               [ 4] 1652 	xor	a, a
      0008EB CDr00r00         [24] 1653 	call	___move_metasprite
                                   1654 ;src/director.c:285: finish_frame(15)
      0008EE 3E 0F            [ 8] 1655 	ld	a, #0x0f
      0008F0 CDrC7r0D         [24] 1656 	call	_finish_frame_inner
      0008F3 CB 47            [ 8] 1657 	bit	0,a
      0008F5 C2rC4r0D         [16] 1658 	jp	NZ,00349$
                                   1659 ;src/director.c:286: for (i = 0; i < 4; i++)
      0008F8 21r00r00         [12] 1660 	ld	hl, #_i
      0008FB 36 00            [12] 1661 	ld	(hl), #0x00
      0008FD                       1662 00328$:
                                   1663 ;src/director.c:288: move_metasprite(pull_1, TILE_NUM_START, SPR_NUM_START, (uint8_t)SUB_TO_PX(player_x)-9, player_y);        
      0008FD 21r00r00         [12] 1664 	ld	hl, #_player_y
      000900 4E               [ 8] 1665 	ld	c, (hl)
      000901 FAr01r00         [16] 1666 	ld	a, (#_player_x + 1)
      000904 C6 F7            [ 8] 1667 	add	a, #0xf7
                                   1668 ;/home/javier/Escritorio/gb_development/gbdk/include/gb/metasprites.h:160: __current_metasprite = metasprite;
      000906 21r00r00         [12] 1669 	ld	hl, #___current_metasprite
      000909 36r00            [12] 1670 	ld	(hl), #<(_pull_1)
      00090B 23               [ 8] 1671 	inc	hl
      00090C 36s00            [12] 1672 	ld	(hl), #>(_pull_1)
                                   1673 ;/home/javier/Escritorio/gb_development/gbdk/include/gb/metasprites.h:161: __current_base_tile = base_tile;
      00090E 21r00r00         [12] 1674 	ld	hl, #___current_base_tile
      000911 36 00            [12] 1675 	ld	(hl), #0x00
                                   1676 ;/home/javier/Escritorio/gb_development/gbdk/include/gb/metasprites.h:162: __current_base_prop = 0;
      000913 21r00r00         [12] 1677 	ld	hl, #___current_base_prop
      000916 36 00            [12] 1678 	ld	(hl), #0x00
                                   1679 ;/home/javier/Escritorio/gb_development/gbdk/include/gb/metasprites.h:163: return __move_metasprite(base_sprite, (y << 8) | (uint8_t)x);
      000918 51               [ 4] 1680 	ld	d, c
      000919 1E 00            [ 8] 1681 	ld	e, #0x00
      00091B B3               [ 4] 1682 	or	a,e
      00091C 5F               [ 4] 1683 	ld	e, a
      00091D AF               [ 4] 1684 	xor	a, a
      00091E CDr00r00         [24] 1685 	call	___move_metasprite
                                   1686 ;src/director.c:289: finish_frame(2)
      000921 3E 02            [ 8] 1687 	ld	a, #0x02
      000923 CDrC7r0D         [24] 1688 	call	_finish_frame_inner
      000926 CB 47            [ 8] 1689 	bit	0,a
      000928 C2rC4r0D         [16] 1690 	jp	NZ,00349$
                                   1691 ;src/director.c:290: move_metasprite(pull_1, TILE_NUM_START, SPR_NUM_START, (uint8_t)SUB_TO_PX(player_x)-8, player_y);        
      00092B 21r00r00         [12] 1692 	ld	hl, #_player_y
      00092E 4E               [ 8] 1693 	ld	c, (hl)
      00092F FAr01r00         [16] 1694 	ld	a, (#_player_x + 1)
      000932 C6 F8            [ 8] 1695 	add	a, #0xf8
                                   1696 ;/home/javier/Escritorio/gb_development/gbdk/include/gb/metasprites.h:160: __current_metasprite = metasprite;
      000934 21r00r00         [12] 1697 	ld	hl, #___current_metasprite
      000937 36r00            [12] 1698 	ld	(hl), #<(_pull_1)
      000939 23               [ 8] 1699 	inc	hl
      00093A 36s00            [12] 1700 	ld	(hl), #>(_pull_1)
                                   1701 ;/home/javier/Escritorio/gb_development/gbdk/include/gb/metasprites.h:161: __current_base_tile = base_tile;
      00093C 21r00r00         [12] 1702 	ld	hl, #___current_base_tile
      00093F 36 00            [12] 1703 	ld	(hl), #0x00
                                   1704 ;/home/javier/Escritorio/gb_development/gbdk/include/gb/metasprites.h:162: __current_base_prop = 0;
      000941 21r00r00         [12] 1705 	ld	hl, #___current_base_prop
      000944 36 00            [12] 1706 	ld	(hl), #0x00
                                   1707 ;/home/javier/Escritorio/gb_development/gbdk/include/gb/metasprites.h:163: return __move_metasprite(base_sprite, (y << 8) | (uint8_t)x);
      000946 51               [ 4] 1708 	ld	d, c
      000947 1E 00            [ 8] 1709 	ld	e, #0x00
                                   1710 ;	spillPairReg hl
                                   1711 ;	spillPairReg hl
      000949 B3               [ 4] 1712 	or	a, e
      00094A 5F               [ 4] 1713 	ld	e, a
      00094B AF               [ 4] 1714 	xor	a, a
      00094C CDr00r00         [24] 1715 	call	___move_metasprite
                                   1716 ;src/director.c:291: finish_frame(2)
      00094F 3E 02            [ 8] 1717 	ld	a, #0x02
      000951 CDrC7r0D         [24] 1718 	call	_finish_frame_inner
      000954 CB 47            [ 8] 1719 	bit	0,a
      000956 C2rC4r0D         [16] 1720 	jp	NZ,00349$
                                   1721 ;src/director.c:286: for (i = 0; i < 4; i++)
      000959 21r00r00         [12] 1722 	ld	hl, #_i
      00095C 34               [12] 1723 	inc	(hl)
      00095D 7E               [ 8] 1724 	ld	a, (hl)
      00095E D6 04            [ 8] 1725 	sub	a, #0x04
      000960 38 9B            [12] 1726 	jr	C, 00328$
                                   1727 ;src/director.c:282: for (uint8_t j = 0; j < 4; j++)
      000962 F8 04            [12] 1728 	ldhl	sp,	#4
      000964 34               [12] 1729 	inc	(hl)
      000965 C3rC2r08         [16] 1730 	jp	00331$
      000968                       1731 00195$:
                                   1732 ;src/director.c:294: for (i = 0; i < 6; i++)
      000968 21r00r00         [12] 1733 	ld	hl, #_i
      00096B 36 00            [12] 1734 	ld	(hl), #0x00
      00096D                       1735 00333$:
                                   1736 ;src/director.c:296: move_metasprite(pull_1, TILE_NUM_START, SPR_NUM_START, (uint8_t)SUB_TO_PX(player_x)-9, player_y);        
      00096D 21r00r00         [12] 1737 	ld	hl, #_player_y
      000970 4E               [ 8] 1738 	ld	c, (hl)
      000971 FAr01r00         [16] 1739 	ld	a, (#_player_x + 1)
      000974 C6 F7            [ 8] 1740 	add	a, #0xf7
                                   1741 ;/home/javier/Escritorio/gb_development/gbdk/include/gb/metasprites.h:160: __current_metasprite = metasprite;
      000976 21r00r00         [12] 1742 	ld	hl, #___current_metasprite
      000979 36r00            [12] 1743 	ld	(hl), #<(_pull_1)
      00097B 23               [ 8] 1744 	inc	hl
      00097C 36s00            [12] 1745 	ld	(hl), #>(_pull_1)
                                   1746 ;/home/javier/Escritorio/gb_development/gbdk/include/gb/metasprites.h:161: __current_base_tile = base_tile;
      00097E 21r00r00         [12] 1747 	ld	hl, #___current_base_tile
      000981 36 00            [12] 1748 	ld	(hl), #0x00
                                   1749 ;/home/javier/Escritorio/gb_development/gbdk/include/gb/metasprites.h:162: __current_base_prop = 0;
      000983 21r00r00         [12] 1750 	ld	hl, #___current_base_prop
      000986 36 00            [12] 1751 	ld	(hl), #0x00
                                   1752 ;/home/javier/Escritorio/gb_development/gbdk/include/gb/metasprites.h:163: return __move_metasprite(base_sprite, (y << 8) | (uint8_t)x);
      000988 51               [ 4] 1753 	ld	d, c
      000989 1E 00            [ 8] 1754 	ld	e, #0x00
      00098B B3               [ 4] 1755 	or	a, e
      00098C 5F               [ 4] 1756 	ld	e, a
      00098D AF               [ 4] 1757 	xor	a, a
      00098E CDr00r00         [24] 1758 	call	___move_metasprite
                                   1759 ;src/director.c:297: finish_frame(2)
      000991 3E 02            [ 8] 1760 	ld	a, #0x02
      000993 CDrC7r0D         [24] 1761 	call	_finish_frame_inner
      000996 CB 47            [ 8] 1762 	bit	0,a
      000998 C2rC4r0D         [16] 1763 	jp	NZ,00349$
                                   1764 ;src/director.c:298: move_metasprite(pull_1, TILE_NUM_START, SPR_NUM_START, (uint8_t)SUB_TO_PX(player_x)-8, player_y);        
      00099B 21r00r00         [12] 1765 	ld	hl, #_player_y
      00099E 4E               [ 8] 1766 	ld	c, (hl)
      00099F FAr01r00         [16] 1767 	ld	a, (#_player_x + 1)
      0009A2 C6 F8            [ 8] 1768 	add	a, #0xf8
                                   1769 ;/home/javier/Escritorio/gb_development/gbdk/include/gb/metasprites.h:160: __current_metasprite = metasprite;
      0009A4 21r00r00         [12] 1770 	ld	hl, #___current_metasprite
      0009A7 36r00            [12] 1771 	ld	(hl), #<(_pull_1)
      0009A9 23               [ 8] 1772 	inc	hl
      0009AA 36s00            [12] 1773 	ld	(hl), #>(_pull_1)
                                   1774 ;/home/javier/Escritorio/gb_development/gbdk/include/gb/metasprites.h:161: __current_base_tile = base_tile;
      0009AC 21r00r00         [12] 1775 	ld	hl, #___current_base_tile
      0009AF 36 00            [12] 1776 	ld	(hl), #0x00
                                   1777 ;/home/javier/Escritorio/gb_development/gbdk/include/gb/metasprites.h:162: __current_base_prop = 0;
      0009B1 21r00r00         [12] 1778 	ld	hl, #___current_base_prop
      0009B4 36 00            [12] 1779 	ld	(hl), #0x00
                                   1780 ;/home/javier/Escritorio/gb_development/gbdk/include/gb/metasprites.h:163: return __move_metasprite(base_sprite, (y << 8) | (uint8_t)x);
      0009B6 51               [ 4] 1781 	ld	d, c
      0009B7 1E 00            [ 8] 1782 	ld	e, #0x00
      0009B9 B3               [ 4] 1783 	or	a, e
      0009BA 5F               [ 4] 1784 	ld	e, a
      0009BB AF               [ 4] 1785 	xor	a, a
      0009BC CDr00r00         [24] 1786 	call	___move_metasprite
                                   1787 ;src/director.c:299: finish_frame(2)
      0009BF 3E 02            [ 8] 1788 	ld	a, #0x02
      0009C1 CDrC7r0D         [24] 1789 	call	_finish_frame_inner
      0009C4 CB 47            [ 8] 1790 	bit	0,a
      0009C6 C2rC4r0D         [16] 1791 	jp	NZ,00349$
                                   1792 ;src/director.c:294: for (i = 0; i < 6; i++)
      0009C9 21r00r00         [12] 1793 	ld	hl, #_i
      0009CC 34               [12] 1794 	inc	(hl)
      0009CD 7E               [ 8] 1795 	ld	a, (hl)
      0009CE D6 06            [ 8] 1796 	sub	a, #0x06
      0009D0 38 9B            [12] 1797 	jr	C, 00333$
                                   1798 ;src/director.c:301: finish_frame(2)
      0009D2 3E 02            [ 8] 1799 	ld	a, #0x02
      0009D4 CDrC7r0D         [24] 1800 	call	_finish_frame_inner
      0009D7 CB 47            [ 8] 1801 	bit	0,a
      0009D9 C2rC4r0D         [16] 1802 	jp	NZ,00349$
                                   1803 ;src/director.c:304: player_x = player_x - (9<<8);
      0009DC 21r00r00         [12] 1804 	ld	hl, #_player_x
      0009DF 2A               [ 8] 1805 	ld	a, (hl+)
      0009E0 46               [ 8] 1806 	ld	b, (hl)
      0009E1 2B               [ 8] 1807 	dec	hl
      0009E2 4F               [ 4] 1808 	ld	c,a
      0009E3 78               [ 4] 1809 	ld	a,b
      0009E4 C6 F7            [ 8] 1810 	add	a,#0xf7
      0009E6 71               [ 8] 1811 	ld	(hl), c
      0009E7 23               [ 8] 1812 	inc	hl
      0009E8 77               [ 8] 1813 	ld	(hl), a
                                   1814 ;src/director.c:305: move_metasprite_vflip(fall_metasprites[0], TILE_NUM_START, SPR_NUM_START, (uint8_t)SUB_TO_PX(player_x), player_y);
      0009E9 21r00r00         [12] 1815 	ld	hl, #_player_y
      0009EC 46               [ 8] 1816 	ld	b, (hl)
      0009ED 21r01r00         [12] 1817 	ld	hl, #_player_x + 1
      0009F0 4E               [ 8] 1818 	ld	c, (hl)
      0009F1 21r01r00         [12] 1819 	ld	hl, #_fall_metasprites + 1
      0009F4 3A               [ 8] 1820 	ld	a,	(hl-)
                                   1821 ;	spillPairReg hl
                                   1822 ;/home/javier/Escritorio/gb_development/gbdk/include/gb/metasprites.h:200: __current_metasprite = metasprite;
      0009F5 5E               [ 8] 1823 	ld	e, (hl)
      0009F6 57               [ 4] 1824 	ld	d, a
      0009F7 21r00r00         [12] 1825 	ld	hl, #___current_metasprite
      0009FA 7B               [ 4] 1826 	ld	a, e
      0009FB 22               [ 8] 1827 	ld	(hl+), a
      0009FC 72               [ 8] 1828 	ld	(hl), d
                                   1829 ;/home/javier/Escritorio/gb_development/gbdk/include/gb/metasprites.h:201: __current_base_tile = base_tile;
      0009FD 21r00r00         [12] 1830 	ld	hl, #___current_base_tile
      000A00 36 00            [12] 1831 	ld	(hl), #0x00
                                   1832 ;/home/javier/Escritorio/gb_development/gbdk/include/gb/metasprites.h:202: __current_base_prop = 0;
      000A02 21r00r00         [12] 1833 	ld	hl, #___current_base_prop
      000A05 36 00            [12] 1834 	ld	(hl), #0x00
                                   1835 ;/home/javier/Escritorio/gb_development/gbdk/include/gb/metasprites.h:203: return __move_metasprite_vflip(base_sprite, (y << 8) | (uint8_t)(x - 8u));
      000A07 50               [ 4] 1836 	ld	d, b
      000A08 1E 00            [ 8] 1837 	ld	e, #0x00
      000A0A 79               [ 4] 1838 	ld	a, c
      000A0B C6 F8            [ 8] 1839 	add	a, #0xf8
      000A0D B3               [ 4] 1840 	or	a, e
      000A0E 5F               [ 4] 1841 	ld	e, a
      000A0F AF               [ 4] 1842 	xor	a, a
      000A10 CDr00r00         [24] 1843 	call	___move_metasprite_vflip
                                   1844 ;src/director.c:307: for (i = 0; i < 60; i++)
      000A13 21r00r00         [12] 1845 	ld	hl, #_i
      000A16 36 00            [12] 1846 	ld	(hl), #0x00
      000A18 F8 04            [12] 1847 	ldhl	sp,	#4
      000A1A 36 09            [12] 1848 	ld	(hl), #0x09
      000A1C                       1849 00335$:
                                   1850 ;src/director.c:149: if (frame_counter & 0x01)
      000A1C 21r00r00         [12] 1851 	ld	hl, #_frame_counter
      000A1F 46               [ 8] 1852 	ld	b, (hl)
                                   1853 ;src/director.c:309: if (frame_counter & 0x01)
      000A20 CB 40            [ 8] 1854 	bit	0, b
      000A22 28 1B            [12] 1855 	jr	Z, 00204$
                                   1856 ;src/director.c:311: player_x += 1<<8;
      000A24 21r00r00         [12] 1857 	ld	hl, #_player_x
                                   1858 ;	spillPairReg hl
                                   1859 ;	spillPairReg hl
                                   1860 ;	spillPairReg hl
                                   1861 ;	spillPairReg hl
      000A27 4E               [ 8] 1862 	ld	c, (hl)
      000A28 FAr01r00         [16] 1863 	ld	a, (_player_x + 1)
      000A2B 3C               [ 4] 1864 	inc	a
      000A2C 21r00r00         [12] 1865 	ld	hl, #_player_x
      000A2F 71               [ 8] 1866 	ld	(hl), c
      000A30 23               [ 8] 1867 	inc	hl
      000A31 77               [ 8] 1868 	ld	(hl), a
                                   1869 ;src/director.c:312: player_y -= (y_speed >> 2);
      000A32 F8 04            [12] 1870 	ldhl	sp,	#4
      000A34 4E               [ 8] 1871 	ld	c, (hl)
      000A35 CB 29            [ 8] 1872 	sra	c
      000A37 CB 29            [ 8] 1873 	sra	c
      000A39 21r00r00         [12] 1874 	ld	hl, #_player_y
      000A3C 7E               [ 8] 1875 	ld	a, (hl)
      000A3D 91               [ 4] 1876 	sub	a, c
      000A3E 77               [ 8] 1877 	ld	(hl), a
      000A3F                       1878 00204$:
                                   1879 ;src/director.c:314: if ((frame_counter & 0x03) == 0x02)
      000A3F 78               [ 4] 1880 	ld	a, b
      000A40 E6 03            [ 8] 1881 	and	a, #0x03
      000A42 D6 02            [ 8] 1882 	sub	a, #0x02
      000A44 20 03            [12] 1883 	jr	NZ, 00206$
                                   1884 ;src/director.c:316: y_speed--;
      000A46 F8 04            [12] 1885 	ldhl	sp,	#4
      000A48 35               [12] 1886 	dec	(hl)
      000A49                       1887 00206$:
                                   1888 ;src/director.c:319: switch ((frame_counter >> 2) & 0x03)
      000A49 FAr00r00         [16] 1889 	ld	a, (#_frame_counter)
      000A4C 0F               [ 4] 1890 	rrca
      000A4D 0F               [ 4] 1891 	rrca
      000A4E E6 03            [ 8] 1892 	and	a, #0x3
      000A50 F8 00            [12] 1893 	ldhl	sp,	#0
      000A52 77               [ 8] 1894 	ld	(hl), a
                                   1895 ;src/director.c:137: move_metasprite(idle_metasprites[0], TILE_NUM_START, SPR_NUM_START, (uint8_t)SUB_TO_PX(player_x), player_y);
      000A53 FAr00r00         [16] 1896 	ld	a, (#_player_y)
                                   1897 ;/home/javier/Escritorio/gb_development/gbdk/include/gb/metasprites.h:203: return __move_metasprite_vflip(base_sprite, (y << 8) | (uint8_t)(x - 8u));
      000A56 F8 02            [12] 1898 	ldhl	sp,	#2
      000A58 32               [ 8] 1899 	ld	(hl-), a
                                   1900 ;src/director.c:319: switch ((frame_counter >> 2) & 0x03)
      000A59 AF               [ 4] 1901 	xor	a, a
      000A5A 32               [ 8] 1902 	ld	(hl-), a
      000A5B 7E               [ 8] 1903 	ld	a, (hl)
      000A5C B7               [ 4] 1904 	or	a, a
      000A5D 28 21            [12] 1905 	jr	Z, 00207$
                                   1906 ;src/director.c:192: bubble_y = player_y - 7; // 11
      000A5F FAr00r00         [16] 1907 	ld	a, (#_player_y)
                                   1908 ;src/director.c:326: move_metasprite_hvflip(fall_metasprites[0], TILE_NUM_START, SPR_NUM_START, (uint8_t)SUB_TO_PX(player_x), player_y + 16);
      000A62 C6 10            [ 8] 1909 	add	a, #0x10
      000A64 F8 03            [12] 1910 	ldhl	sp,	#3
      000A66 77               [ 8] 1911 	ld	(hl), a
                                   1912 ;src/director.c:319: switch ((frame_counter >> 2) & 0x03)
      000A67 F8 00            [12] 1913 	ldhl	sp,	#0
      000A69 7E               [ 8] 1914 	ld	a, (hl)
      000A6A 3D               [ 4] 1915 	dec	a
      000A6B 28 3E            [12] 1916 	jr	Z, 00208$
      000A6D F8 00            [12] 1917 	ldhl	sp,	#0
      000A6F 7E               [ 8] 1918 	ld	a, (hl)
      000A70 D6 02            [ 8] 1919 	sub	a, #0x02
      000A72 CArFDr0A         [16] 1920 	jp	Z,00209$
      000A75 F8 00            [12] 1921 	ldhl	sp,	#0
      000A77 7E               [ 8] 1922 	ld	a, (hl)
      000A78 D6 03            [ 8] 1923 	sub	a, #0x03
      000A7A CAr35r0B         [16] 1924 	jp	Z,00210$
      000A7D C3r59r0B         [16] 1925 	jp	00211$
                                   1926 ;src/director.c:321: case 0x00:
      000A80                       1927 00207$:
                                   1928 ;src/director.c:322: move_metasprite_vflip(fall_metasprites[0], TILE_NUM_START, SPR_NUM_START, (uint8_t)SUB_TO_PX(player_x), player_y);
      000A80 21r01r00         [12] 1929 	ld	hl, #_player_x + 1
      000A83 4E               [ 8] 1930 	ld	c, (hl)
      000A84 21r00r00         [12] 1931 	ld	hl, #_fall_metasprites
      000A87 2A               [ 8] 1932 	ld	a, (hl+)
      000A88 47               [ 4] 1933 	ld	b, a
      000A89 7E               [ 8] 1934 	ld	a, (hl)
                                   1935 ;/home/javier/Escritorio/gb_development/gbdk/include/gb/metasprites.h:200: __current_metasprite = metasprite;
      000A8A 21r00r00         [12] 1936 	ld	hl, #___current_metasprite
      000A8D 70               [ 8] 1937 	ld	(hl), b
      000A8E 23               [ 8] 1938 	inc	hl
      000A8F 77               [ 8] 1939 	ld	(hl), a
                                   1940 ;/home/javier/Escritorio/gb_development/gbdk/include/gb/metasprites.h:201: __current_base_tile = base_tile;
      000A90 21r00r00         [12] 1941 	ld	hl, #___current_base_tile
      000A93 36 00            [12] 1942 	ld	(hl), #0x00
                                   1943 ;/home/javier/Escritorio/gb_development/gbdk/include/gb/metasprites.h:202: __current_base_prop = 0;
      000A95 21r00r00         [12] 1944 	ld	hl, #___current_base_prop
      000A98 36 00            [12] 1945 	ld	(hl), #0x00
                                   1946 ;/home/javier/Escritorio/gb_development/gbdk/include/gb/metasprites.h:203: return __move_metasprite_vflip(base_sprite, (y << 8) | (uint8_t)(x - 8u));
      000A9A 79               [ 4] 1947 	ld	a, c
      000A9B C6 F8            [ 8] 1948 	add	a, #0xf8
      000A9D 4F               [ 4] 1949 	ld	c, a
      000A9E F8 01            [12] 1950 	ldhl	sp,	#1
      000AA0 2A               [ 8] 1951 	ld	a, (hl+)
      000AA1 B1               [ 4] 1952 	or	a, c
      000AA2 56               [ 8] 1953 	ld	d, (hl)
      000AA3 5F               [ 4] 1954 	ld	e, a
      000AA4 AF               [ 4] 1955 	xor	a, a
      000AA5 CDr00r00         [24] 1956 	call	___move_metasprite_vflip
                                   1957 ;src/director.c:323: break;
      000AA8 C3r59r0B         [16] 1958 	jp	00211$
                                   1959 ;src/director.c:324: case 0x01:
      000AAB                       1960 00208$:
                                   1961 ;src/director.c:326: move_metasprite_hvflip(fall_metasprites[0], TILE_NUM_START, SPR_NUM_START, (uint8_t)SUB_TO_PX(player_x), player_y + 16);
      000AAB F8 03            [12] 1962 	ldhl	sp,	#3
      000AAD 4E               [ 8] 1963 	ld	c, (hl)
      000AAE FAr01r00         [16] 1964 	ld	a, (#_player_x + 1)
      000AB1 F8 00            [12] 1965 	ldhl	sp,	#0
      000AB3 77               [ 8] 1966 	ld	(hl), a
      000AB4 21r00r00         [12] 1967 	ld	hl, #_fall_metasprites
      000AB7 2A               [ 8] 1968 	ld	a, (hl+)
      000AB8 47               [ 4] 1969 	ld	b, a
      000AB9 7E               [ 8] 1970 	ld	a, (hl)
                                   1971 ;/home/javier/Escritorio/gb_development/gbdk/include/gb/metasprites.h:281: __current_metasprite = metasprite;
      000ABA 21r00r00         [12] 1972 	ld	hl, #___current_metasprite
      000ABD 70               [ 8] 1973 	ld	(hl), b
      000ABE 23               [ 8] 1974 	inc	hl
      000ABF 77               [ 8] 1975 	ld	(hl), a
                                   1976 ;/home/javier/Escritorio/gb_development/gbdk/include/gb/metasprites.h:282: __current_base_tile = base_tile;
      000AC0 21r00r00         [12] 1977 	ld	hl, #___current_base_tile
      000AC3 36 00            [12] 1978 	ld	(hl), #0x00
                                   1979 ;/home/javier/Escritorio/gb_development/gbdk/include/gb/metasprites.h:283: __current_base_prop = 0;
      000AC5 21r00r00         [12] 1980 	ld	hl, #___current_base_prop
      000AC8 36 00            [12] 1981 	ld	(hl), #0x00
                                   1982 ;/home/javier/Escritorio/gb_development/gbdk/include/gb/metasprites.h:284: return __move_metasprite_hvflip(base_sprite, ((y - ((LCDC_REG & LCDCF_OBJ16) ? 16u : 8u)) << 8) | (uint8_t)(x - 8));
      000ACA F8 01            [12] 1983 	ldhl	sp,	#1
      000ACC 71               [ 8] 1984 	ld	(hl), c
      000ACD F0r00            [12] 1985 	ldh	a, (_LCDC_REG + 0)
      000ACF CB 57            [ 8] 1986 	bit	2, a
      000AD1 28 09            [12] 1987 	jr	Z, 00351$
      000AD3 F8 02            [12] 1988 	ldhl	sp,	#2
      000AD5 3E 10            [ 8] 1989 	ld	a, #0x10
      000AD7 22               [ 8] 1990 	ld	(hl+), a
      000AD8 AF               [ 4] 1991 	xor	a, a
      000AD9 77               [ 8] 1992 	ld	(hl), a
      000ADA 18 07            [12] 1993 	jr	00352$
      000ADC                       1994 00351$:
      000ADC F8 02            [12] 1995 	ldhl	sp,	#2
      000ADE 3E 08            [ 8] 1996 	ld	a, #0x08
      000AE0 22               [ 8] 1997 	ld	(hl+), a
      000AE1 AF               [ 4] 1998 	xor	a, a
      000AE2 77               [ 8] 1999 	ld	(hl), a
      000AE3                       2000 00352$:
      000AE3 F8 01            [12] 2001 	ldhl	sp,	#1
      000AE5 2A               [ 8] 2002 	ld	a, (hl+)
      000AE6 5F               [ 4] 2003 	ld	e, a
      000AE7 2A               [ 8] 2004 	ld	a,	(hl+)
      000AE8 66               [ 8] 2005 	ld	h, (hl)
      000AE9 6F               [ 4] 2006 	ld	l, a
      000AEA 7B               [ 4] 2007 	ld	a, e
      000AEB 95               [ 4] 2008 	sub	a, l
      000AEC 47               [ 4] 2009 	ld	b, a
      000AED 0E 00            [ 8] 2010 	ld	c, #0x00
      000AEF F8 00            [12] 2011 	ldhl	sp,	#0
      000AF1 7E               [ 8] 2012 	ld	a, (hl)
      000AF2 C6 F8            [ 8] 2013 	add	a, #0xf8
      000AF4 B1               [ 4] 2014 	or	a, c
      000AF5 5F               [ 4] 2015 	ld	e, a
      000AF6 50               [ 4] 2016 	ld	d, b
      000AF7 AF               [ 4] 2017 	xor	a, a
      000AF8 CDr00r00         [24] 2018 	call	___move_metasprite_hvflip
                                   2019 ;src/director.c:327: break;
      000AFB 18 5C            [12] 2020 	jr	00211$
                                   2021 ;src/director.c:328: case 0x02:
      000AFD                       2022 00209$:
                                   2023 ;src/director.c:330: move_metasprite_hflip(fall_metasprites[0], TILE_NUM_START, SPR_NUM_START, (uint8_t)SUB_TO_PX(player_x), player_y + 16);
      000AFD F8 03            [12] 2024 	ldhl	sp,	#3
      000AFF 46               [ 8] 2025 	ld	b, (hl)
      000B00 21r01r00         [12] 2026 	ld	hl, #_player_x + 1
      000B03 4E               [ 8] 2027 	ld	c, (hl)
      000B04 21r01r00         [12] 2028 	ld	hl, #_fall_metasprites + 1
      000B07 3A               [ 8] 2029 	ld	a,	(hl-)
                                   2030 ;	spillPairReg hl
                                   2031 ;/home/javier/Escritorio/gb_development/gbdk/include/gb/metasprites.h:241: __current_metasprite = metasprite;
      000B08 5E               [ 8] 2032 	ld	e, (hl)
      000B09 57               [ 4] 2033 	ld	d, a
      000B0A 21r00r00         [12] 2034 	ld	hl, #___current_metasprite
      000B0D 7B               [ 4] 2035 	ld	a, e
      000B0E 22               [ 8] 2036 	ld	(hl+), a
      000B0F 72               [ 8] 2037 	ld	(hl), d
                                   2038 ;/home/javier/Escritorio/gb_development/gbdk/include/gb/metasprites.h:242: __current_base_tile = base_tile;
      000B10 21r00r00         [12] 2039 	ld	hl, #___current_base_tile
      000B13 36 00            [12] 2040 	ld	(hl), #0x00
                                   2041 ;/home/javier/Escritorio/gb_development/gbdk/include/gb/metasprites.h:243: __current_base_prop = 0;
      000B15 21r00r00         [12] 2042 	ld	hl, #___current_base_prop
      000B18 36 00            [12] 2043 	ld	(hl), #0x00
                                   2044 ;/home/javier/Escritorio/gb_development/gbdk/include/gb/metasprites.h:244: return __move_metasprite_hflip(base_sprite, ((y - ((LCDC_REG & LCDCF_OBJ16) ? 16u : 8u)) << 8) | x);
      000B1A F0r00            [12] 2045 	ldh	a, (_LCDC_REG + 0)
      000B1C CB 57            [ 8] 2046 	bit	2, a
      000B1E 28 05            [12] 2047 	jr	Z, 00353$
      000B20 11 10 00         [12] 2048 	ld	de, #0x0010
      000B23 18 03            [12] 2049 	jr	00354$
      000B25                       2050 00353$:
      000B25 11 08 00         [12] 2051 	ld	de, #0x0008
      000B28                       2052 00354$:
      000B28 78               [ 4] 2053 	ld	a, b
      000B29 93               [ 4] 2054 	sub	a, e
      000B2A 6F               [ 4] 2055 	ld	l, a
                                   2056 ;	spillPairReg hl
                                   2057 ;	spillPairReg hl
      000B2B AF               [ 4] 2058 	xor	a, a
      000B2C B1               [ 4] 2059 	or	a, c
      000B2D 5F               [ 4] 2060 	ld	e, a
      000B2E 55               [ 4] 2061 	ld	d, l
      000B2F AF               [ 4] 2062 	xor	a, a
      000B30 CDr00r00         [24] 2063 	call	___move_metasprite_hflip
                                   2064 ;src/director.c:331: break;
      000B33 18 24            [12] 2065 	jr	00211$
                                   2066 ;src/director.c:332: case 0x03:
      000B35                       2067 00210$:
                                   2068 ;src/director.c:334: move_metasprite(fall_metasprites[0], TILE_NUM_START, SPR_NUM_START, (uint8_t)SUB_TO_PX(player_x), player_y);
      000B35 21r01r00         [12] 2069 	ld	hl, #_player_x + 1
      000B38 4E               [ 8] 2070 	ld	c, (hl)
      000B39 21r00r00         [12] 2071 	ld	hl, #_fall_metasprites
      000B3C 2A               [ 8] 2072 	ld	a, (hl+)
      000B3D 47               [ 4] 2073 	ld	b, a
      000B3E 7E               [ 8] 2074 	ld	a, (hl)
                                   2075 ;/home/javier/Escritorio/gb_development/gbdk/include/gb/metasprites.h:160: __current_metasprite = metasprite;
      000B3F 21r00r00         [12] 2076 	ld	hl, #___current_metasprite
      000B42 70               [ 8] 2077 	ld	(hl), b
      000B43 23               [ 8] 2078 	inc	hl
      000B44 77               [ 8] 2079 	ld	(hl), a
                                   2080 ;/home/javier/Escritorio/gb_development/gbdk/include/gb/metasprites.h:161: __current_base_tile = base_tile;
      000B45 21r00r00         [12] 2081 	ld	hl, #___current_base_tile
      000B48 36 00            [12] 2082 	ld	(hl), #0x00
                                   2083 ;/home/javier/Escritorio/gb_development/gbdk/include/gb/metasprites.h:162: __current_base_prop = 0;
      000B4A 21r00r00         [12] 2084 	ld	hl, #___current_base_prop
      000B4D 36 00            [12] 2085 	ld	(hl), #0x00
                                   2086 ;/home/javier/Escritorio/gb_development/gbdk/include/gb/metasprites.h:163: return __move_metasprite(base_sprite, (y << 8) | (uint8_t)x);
      000B4F F8 01            [12] 2087 	ldhl	sp,	#1
      000B51 2A               [ 8] 2088 	ld	a, (hl+)
      000B52 B1               [ 4] 2089 	or	a, c
      000B53 56               [ 8] 2090 	ld	d, (hl)
      000B54 5F               [ 4] 2091 	ld	e, a
      000B55 AF               [ 4] 2092 	xor	a, a
      000B56 CDr00r00         [24] 2093 	call	___move_metasprite
                                   2094 ;src/director.c:336: }
      000B59                       2095 00211$:
                                   2096 ;src/director.c:337: finish_frame(1)
      000B59 3E 01            [ 8] 2097 	ld	a, #0x01
      000B5B CDrC7r0D         [24] 2098 	call	_finish_frame_inner
      000B5E CB 47            [ 8] 2099 	bit	0,a
      000B60 C2rC4r0D         [16] 2100 	jp	NZ,00349$
                                   2101 ;src/director.c:307: for (i = 0; i < 60; i++)
      000B63 21r00r00         [12] 2102 	ld	hl, #_i
      000B66 34               [12] 2103 	inc	(hl)
      000B67 7E               [ 8] 2104 	ld	a, (hl)
      000B68 D6 3C            [ 8] 2105 	sub	a, #0x3c
      000B6A DAr1Cr0A         [16] 2106 	jp	C, 00335$
                                   2107 ;src/director.c:340: hide_metasprite(fall_metasprites[0], SPR_NUM_START);
      000B6D 21r00r00         [12] 2108 	ld	hl, #_fall_metasprites
      000B70 2A               [ 8] 2109 	ld	a, (hl+)
      000B71 4F               [ 4] 2110 	ld	c, a
      000B72 7E               [ 8] 2111 	ld	a, (hl)
                                   2112 ;/home/javier/Escritorio/gb_development/gbdk/include/gb/metasprites.h:297: __current_metasprite = metasprite;
      000B73 21r00r00         [12] 2113 	ld	hl, #___current_metasprite
      000B76 71               [ 8] 2114 	ld	(hl), c
      000B77 23               [ 8] 2115 	inc	hl
      000B78 77               [ 8] 2116 	ld	(hl), a
                                   2117 ;/home/javier/Escritorio/gb_development/gbdk/include/gb/metasprites.h:298: __hide_metasprite(base_sprite);
      000B79 AF               [ 4] 2118 	xor	a, a
      000B7A CDr00r00         [24] 2119 	call	___hide_metasprite
                                   2120 ;src/director.c:341: player_y += 12;
      000B7D 21r00r00         [12] 2121 	ld	hl, #_player_y
      000B80 7E               [ 8] 2122 	ld	a, (hl)
      000B81 C6 0C            [ 8] 2123 	add	a, #0x0c
      000B83 77               [ 8] 2124 	ld	(hl), a
                                   2125 ;src/director.c:344: screen_shake(20, fallen);
      000B84 11r00r00         [12] 2126 	ld	de, #_fallen
      000B87 3E 14            [ 8] 2127 	ld	a, #0x14
      000B89 CDr09r0E         [24] 2128 	call	_screen_shake
                                   2129 ;src/director.c:346: finish_frame(70)
      000B8C 3E 46            [ 8] 2130 	ld	a, #0x46
      000B8E CDrC7r0D         [24] 2131 	call	_finish_frame_inner
      000B91 CB 47            [ 8] 2132 	bit	0,a
      000B93 C2rC4r0D         [16] 2133 	jp	NZ,00349$
                                   2134 ;src/director.c:350: for (i = 0; i < 60; i++){
      000B96 21r00r00         [12] 2135 	ld	hl, #_i
      000B99 36 00            [12] 2136 	ld	(hl), #0x00
      000B9B 0E 0A            [ 8] 2137 	ld	c, #0x0a
      000B9D                       2138 00337$:
                                   2139 ;src/director.c:351: if (frame_counter & 0x01)
      000B9D FAr00r00         [16] 2140 	ld	a, (#_frame_counter)
      000BA0 0F               [ 4] 2141 	rrca
      000BA1 30 54            [12] 2142 	jr	NC, 00218$
                                   2143 ;src/director.c:353: player_y -= (y_speed >> 2);
      000BA3 41               [ 4] 2144 	ld	b, c
      000BA4 CB 28            [ 8] 2145 	sra	b
      000BA6 CB 28            [ 8] 2146 	sra	b
      000BA8 21r00r00         [12] 2147 	ld	hl, #_player_y
      000BAB 7E               [ 8] 2148 	ld	a, (hl)
      000BAC 90               [ 4] 2149 	sub	a, b
      000BAD 77               [ 8] 2150 	ld	(hl), a
                                   2151 ;src/director.c:354: move_metasprite(y_speed > 0?jump_metasprites[0]:fall_metasprites[0], TILE_NUM_START, SPR_NUM_START, (uint8_t)SUB_TO_PX(player_x), player_y);
      000BAE 7E               [ 8] 2152 	ld	a, (hl)
      000BAF F8 04            [12] 2153 	ldhl	sp,	#4
      000BB1 77               [ 8] 2154 	ld	(hl), a
      000BB2 21r01r00         [12] 2155 	ld	hl, #_player_x + 1
      000BB5 46               [ 8] 2156 	ld	b, (hl)
      000BB6 59               [ 4] 2157 	ld	e, c
      000BB7 AF               [ 4] 2158 	xor	a, a
      000BB8 57               [ 4] 2159 	ld	d, a
      000BB9 91               [ 4] 2160 	sub	a, c
      000BBA CB 7B            [ 8] 2161 	bit	7, e
      000BBC 28 07            [12] 2162 	jr	Z, 01133$
      000BBE CB 7A            [ 8] 2163 	bit	7, d
      000BC0 20 08            [12] 2164 	jr	NZ, 01134$
      000BC2 BF               [ 4] 2165 	cp	a, a
      000BC3 18 05            [12] 2166 	jr	01134$
      000BC5                       2167 01133$:
      000BC5 CB 7A            [ 8] 2168 	bit	7, d
      000BC7 28 01            [12] 2169 	jr	Z, 01134$
      000BC9 37               [ 4] 2170 	scf
      000BCA                       2171 01134$:
      000BCA 30 07            [12] 2172 	jr	NC, 00355$
      000BCC 21r01r00         [12] 2173 	ld	hl, #_jump_metasprites + 1
      000BCF 3A               [ 8] 2174 	ld	a,	(hl-)
      000BD0 6E               [ 8] 2175 	ld	l, (hl)
                                   2176 ;	spillPairReg hl
      000BD1 18 05            [12] 2177 	jr	00356$
      000BD3                       2178 00355$:
      000BD3 21r01r00         [12] 2179 	ld	hl, #_fall_metasprites + 1
      000BD6 3A               [ 8] 2180 	ld	a,	(hl-)
      000BD7 6E               [ 8] 2181 	ld	l, (hl)
                                   2182 ;	spillPairReg hl
      000BD8                       2183 00356$:
      000BD8 5D               [ 4] 2184 	ld	e, l
      000BD9 57               [ 4] 2185 	ld	d, a
                                   2186 ;/home/javier/Escritorio/gb_development/gbdk/include/gb/metasprites.h:160: __current_metasprite = metasprite;
      000BDA 21r00r00         [12] 2187 	ld	hl, #___current_metasprite
      000BDD 7B               [ 4] 2188 	ld	a, e
      000BDE 22               [ 8] 2189 	ld	(hl+), a
      000BDF 72               [ 8] 2190 	ld	(hl), d
                                   2191 ;/home/javier/Escritorio/gb_development/gbdk/include/gb/metasprites.h:161: __current_base_tile = base_tile;
      000BE0 21r00r00         [12] 2192 	ld	hl, #___current_base_tile
      000BE3 36 00            [12] 2193 	ld	(hl), #0x00
                                   2194 ;/home/javier/Escritorio/gb_development/gbdk/include/gb/metasprites.h:162: __current_base_prop = 0;
      000BE5 21r00r00         [12] 2195 	ld	hl, #___current_base_prop
      000BE8 36 00            [12] 2196 	ld	(hl), #0x00
                                   2197 ;/home/javier/Escritorio/gb_development/gbdk/include/gb/metasprites.h:163: return __move_metasprite(base_sprite, (y << 8) | (uint8_t)x);
      000BEA F8 04            [12] 2198 	ldhl	sp,	#4
      000BEC 56               [ 8] 2199 	ld	d, (hl)
                                   2200 ;	spillPairReg hl
                                   2201 ;	spillPairReg hl
                                   2202 ;	spillPairReg hl
                                   2203 ;	spillPairReg hl
      000BED AF               [ 4] 2204 	xor	a, a
      000BEE 68               [ 4] 2205 	ld	l, b
      000BEF B5               [ 4] 2206 	or	a, l
      000BF0 5F               [ 4] 2207 	ld	e, a
      000BF1 C5               [16] 2208 	push	bc
      000BF2 AF               [ 4] 2209 	xor	a, a
      000BF3 CDr00r00         [24] 2210 	call	___move_metasprite
      000BF6 C1               [12] 2211 	pop	bc
                                   2212 ;src/director.c:354: move_metasprite(y_speed > 0?jump_metasprites[0]:fall_metasprites[0], TILE_NUM_START, SPR_NUM_START, (uint8_t)SUB_TO_PX(player_x), player_y);
      000BF7                       2213 00218$:
                                   2214 ;src/director.c:356: if ((frame_counter & 0x03) == 0x02)
      000BF7 FAr00r00         [16] 2215 	ld	a, (#_frame_counter)
      000BFA E6 03            [ 8] 2216 	and	a, #0x03
      000BFC D6 02            [ 8] 2217 	sub	a, #0x02
      000BFE 20 01            [12] 2218 	jr	NZ, 00220$
                                   2219 ;src/director.c:358: y_speed--;
      000C00 0D               [ 4] 2220 	dec	c
      000C01                       2221 00220$:
                                   2222 ;src/director.c:360: finish_frame(1)
      000C01 C5               [16] 2223 	push	bc
      000C02 3E 01            [ 8] 2224 	ld	a, #0x01
      000C04 CDrC7r0D         [24] 2225 	call	_finish_frame_inner
      000C07 5F               [ 4] 2226 	ld	e, a
      000C08 C1               [12] 2227 	pop	bc
      000C09 CB 43            [ 8] 2228 	bit	0, e
      000C0B C2rC4r0D         [16] 2229 	jp	NZ,00349$
                                   2230 ;src/director.c:350: for (i = 0; i < 60; i++){
      000C0E 21r00r00         [12] 2231 	ld	hl, #_i
      000C11 34               [12] 2232 	inc	(hl)
      000C12 7E               [ 8] 2233 	ld	a, (hl)
      000C13 D6 3C            [ 8] 2234 	sub	a, #0x3c
      000C15 38 86            [12] 2235 	jr	C, 00337$
                                   2236 ;src/director.c:362: move_metasprite(idle_metasprites[0], TILE_NUM_START, SPR_NUM_START, (uint8_t)SUB_TO_PX(player_x), player_y);
      000C17 21r00r00         [12] 2237 	ld	hl, #_player_y
      000C1A 46               [ 8] 2238 	ld	b, (hl)
      000C1B 21r01r00         [12] 2239 	ld	hl, #_player_x + 1
      000C1E 4E               [ 8] 2240 	ld	c, (hl)
      000C1F 21r01r00         [12] 2241 	ld	hl, #_idle_metasprites + 1
      000C22 3A               [ 8] 2242 	ld	a,	(hl-)
                                   2243 ;	spillPairReg hl
                                   2244 ;/home/javier/Escritorio/gb_development/gbdk/include/gb/metasprites.h:160: __current_metasprite = metasprite;
      000C23 5E               [ 8] 2245 	ld	e, (hl)
      000C24 57               [ 4] 2246 	ld	d, a
      000C25 21r00r00         [12] 2247 	ld	hl, #___current_metasprite
      000C28 7B               [ 4] 2248 	ld	a, e
      000C29 22               [ 8] 2249 	ld	(hl+), a
      000C2A 72               [ 8] 2250 	ld	(hl), d
                                   2251 ;/home/javier/Escritorio/gb_development/gbdk/include/gb/metasprites.h:161: __current_base_tile = base_tile;
      000C2B 21r00r00         [12] 2252 	ld	hl, #___current_base_tile
      000C2E 36 00            [12] 2253 	ld	(hl), #0x00
                                   2254 ;/home/javier/Escritorio/gb_development/gbdk/include/gb/metasprites.h:162: __current_base_prop = 0;
      000C30 21r00r00         [12] 2255 	ld	hl, #___current_base_prop
      000C33 36 00            [12] 2256 	ld	(hl), #0x00
                                   2257 ;/home/javier/Escritorio/gb_development/gbdk/include/gb/metasprites.h:163: return __move_metasprite(base_sprite, (y << 8) | (uint8_t)x);
      000C35 50               [ 4] 2258 	ld	d, b
      000C36 AF               [ 4] 2259 	xor	a, a
      000C37 B1               [ 4] 2260 	or	a, c
      000C38 5F               [ 4] 2261 	ld	e, a
      000C39 AF               [ 4] 2262 	xor	a, a
      000C3A CDr00r00         [24] 2263 	call	___move_metasprite
                                   2264 ;src/director.c:363: finish_frame(35)
      000C3D 3E 23            [ 8] 2265 	ld	a, #0x23
      000C3F CDrC7r0D         [24] 2266 	call	_finish_frame_inner
      000C42 CB 47            [ 8] 2267 	bit	0,a
      000C44 C2rC4r0D         [16] 2268 	jp	NZ,00349$
                                   2269 ;src/director.c:364: current_state = PLAYER_STATE_RUNNING;
      000C47 21r00r00         [12] 2270 	ld	hl, #_current_state
      000C4A 36 01            [12] 2271 	ld	(hl), #0x01
                                   2272 ;src/director.c:365: is_facing_right = false;
      000C4C 21r00r00         [12] 2273 	ld	hl, #_is_facing_right
      000C4F 36 00            [12] 2274 	ld	(hl), #0x00
                                   2275 ;src/director.c:366: for (i = 0; i < 36; i++)
      000C51 21r00r00         [12] 2276 	ld	hl, #_i
      000C54 36 00            [12] 2277 	ld	(hl), #0x00
      000C56                       2278 00339$:
                                   2279 ;src/director.c:368: if (frame_counter & 0x01)
      000C56 FAr00r00         [16] 2280 	ld	a, (#_frame_counter)
      000C59 0F               [ 4] 2281 	rrca
      000C5A 30 0C            [12] 2282 	jr	NC, 00227$
                                   2283 ;src/director.c:370: player_x -= 1<<8;
      000C5C 21r00r00         [12] 2284 	ld	hl, #_player_x
      000C5F 2A               [ 8] 2285 	ld	a, (hl+)
      000C60 46               [ 8] 2286 	ld	b, (hl)
      000C61 2B               [ 8] 2287 	dec	hl
      000C62 4F               [ 4] 2288 	ld	c,a
      000C63 78               [ 4] 2289 	ld	a,b
      000C64 3D               [ 4] 2290 	dec	a
      000C65 71               [ 8] 2291 	ld	(hl), c
      000C66 23               [ 8] 2292 	inc	hl
      000C67 77               [ 8] 2293 	ld	(hl), a
      000C68                       2294 00227$:
                                   2295 ;src/director.c:373: finish_frame_with_animation(1)
      000C68 3E 01            [ 8] 2296 	ld	a, #0x01
      000C6A CDrE4r0D         [24] 2297 	call	_finish_frame_with_animation_inner
      000C6D CB 47            [ 8] 2298 	bit	0,a
      000C6F C2rC4r0D         [16] 2299 	jp	NZ,00349$
                                   2300 ;src/director.c:366: for (i = 0; i < 36; i++)
      000C72 21r00r00         [12] 2301 	ld	hl, #_i
      000C75 34               [12] 2302 	inc	(hl)
      000C76 7E               [ 8] 2303 	ld	a, (hl)
      000C77 D6 24            [ 8] 2304 	sub	a, #0x24
      000C79 38 DB            [12] 2305 	jr	C, 00339$
                                   2306 ;src/director.c:375: current_state = PLAYER_STATE_IDLE;
      000C7B 21r00r00         [12] 2307 	ld	hl, #_current_state
      000C7E 36 00            [12] 2308 	ld	(hl), #0x00
                                   2309 ;src/director.c:376: finish_frame_with_animation(20)
      000C80 3E 14            [ 8] 2310 	ld	a, #0x14
      000C82 CDrE4r0D         [24] 2311 	call	_finish_frame_with_animation_inner
      000C85 CB 47            [ 8] 2312 	bit	0,a
      000C87 C2rC4r0D         [16] 2313 	jp	NZ,00349$
                                   2314 ;src/director.c:377: is_facing_right = true;
      000C8A 21r00r00         [12] 2315 	ld	hl, #_is_facing_right
      000C8D 36 01            [12] 2316 	ld	(hl), #0x01
                                   2317 ;src/director.c:378: finish_frame_with_animation(10)
      000C8F 3E 0A            [ 8] 2318 	ld	a, #0x0a
      000C91 CDrE4r0D         [24] 2319 	call	_finish_frame_with_animation_inner
      000C94 CB 47            [ 8] 2320 	bit	0,a
      000C96 C2rC4r0D         [16] 2321 	jp	NZ,00349$
                                   2322 ;src/director.c:381: move_metasprite(look_up, TILE_NUM_START, SPR_NUM_START, (uint8_t)SUB_TO_PX(player_x), player_y);
      000C99 21r00r00         [12] 2323 	ld	hl, #_player_y
      000C9C 4E               [ 8] 2324 	ld	c, (hl)
      000C9D 21r01r00         [12] 2325 	ld	hl, #_player_x + 1
      000CA0 5E               [ 8] 2326 	ld	e, (hl)
                                   2327 ;/home/javier/Escritorio/gb_development/gbdk/include/gb/metasprites.h:160: __current_metasprite = metasprite;
      000CA1 21r00r00         [12] 2328 	ld	hl, #___current_metasprite
      000CA4 3Er00            [ 8] 2329 	ld	a, #<(_look_up)
      000CA6 22               [ 8] 2330 	ld	(hl+), a
      000CA7 36s00            [12] 2331 	ld	(hl), #>(_look_up)
                                   2332 ;/home/javier/Escritorio/gb_development/gbdk/include/gb/metasprites.h:161: __current_base_tile = base_tile;
      000CA9 21r00r00         [12] 2333 	ld	hl, #___current_base_tile
      000CAC 36 00            [12] 2334 	ld	(hl), #0x00
                                   2335 ;/home/javier/Escritorio/gb_development/gbdk/include/gb/metasprites.h:162: __current_base_prop = 0;
      000CAE 21r00r00         [12] 2336 	ld	hl, #___current_base_prop
      000CB1 36 00            [12] 2337 	ld	(hl), #0x00
                                   2338 ;/home/javier/Escritorio/gb_development/gbdk/include/gb/metasprites.h:163: return __move_metasprite(base_sprite, (y << 8) | (uint8_t)x);
      000CB3 AF               [ 4] 2339 	xor	a, a
      000CB4 B3               [ 4] 2340 	or	a, e
      000CB5 5F               [ 4] 2341 	ld	e, a
      000CB6 51               [ 4] 2342 	ld	d, c
      000CB7 AF               [ 4] 2343 	xor	a, a
      000CB8 CDr00r00         [24] 2344 	call	___move_metasprite
                                   2345 ;src/director.c:383: current_camera_y = camera_y;
      000CBB FAr00r00         [16] 2346 	ld	a, (#_camera_y)
      000CBE 21r01r00         [12] 2347 	ld	hl, #_current_camera_y
      000CC1 77               [ 8] 2348 	ld	(hl), a
                                   2349 ;src/director.c:384: prev_camera_y = current_camera_y;
      000CC2 7E               [ 8] 2350 	ld	a, (hl)
      000CC3 EAr02r00         [16] 2351 	ld	(#_prev_camera_y),a
                                   2352 ;src/director.c:385: is_generated = false;
      000CC6 21r03r00         [12] 2353 	ld	hl, #_is_generated
      000CC9 36 00            [12] 2354 	ld	(hl), #0x00
                                   2355 ;src/director.c:386: for (i = 1; i < 64; i++)
      000CCB 21r00r00         [12] 2356 	ld	hl, #_i
      000CCE 36 01            [12] 2357 	ld	(hl), #0x01
      000CD0                       2358 00341$:
                                   2359 ;src/director.c:388: pan_up(i>>2);
      000CD0 21r00r00         [12] 2360 	ld	hl, #_i
      000CD3 4E               [ 8] 2361 	ld	c, (hl)
      000CD4 CB 39            [ 8] 2362 	srl	c
      000CD6 CB 39            [ 8] 2363 	srl	c
      000CD8 79               [ 4] 2364 	ld	a, c
      000CD9 CDrA0r0E         [24] 2365 	call	_pan_up
                                   2366 ;src/director.c:389: finish_frame(1)
      000CDC 3E 01            [ 8] 2367 	ld	a, #0x01
      000CDE CDrC7r0D         [24] 2368 	call	_finish_frame_inner
      000CE1 CB 47            [ 8] 2369 	bit	0,a
      000CE3 C2rC4r0D         [16] 2370 	jp	NZ,00349$
                                   2371 ;src/director.c:386: for (i = 1; i < 64; i++)
      000CE6 21r00r00         [12] 2372 	ld	hl, #_i
      000CE9 34               [12] 2373 	inc	(hl)
      000CEA 7E               [ 8] 2374 	ld	a, (hl)
      000CEB D6 40            [ 8] 2375 	sub	a, #0x40
      000CED 38 E1            [12] 2376 	jr	C, 00341$
                                   2377 ;src/director.c:391: for (i = 1; i < 40; i++)
      000CEF 36 01            [12] 2378 	ld	(hl), #0x01
      000CF1                       2379 00343$:
                                   2380 ;src/director.c:393: pan_up(16);
      000CF1 3E 10            [ 8] 2381 	ld	a, #0x10
      000CF3 CDrA0r0E         [24] 2382 	call	_pan_up
                                   2383 ;src/director.c:394: finish_frame(1)
      000CF6 3E 01            [ 8] 2384 	ld	a, #0x01
      000CF8 CDrC7r0D         [24] 2385 	call	_finish_frame_inner
      000CFB CB 47            [ 8] 2386 	bit	0,a
      000CFD C2rC4r0D         [16] 2387 	jp	NZ,00349$
                                   2388 ;src/director.c:391: for (i = 1; i < 40; i++)
      000D00 21r00r00         [12] 2389 	ld	hl, #_i
      000D03 34               [12] 2390 	inc	(hl)
      000D04 7E               [ 8] 2391 	ld	a, (hl)
      000D05 D6 28            [ 8] 2392 	sub	a, #0x28
      000D07 38 E8            [12] 2393 	jr	C, 00343$
                                   2394 ;src/director.c:397: pan_cloud();
      000D09 CDr8Ar0F         [24] 2395 	call	_pan_cloud
                                   2396 ;src/director.c:399: for (i = 64; i > 3; i--)
      000D0C 21r00r00         [12] 2397 	ld	hl, #_i
      000D0F 36 40            [12] 2398 	ld	(hl), #0x40
      000D11                       2399 00345$:
                                   2400 ;src/director.c:401: if (i == 20)
      000D11 FAr00r00         [16] 2401 	ld	a, (#_i)
      000D14 D6 14            [ 8] 2402 	sub	a, #0x14
      000D16 20 11            [12] 2403 	jr	NZ, 00242$
                                   2404 ;src/director.c:403: set_bkg_tiles(15, 25, 4, 5, open_window_map);
      000D18 11rAFr00         [12] 2405 	ld	de, #_open_window_map
      000D1B D5               [16] 2406 	push	de
      000D1C 21 04 05         [12] 2407 	ld	hl, #0x504
      000D1F E5               [16] 2408 	push	hl
      000D20 21 0F 19         [12] 2409 	ld	hl, #0x190f
      000D23 E5               [16] 2410 	push	hl
      000D24 CDr00r00         [24] 2411 	call	_set_bkg_tiles
      000D27 E8 06            [16] 2412 	add	sp, #6
      000D29                       2413 00242$:
                                   2414 ;src/director.c:406: pan_up(i>>2);
      000D29 21r00r00         [12] 2415 	ld	hl, #_i
      000D2C 4E               [ 8] 2416 	ld	c, (hl)
      000D2D CB 39            [ 8] 2417 	srl	c
      000D2F CB 39            [ 8] 2418 	srl	c
      000D31 79               [ 4] 2419 	ld	a, c
      000D32 CDrA0r0E         [24] 2420 	call	_pan_up
                                   2421 ;src/director.c:407: finish_frame(1)
      000D35 3E 01            [ 8] 2422 	ld	a, #0x01
      000D37 CDrC7r0D         [24] 2423 	call	_finish_frame_inner
      000D3A CB 47            [ 8] 2424 	bit	0,a
      000D3C C2rC4r0D         [16] 2425 	jp	NZ,00349$
                                   2426 ;src/director.c:399: for (i = 64; i > 3; i--)
      000D3F 21r00r00         [12] 2427 	ld	hl, #_i
      000D42 35               [12] 2428 	dec	(hl)
      000D43 3E 03            [ 8] 2429 	ld	a, #0x03
      000D45 96               [ 8] 2430 	sub	a, (hl)
      000D46 38 C9            [12] 2431 	jr	C, 00345$
                                   2432 ;src/director.c:409: fill_bkg_rect(1, 16, 20, 7, 0);
      000D48 AF               [ 4] 2433 	xor	a, a
      000D49 67               [ 4] 2434 	ld	h, a
      000D4A 2E 07            [ 8] 2435 	ld	l, #0x07
      000D4C E5               [16] 2436 	push	hl
      000D4D 21 10 14         [12] 2437 	ld	hl, #0x1410
      000D50 E5               [16] 2438 	push	hl
      000D51 3E 01            [ 8] 2439 	ld	a, #0x01
      000D53 F5               [16] 2440 	push	af
      000D54 33               [ 8] 2441 	inc	sp
      000D55 CDr00r00         [24] 2442 	call	_fill_bkg_rect
      000D58 E8 05            [16] 2443 	add	sp, #5
                                   2444 ;src/director.c:410: for (i = 1; i < 60; i++)
      000D5A 21r00r00         [12] 2445 	ld	hl, #_i
      000D5D 36 01            [12] 2446 	ld	(hl), #0x01
      000D5F                       2447 00347$:
                                   2448 ;src/director.c:412: if (i & 0x01)
      000D5F FAr00r00         [16] 2449 	ld	a, (#_i)
      000D62 0F               [ 4] 2450 	rrca
      000D63 30 05            [12] 2451 	jr	NC, 00247$
                                   2452 ;src/director.c:414: pan_up(1);
      000D65 3E 01            [ 8] 2453 	ld	a, #0x01
      000D67 CDrA0r0E         [24] 2454 	call	_pan_up
      000D6A                       2455 00247$:
                                   2456 ;src/director.c:416: finish_frame(1)
      000D6A 3E 01            [ 8] 2457 	ld	a, #0x01
      000D6C CDrC7r0D         [24] 2458 	call	_finish_frame_inner
      000D6F CB 47            [ 8] 2459 	bit	0,a
      000D71 20 51            [12] 2460 	jr	NZ, 00349$
                                   2461 ;src/director.c:410: for (i = 1; i < 60; i++)
      000D73 21r00r00         [12] 2462 	ld	hl, #_i
      000D76 34               [12] 2463 	inc	(hl)
      000D77 7E               [ 8] 2464 	ld	a, (hl)
      000D78 D6 3C            [ 8] 2465 	sub	a, #0x3c
      000D7A 38 E3            [12] 2466 	jr	C, 00347$
                                   2467 ;src/director.c:419: finish_frame(200)
      000D7C 3E C8            [ 8] 2468 	ld	a, #0xc8
      000D7E CDrC7r0D         [24] 2469 	call	_finish_frame_inner
      000D81 CB 47            [ 8] 2470 	bit	0,a
      000D83 20 3F            [12] 2471 	jr	NZ, 00349$
                                   2472 ;src/director.c:421: i = 0;
      000D85 21r00r00         [12] 2473 	ld	hl, #_i
      000D88 36 00            [12] 2474 	ld	(hl), #0x00
                                   2475 ;src/director.c:422: while (1)
      000D8A 01r00r00         [12] 2476 	ld	bc, #_button_2+0
      000D8D                       2477 00256$:
                                   2478 ;src/director.c:424: move_metasprite((i & 0x01) ? button_1 : button_2, 0, 20, 150, 134);
      000D8D FAr00r00         [16] 2479 	ld	a, (#_i)
      000D90 0F               [ 4] 2480 	rrca
      000D91 30 05            [12] 2481 	jr	NC, 00357$
      000D93 11r00r00         [12] 2482 	ld	de, #_button_1
      000D96 18 02            [12] 2483 	jr	00358$
      000D98                       2484 00357$:
      000D98 59               [ 4] 2485 	ld	e, c
      000D99 50               [ 4] 2486 	ld	d, b
      000D9A                       2487 00358$:
                                   2488 ;/home/javier/Escritorio/gb_development/gbdk/include/gb/metasprites.h:160: __current_metasprite = metasprite;
      000D9A 21r00r00         [12] 2489 	ld	hl, #___current_metasprite
      000D9D 7B               [ 4] 2490 	ld	a, e
      000D9E 22               [ 8] 2491 	ld	(hl+), a
      000D9F 72               [ 8] 2492 	ld	(hl), d
                                   2493 ;/home/javier/Escritorio/gb_development/gbdk/include/gb/metasprites.h:161: __current_base_tile = base_tile;
      000DA0 21r00r00         [12] 2494 	ld	hl, #___current_base_tile
      000DA3 36 00            [12] 2495 	ld	(hl), #0x00
                                   2496 ;/home/javier/Escritorio/gb_development/gbdk/include/gb/metasprites.h:162: __current_base_prop = 0;
      000DA5 21r00r00         [12] 2497 	ld	hl, #___current_base_prop
      000DA8 36 00            [12] 2498 	ld	(hl), #0x00
                                   2499 ;/home/javier/Escritorio/gb_development/gbdk/include/gb/metasprites.h:163: return __move_metasprite(base_sprite, (y << 8) | (uint8_t)x);
      000DAA C5               [16] 2500 	push	bc
      000DAB 11 96 86         [12] 2501 	ld	de, #0x8696
      000DAE 3E 14            [ 8] 2502 	ld	a, #0x14
      000DB0 CDr00r00         [24] 2503 	call	___move_metasprite
      000DB3 3E 32            [ 8] 2504 	ld	a, #0x32
      000DB5 CDrC7r0D         [24] 2505 	call	_finish_frame_inner
      000DB8 5F               [ 4] 2506 	ld	e, a
      000DB9 C1               [12] 2507 	pop	bc
      000DBA CB 43            [ 8] 2508 	bit	0, e
      000DBC 20 06            [12] 2509 	jr	NZ, 00349$
                                   2510 ;src/director.c:426: i++;
      000DBE 21r00r00         [12] 2511 	ld	hl, #_i
      000DC1 34               [12] 2512 	inc	(hl)
      000DC2 18 C9            [12] 2513 	jr	00256$
      000DC4                       2514 00349$:
                                   2515 ;src/director.c:428: }
      000DC4 E8 05            [16] 2516 	add	sp, #5
      000DC6 C9               [16] 2517 	ret
                                   2518 ;src/director.c:437: bool finish_frame_inner(uint8_t count){
                                   2519 ;	---------------------------------
                                   2520 ; Function finish_frame_inner
                                   2521 ; ---------------------------------
      000DC7                       2522 _finish_frame_inner::
      000DC7 4F               [ 4] 2523 	ld	c, a
                                   2524 ;src/director.c:440: for ( iterator = 0; iterator < count; iterator++)
      000DC8 06 00            [ 8] 2525 	ld	b, #0x00
      000DCA                       2526 00105$:
      000DCA 78               [ 4] 2527 	ld	a, b
      000DCB 91               [ 4] 2528 	sub	a, c
      000DCC 30 14            [12] 2529 	jr	NC, 00103$
                                   2530 ;src/director.c:442: joy = joypad();
      000DCE CDr00r00         [24] 2531 	call	_joypad
                                   2532 ;src/director.c:443: if (joy & (J_A | J_START | J_SELECT))
      000DD1 E6 D0            [ 8] 2533 	and	a, #0xd0
      000DD3 28 03            [12] 2534 	jr	Z, 00102$
                                   2535 ;src/director.c:445: return true;
      000DD5 3E 01            [ 8] 2536 	ld	a, #0x01
      000DD7 C9               [16] 2537 	ret
      000DD8                       2538 00102$:
                                   2539 ;src/director.c:448: frame_counter++;
      000DD8 21r00r00         [12] 2540 	ld	hl, #_frame_counter
      000DDB 34               [12] 2541 	inc	(hl)
                                   2542 ;src/director.c:449: wait_vbl_done();
      000DDC CDr00r00         [24] 2543 	call	_wait_vbl_done
                                   2544 ;src/director.c:440: for ( iterator = 0; iterator < count; iterator++)
      000DDF 04               [ 4] 2545 	inc	b
      000DE0 18 E8            [12] 2546 	jr	00105$
      000DE2                       2547 00103$:
                                   2548 ;src/director.c:451: return false;
      000DE2 AF               [ 4] 2549 	xor	a, a
                                   2550 ;src/director.c:452: }
      000DE3 C9               [16] 2551 	ret
                                   2552 ;src/director.c:461: bool finish_frame_with_animation_inner(uint8_t count){
                                   2553 ;	---------------------------------
                                   2554 ; Function finish_frame_with_animation_inner
                                   2555 ; ---------------------------------
      000DE4                       2556 _finish_frame_with_animation_inner::
      000DE4 4F               [ 4] 2557 	ld	c, a
                                   2558 ;src/director.c:464: for ( iterator = 0; iterator < count; iterator++)
      000DE5 06 00            [ 8] 2559 	ld	b, #0x00
      000DE7                       2560 00105$:
      000DE7 78               [ 4] 2561 	ld	a, b
      000DE8 91               [ 4] 2562 	sub	a, c
      000DE9 30 1C            [12] 2563 	jr	NC, 00103$
                                   2564 ;src/director.c:466: joy = joypad();
      000DEB CDr00r00         [24] 2565 	call	_joypad
                                   2566 ;src/director.c:467: if (joy & (J_A | J_START | J_SELECT))
      000DEE E6 D0            [ 8] 2567 	and	a, #0xd0
      000DF0 28 03            [12] 2568 	jr	Z, 00102$
                                   2569 ;src/director.c:469: return true;
      000DF2 3E 01            [ 8] 2570 	ld	a, #0x01
      000DF4 C9               [16] 2571 	ret
      000DF5                       2572 00102$:
                                   2573 ;src/director.c:472: frame_counter++;
      000DF5 21r00r00         [12] 2574 	ld	hl, #_frame_counter
      000DF8 34               [12] 2575 	inc	(hl)
                                   2576 ;src/director.c:473: render_player();
      000DF9 C5               [16] 2577 	push	bc
      000DFA CDr00r00         [24] 2578 	call	_render_player
      000DFD CDr00r00         [24] 2579 	call	_end_frame
      000E00 C1               [12] 2580 	pop	bc
                                   2581 ;src/director.c:475: wait_vbl_done();
      000E01 CDr00r00         [24] 2582 	call	_wait_vbl_done
                                   2583 ;src/director.c:464: for ( iterator = 0; iterator < count; iterator++)
      000E04 04               [ 4] 2584 	inc	b
      000E05 18 E0            [12] 2585 	jr	00105$
      000E07                       2586 00103$:
                                   2587 ;src/director.c:477: return false;
      000E07 AF               [ 4] 2588 	xor	a, a
                                   2589 ;src/director.c:478: }
      000E08 C9               [16] 2590 	ret
                                   2591 ;src/director.c:480: void screen_shake(uint8_t frames, const metasprite_t* player_frame){
                                   2592 ;	---------------------------------
                                   2593 ; Function screen_shake
                                   2594 ; ---------------------------------
      000E09                       2595 _screen_shake::
      000E09 E8 FB            [16] 2596 	add	sp, #-5
      000E0B F8 03            [12] 2597 	ldhl	sp,	#3
                                   2598 ;src/director.c:482: for (iterator = 0; iterator < frames; iterator++)
      000E0D 22               [ 8] 2599 	ld	(hl+), a
      000E0E 33               [ 8] 2600 	inc	sp
      000E0F 33               [ 8] 2601 	inc	sp
      000E10 D5               [16] 2602 	push	de
      000E11 36 00            [12] 2603 	ld	(hl), #0x00
      000E13                       2604 00107$:
                                   2605 ;src/director.c:486: move_metasprite(player_frame, TILE_NUM_START, SPR_NUM_START, (uint8_t)SUB_TO_PX(player_x) + movement_x - 8, player_y);
      000E13 21r00r00         [12] 2606 	ld	hl, #_player_y
                                   2607 ;/home/javier/Escritorio/gb_development/gbdk/include/gb/metasprites.h:163: return __move_metasprite(base_sprite, (y << 8) | (uint8_t)x);
      000E16 46               [ 8] 2608 	ld	b, (hl)
      000E17 0E 00            [ 8] 2609 	ld	c, #0x00
                                   2610 ;src/director.c:482: for (iterator = 0; iterator < frames; iterator++)
      000E19 F8 04            [12] 2611 	ldhl	sp,	#4
      000E1B 3A               [ 8] 2612 	ld	a, (hl-)
      000E1C 96               [ 8] 2613 	sub	a, (hl)
      000E1D 30 5D            [12] 2614 	jr	NC, 00101$
                                   2615 ;src/director.c:484: uint8_t movement_x = (frame_counter) & 0x01 ? 8 : (frame_counter >> 1) & 0x01 ? 5 : 11;
      000E1F FAr00r00         [16] 2616 	ld	a, (#_frame_counter)
      000E22 0F               [ 4] 2617 	rrca
      000E23 30 05            [12] 2618 	jr	NC, 00111$
      000E25 21 08 00         [12] 2619 	ld	hl, #0x0008
      000E28 18 15            [12] 2620 	jr	00112$
      000E2A                       2621 00111$:
      000E2A FAr00r00         [16] 2622 	ld	a, (#_frame_counter)
      000E2D 0F               [ 4] 2623 	rrca
      000E2E E6 01            [ 8] 2624 	and	a, #0x01
      000E30 F8 02            [12] 2625 	ldhl	sp,	#2
      000E32 77               [ 8] 2626 	ld	(hl), a
      000E33 7E               [ 8] 2627 	ld	a, (hl)
      000E34 B7               [ 4] 2628 	or	a, a
      000E35 28 05            [12] 2629 	jr	Z, 00113$
      000E37 21 05 00         [12] 2630 	ld	hl, #0x0005
      000E3A 18 03            [12] 2631 	jr	00114$
      000E3C                       2632 00113$:
      000E3C 21 0B 00         [12] 2633 	ld	hl, #0x000b
      000E3F                       2634 00114$:
      000E3F                       2635 00112$:
      000E3F 7D               [ 4] 2636 	ld	a, l
                                   2637 ;/home/javier/Escritorio/gb_development/gbdk/include/gb/gb.h:1378: SCX_REG=x, SCY_REG=y;
      000E40 E0r00            [12] 2638 	ldh	(_SCX_REG + 0), a
      000E42 F5               [16] 2639 	push	af
      000E43 AF               [ 4] 2640 	xor	a, a
      000E44 E0r00            [12] 2641 	ldh	(_SCY_REG + 0), a
      000E46 F1               [12] 2642 	pop	af
                                   2643 ;src/director.c:486: move_metasprite(player_frame, TILE_NUM_START, SPR_NUM_START, (uint8_t)SUB_TO_PX(player_x) + movement_x - 8, player_y);
      000E47 21r01r00         [12] 2644 	ld	hl, #_player_x + 1
      000E4A 6E               [ 8] 2645 	ld	l, (hl)
                                   2646 ;	spillPairReg hl
                                   2647 ;	spillPairReg hl
      000E4B 85               [ 4] 2648 	add	a, l
      000E4C C6 F8            [ 8] 2649 	add	a, #0xf8
                                   2650 ;/home/javier/Escritorio/gb_development/gbdk/include/gb/metasprites.h:160: __current_metasprite = metasprite;
      000E4E F5               [16] 2651 	push	af
      000E4F F8 02            [12] 2652 	ldhl	sp,	#2
      000E51 7E               [ 8] 2653 	ld	a, (hl)
      000E52 EAr00r00         [16] 2654 	ld	(#___current_metasprite),a
      000E55 F8 03            [12] 2655 	ldhl	sp,	#3
      000E57 7E               [ 8] 2656 	ld	a, (hl)
      000E58 EAr01r00         [16] 2657 	ld	(#___current_metasprite + 1),a
      000E5B F1               [12] 2658 	pop	af
                                   2659 ;/home/javier/Escritorio/gb_development/gbdk/include/gb/metasprites.h:161: __current_base_tile = base_tile;
      000E5C 21r00r00         [12] 2660 	ld	hl, #___current_base_tile
      000E5F 36 00            [12] 2661 	ld	(hl), #0x00
                                   2662 ;/home/javier/Escritorio/gb_development/gbdk/include/gb/metasprites.h:162: __current_base_prop = 0;
      000E61 21r00r00         [12] 2663 	ld	hl, #___current_base_prop
      000E64 36 00            [12] 2664 	ld	(hl), #0x00
                                   2665 ;/home/javier/Escritorio/gb_development/gbdk/include/gb/metasprites.h:163: return __move_metasprite(base_sprite, (y << 8) | (uint8_t)x);
                                   2666 ;	spillPairReg hl
                                   2667 ;	spillPairReg hl
      000E66 B1               [ 4] 2668 	or	a, c
      000E67 4F               [ 4] 2669 	ld	c, a
      000E68 D5               [16] 2670 	push	de
      000E69 59               [ 4] 2671 	ld	e, c
      000E6A 50               [ 4] 2672 	ld	d, b
      000E6B AF               [ 4] 2673 	xor	a, a
      000E6C CDr00r00         [24] 2674 	call	___move_metasprite
      000E6F D1               [12] 2675 	pop	de
                                   2676 ;src/director.c:487: frame_counter++;
      000E70 21r00r00         [12] 2677 	ld	hl, #_frame_counter
      000E73 34               [12] 2678 	inc	(hl)
                                   2679 ;src/director.c:488: wait_vbl_done();
      000E74 CDr00r00         [24] 2680 	call	_wait_vbl_done
                                   2681 ;src/director.c:482: for (iterator = 0; iterator < frames; iterator++)
      000E77 F8 04            [12] 2682 	ldhl	sp,	#4
      000E79 34               [12] 2683 	inc	(hl)
      000E7A 18 97            [12] 2684 	jr	00107$
      000E7C                       2685 00101$:
                                   2686 ;/home/javier/Escritorio/gb_development/gbdk/include/gb/gb.h:1378: SCX_REG=x, SCY_REG=y;
      000E7C 3E 08            [ 8] 2687 	ld	a, #0x08
      000E7E E0r00            [12] 2688 	ldh	(_SCX_REG + 0), a
      000E80 AF               [ 4] 2689 	xor	a, a
      000E81 E0r00            [12] 2690 	ldh	(_SCY_REG + 0), a
                                   2691 ;src/director.c:491: move_metasprite(player_frame, TILE_NUM_START, SPR_NUM_START, (uint8_t)SUB_TO_PX(player_x), player_y);
      000E83 FAr01r00         [16] 2692 	ld	a, (#_player_x + 1)
                                   2693 ;/home/javier/Escritorio/gb_development/gbdk/include/gb/metasprites.h:160: __current_metasprite = metasprite;
      000E86 21r00r00         [12] 2694 	ld	hl, #___current_metasprite
      000E89 73               [ 8] 2695 	ld	(hl), e
      000E8A 23               [ 8] 2696 	inc	hl
      000E8B 72               [ 8] 2697 	ld	(hl), d
                                   2698 ;/home/javier/Escritorio/gb_development/gbdk/include/gb/metasprites.h:161: __current_base_tile = base_tile;
      000E8C 21r00r00         [12] 2699 	ld	hl, #___current_base_tile
      000E8F 36 00            [12] 2700 	ld	(hl), #0x00
                                   2701 ;/home/javier/Escritorio/gb_development/gbdk/include/gb/metasprites.h:162: __current_base_prop = 0;
      000E91 21r00r00         [12] 2702 	ld	hl, #___current_base_prop
      000E94 36 00            [12] 2703 	ld	(hl), #0x00
                                   2704 ;/home/javier/Escritorio/gb_development/gbdk/include/gb/metasprites.h:163: return __move_metasprite(base_sprite, (y << 8) | (uint8_t)x);
      000E96 B1               [ 4] 2705 	or	a, c
      000E97 5F               [ 4] 2706 	ld	e, a
      000E98 50               [ 4] 2707 	ld	d, b
      000E99 AF               [ 4] 2708 	xor	a, a
      000E9A CDr00r00         [24] 2709 	call	___move_metasprite
                                   2710 ;src/director.c:491: move_metasprite(player_frame, TILE_NUM_START, SPR_NUM_START, (uint8_t)SUB_TO_PX(player_x), player_y);
                                   2711 ;src/director.c:492: }
      000E9D E8 05            [16] 2712 	add	sp, #5
      000E9F C9               [16] 2713 	ret
                                   2714 ;src/director.c:494: void pan_up(uint8_t dy){
                                   2715 ;	---------------------------------
                                   2716 ; Function pan_up
                                   2717 ; ---------------------------------
      000EA0                       2718 _pan_up::
      000EA0 3B               [ 8] 2719 	dec	sp
      000EA1 3B               [ 8] 2720 	dec	sp
      000EA2 F8 00            [12] 2721 	ldhl	sp,	#0
      000EA4 77               [ 8] 2722 	ld	(hl), a
                                   2723 ;src/director.c:495: current_camera_y-=dy;
      000EA5 FAr01r00         [16] 2724 	ld	a, (#_current_camera_y)
      000EA8 F8 00            [12] 2725 	ldhl	sp,	#0
      000EAA 96               [ 8] 2726 	sub	a, (hl)
      000EAB 21r01r00         [12] 2727 	ld	hl, #_current_camera_y
      000EAE 77               [ 8] 2728 	ld	(hl), a
                                   2729 ;src/director.c:496: move_bkg(8, current_camera_y);
      000EAF 4E               [ 8] 2730 	ld	c, (hl)
                                   2731 ;/home/javier/Escritorio/gb_development/gbdk/include/gb/gb.h:1378: SCX_REG=x, SCY_REG=y;
      000EB0 3E 08            [ 8] 2732 	ld	a, #0x08
      000EB2 E0r00            [12] 2733 	ldh	(_SCX_REG + 0), a
      000EB4 79               [ 4] 2734 	ld	a, c
      000EB5 E0r00            [12] 2735 	ldh	(_SCY_REG + 0), a
                                   2736 ;src/director.c:498: if (is_generated){return;}
      000EB7 21r03r00         [12] 2737 	ld	hl, #_is_generated
      000EBA CB 46            [12] 2738 	bit	0, (hl)
      000EBC C2r87r0F         [16] 2739 	jp	NZ,00118$
                                   2740 ;src/director.c:500: uint8_t current_floor = (((current_camera_y-1) >> 3) & 0x1F) >> 3;
      000EBF 21r01r00         [12] 2741 	ld	hl, #_current_camera_y
      000EC2 4E               [ 8] 2742 	ld	c, (hl)
      000EC3 06 00            [ 8] 2743 	ld	b, #0x00
      000EC5 0B               [ 8] 2744 	dec	bc
      000EC6 CB 28            [ 8] 2745 	sra	b
      000EC8 CB 19            [ 8] 2746 	rr	c
      000ECA CB 28            [ 8] 2747 	sra	b
      000ECC CB 19            [ 8] 2748 	rr	c
      000ECE CB 28            [ 8] 2749 	sra	b
      000ED0 CB 19            [ 8] 2750 	rr	c
      000ED2 79               [ 4] 2751 	ld	a, c
      000ED3 E6 1F            [ 8] 2752 	and	a, #0x1f
      000ED5 4F               [ 4] 2753 	ld	c, a
      000ED6 06 00            [ 8] 2754 	ld	b, #0x00
      000ED8 CB 28            [ 8] 2755 	sra	b
      000EDA CB 19            [ 8] 2756 	rr	c
      000EDC CB 28            [ 8] 2757 	sra	b
      000EDE CB 19            [ 8] 2758 	rr	c
      000EE0 CB 28            [ 8] 2759 	sra	b
      000EE2 CB 19            [ 8] 2760 	rr	c
                                   2761 ;src/director.c:501: uint8_t old_floor = (((prev_camera_y) >> 3) & 0x1F) >> 3;
      000EE4 FAr02r00         [16] 2762 	ld	a, (#_prev_camera_y)
      000EE7 CB 37            [ 8] 2763 	swap	a
      000EE9 07               [ 4] 2764 	rlca
      000EEA E6 1F            [ 8] 2765 	and	a, #0x1f
      000EEC 5F               [ 4] 2766 	ld	e, a
      000EED 16 00            [ 8] 2767 	ld	d, #0x00
      000EEF CB 2A            [ 8] 2768 	sra	d
      000EF1 CB 1B            [ 8] 2769 	rr	e
      000EF3 CB 2A            [ 8] 2770 	sra	d
      000EF5 CB 1B            [ 8] 2771 	rr	e
      000EF7 CB 2A            [ 8] 2772 	sra	d
      000EF9 CB 1B            [ 8] 2773 	rr	e
      000EFB 7B               [ 4] 2774 	ld	a, e
                                   2775 ;src/director.c:502: if(current_floor != old_floor){
      000EFC 91               [ 4] 2776 	sub	a, c
      000EFD 28 30            [12] 2777 	jr	Z, 00127$
                                   2778 ;src/director.c:504: if(!is_generated){
      000EFF 21r03r00         [12] 2779 	ld	hl, #_is_generated
      000F02 CB 46            [12] 2780 	bit	0, (hl)
      000F04 20 22            [12] 2781 	jr	NZ, 00106$
                                   2782 ;src/director.c:505: set_bkg_tiles(1, current_floor << 3, 20, 8, floor_map);
      000F06 11r00r00         [12] 2783 	ld	de, #_base_floor_map+0
      000F09 79               [ 4] 2784 	ld	a, c
      000F0A 87               [ 4] 2785 	add	a, a
      000F0B 87               [ 4] 2786 	add	a, a
      000F0C 87               [ 4] 2787 	add	a, a
      000F0D D5               [16] 2788 	push	de
      000F0E 26 08            [ 8] 2789 	ld	h, #0x08
                                   2790 ;	spillPairReg hl
                                   2791 ;	spillPairReg hl
      000F10 E5               [16] 2792 	push	hl
      000F11 33               [ 8] 2793 	inc	sp
      000F12 26 14            [ 8] 2794 	ld	h, #0x14
                                   2795 ;	spillPairReg hl
                                   2796 ;	spillPairReg hl
      000F14 E5               [16] 2797 	push	hl
      000F15 33               [ 8] 2798 	inc	sp
      000F16 67               [ 4] 2799 	ld	h, a
      000F17 2E 01            [ 8] 2800 	ld	l, #0x01
      000F19 E5               [16] 2801 	push	hl
      000F1A CDr00r00         [24] 2802 	call	_set_bkg_tiles
      000F1D E8 06            [16] 2803 	add	sp, #6
                                   2804 ;src/director.c:506: if(current_floor == 0) {is_generated = true;}
      000F1F 79               [ 4] 2805 	ld	a, c
      000F20 B7               [ 4] 2806 	or	a, a
      000F21 20 05            [12] 2807 	jr	NZ, 00106$
      000F23 21r03r00         [12] 2808 	ld	hl, #_is_generated
      000F26 36 01            [12] 2809 	ld	(hl), #0x01
      000F28                       2810 00106$:
                                   2811 ;src/director.c:508: prev_camera_y = current_camera_y-1;
      000F28 FAr01r00         [16] 2812 	ld	a, (#_current_camera_y)
      000F2B 3D               [ 4] 2813 	dec	a
      000F2C EAr02r00         [16] 2814 	ld	(#_prev_camera_y),a
                                   2815 ;src/director.c:512: for (uint8_t j = 0; j < 4; j++)
      000F2F                       2816 00127$:
      000F2F F8 01            [12] 2817 	ldhl	sp,	#1
      000F31 36 00            [12] 2818 	ld	(hl), #0x00
      000F33                       2819 00116$:
      000F33 F8 01            [12] 2820 	ldhl	sp,	#1
      000F35 7E               [ 8] 2821 	ld	a, (hl)
      000F36 D6 04            [ 8] 2822 	sub	a, #0x04
      000F38 30 4D            [12] 2823 	jr	NC, 00118$
                                   2824 ;src/director.c:514: if(shadow_OAM[j].y < 160){shadow_OAM[j].y += dy;}
      000F3A 5E               [ 8] 2825 	ld	e, (hl)
      000F3B 16 00            [ 8] 2826 	ld	d, #0x00
      000F3D CB 23            [ 8] 2827 	sla	e
      000F3F CB 12            [ 8] 2828 	rl	d
      000F41 CB 23            [ 8] 2829 	sla	e
      000F43 CB 12            [ 8] 2830 	rl	d
      000F45 21r00r00         [12] 2831 	ld	hl, #_shadow_OAM
      000F48 19               [ 8] 2832 	add	hl, de
      000F49 7E               [ 8] 2833 	ld	a, (hl)
      000F4A D6 A0            [ 8] 2834 	sub	a, #0xa0
      000F4C 30 0F            [12] 2835 	jr	NC, 00110$
      000F4E 21r00r00         [12] 2836 	ld	hl, #_shadow_OAM
      000F51 19               [ 8] 2837 	add	hl, de
      000F52 4D               [ 4] 2838 	ld	c, l
      000F53 44               [ 4] 2839 	ld	b, h
      000F54 21r00r00         [12] 2840 	ld	hl, #_shadow_OAM
      000F57 19               [ 8] 2841 	add	hl, de
      000F58 7E               [ 8] 2842 	ld	a, (hl)
      000F59 F8 00            [12] 2843 	ldhl	sp,	#0
      000F5B 86               [ 8] 2844 	add	a, (hl)
      000F5C 02               [ 8] 2845 	ld	(bc), a
      000F5D                       2846 00110$:
                                   2847 ;src/director.c:515: if(shadow_OAM[16 + j].y < 160){shadow_OAM[16 + j].y += dy;}
      000F5D F8 01            [12] 2848 	ldhl	sp,	#1
      000F5F 4E               [ 8] 2849 	ld	c, (hl)
      000F60 06 00            [ 8] 2850 	ld	b, #0x00
      000F62 21 10 00         [12] 2851 	ld	hl, #0x0010
      000F65 09               [ 8] 2852 	add	hl, bc
      000F66 29               [ 8] 2853 	add	hl, hl
      000F67 29               [ 8] 2854 	add	hl, hl
      000F68 4D               [ 4] 2855 	ld	c, l
      000F69 44               [ 4] 2856 	ld	b, h
      000F6A 21r00r00         [12] 2857 	ld	hl, #_shadow_OAM
      000F6D 09               [ 8] 2858 	add	hl, bc
      000F6E 7E               [ 8] 2859 	ld	a, (hl)
      000F6F D6 A0            [ 8] 2860 	sub	a, #0xa0
      000F71 30 0F            [12] 2861 	jr	NC, 00117$
      000F73 21r00r00         [12] 2862 	ld	hl, #_shadow_OAM
      000F76 09               [ 8] 2863 	add	hl, bc
      000F77 5D               [ 4] 2864 	ld	e, l
      000F78 54               [ 4] 2865 	ld	d, h
      000F79 21r00r00         [12] 2866 	ld	hl, #_shadow_OAM
      000F7C 09               [ 8] 2867 	add	hl, bc
      000F7D 7E               [ 8] 2868 	ld	a, (hl)
      000F7E F8 00            [12] 2869 	ldhl	sp,	#0
      000F80 86               [ 8] 2870 	add	a, (hl)
      000F81 12               [ 8] 2871 	ld	(de), a
      000F82                       2872 00117$:
                                   2873 ;src/director.c:512: for (uint8_t j = 0; j < 4; j++)
      000F82 F8 01            [12] 2874 	ldhl	sp,	#1
      000F84 34               [12] 2875 	inc	(hl)
      000F85 18 AC            [12] 2876 	jr	00116$
      000F87                       2877 00118$:
                                   2878 ;src/director.c:517: }
      000F87 33               [ 8] 2879 	inc	sp
      000F88 33               [ 8] 2880 	inc	sp
      000F89 C9               [16] 2881 	ret
                                   2882 ;src/director.c:519: void pan_cloud(void){
                                   2883 ;	---------------------------------
                                   2884 ; Function pan_cloud
                                   2885 ; ---------------------------------
      000F8A                       2886 _pan_cloud::
                                   2887 ;src/director.c:520: set_win_based_tiles(0, 0, 32, 1, cloud_map, 0);
                                   2888 ;/home/javier/Escritorio/gb_development/gbdk/include/gb/gb.h:1512: _map_tile_offset = base_tile;
      000F8A 21r00r00         [12] 2889 	ld	hl, #__map_tile_offset
      000F8D 36 00            [12] 2890 	ld	(hl), #0x00
                                   2891 ;/home/javier/Escritorio/gb_development/gbdk/include/gb/gb.h:1513: set_win_tiles(x, y, w, h, tiles);
      000F8F 11r2Fr00         [12] 2892 	ld	de, #_cloud_map
      000F92 D5               [16] 2893 	push	de
      000F93 21 20 01         [12] 2894 	ld	hl, #0x120
      000F96 E5               [16] 2895 	push	hl
      000F97 AF               [ 4] 2896 	xor	a, a
      000F98 0F               [ 4] 2897 	rrca
      000F99 F5               [16] 2898 	push	af
      000F9A CDr00r00         [24] 2899 	call	_set_win_tiles
      000F9D E8 06            [16] 2900 	add	sp, #6
                                   2901 ;/home/javier/Escritorio/gb_development/gbdk/include/gb/gb.h:1514: _map_tile_offset = 0;
      000F9F 21r00r00         [12] 2902 	ld	hl, #__map_tile_offset
      000FA2 36 00            [12] 2903 	ld	(hl), #0x00
                                   2904 ;src/director.c:521: SHOW_WIN;
      000FA4 F0r00            [12] 2905 	ldh	a, (_LCDC_REG + 0)
      000FA6 F6 20            [ 8] 2906 	or	a, #0x20
      000FA8 E0r00            [12] 2907 	ldh	(_LCDC_REG + 0), a
                                   2908 ;src/director.c:522: max_scan = 3;
      000FAA 21r04r00         [12] 2909 	ld	hl, #_max_scan
      000FAD 36 03            [12] 2910 	ld	(hl), #0x03
                                   2911 ;src/director.c:523: cloud_cut_scan = 0;
      000FAF 21r05r00         [12] 2912 	ld	hl, #_cloud_cut_scan
      000FB2 36 00            [12] 2913 	ld	(hl), #0x00
                                   2914 ;src/director.c:525: remove_VBL(VBL_interrupt);
      000FB4 11r00r00         [12] 2915 	ld	de, #_VBL_interrupt
      000FB7 CDr00r00         [24] 2916 	call	_remove_VBL
                                   2917 ;src/director.c:526: remove_LCD(LCD_interrupt);
      000FBA 11rC3r00         [12] 2918 	ld	de, #_LCD_interrupt
      000FBD CDr00r00         [24] 2919 	call	_remove_LCD
                                   2920 ;src/director.c:534: }
      000FC0 F3               [ 4] 2921 	di
                                   2922 ;src/director.c:529: add_VBL(VBL_interrupt);
      000FC1 11r00r00         [12] 2923 	ld	de, #_VBL_interrupt
      000FC4 CDr00r00         [24] 2924 	call	_add_VBL
                                   2925 ;src/director.c:530: add_LCD(LCD_interrupt);
      000FC7 11rC3r00         [12] 2926 	ld	de, #_LCD_interrupt
      000FCA CDr00r00         [24] 2927 	call	_add_LCD
                                   2928 ;src/director.c:531: set_interrupts(VBL_IFLAG | LCD_IFLAG);
      000FCD 3E 03            [ 8] 2929 	ld	a, #0x03
      000FCF CDr00r00         [24] 2930 	call	_set_interrupts
                                   2931 ;src/director.c:532: STAT_REG |= 0x40; // enable LY == LYC mode 
      000FD2 F0r00            [12] 2932 	ldh	a, (_STAT_REG + 0)
      000FD4 F6 40            [ 8] 2933 	or	a, #0x40
      000FD6 E0r00            [12] 2934 	ldh	(_STAT_REG + 0), a
      000FD8 FB               [ 4] 2935 	ei
                                   2936 ;/home/javier/Escritorio/gb_development/gbdk/include/gb/gb.h:1656: WX_REG=x, WY_REG=y;
      000FD9 3E 07            [ 8] 2937 	ld	a, #0x07
      000FDB E0r00            [12] 2938 	ldh	(_WX_REG + 0), a
      000FDD AF               [ 4] 2939 	xor	a, a
      000FDE E0r00            [12] 2940 	ldh	(_WY_REG + 0), a
                                   2941 ;src/director.c:537: for (i = 0; i < 24; i++)
      000FE0 21r00r00         [12] 2942 	ld	hl, #_i
      000FE3 36 00            [12] 2943 	ld	(hl), #0x00
      000FE5                       2944 00114$:
                                   2945 ;src/director.c:539: cloud_cut_scan+=6;
      000FE5 21r05r00         [12] 2946 	ld	hl, #_cloud_cut_scan
      000FE8 7E               [ 8] 2947 	ld	a, (hl)
      000FE9 C6 06            [ 8] 2948 	add	a, #0x06
      000FEB 77               [ 8] 2949 	ld	(hl), a
                                   2950 ;src/director.c:540: max_scan+=6;
      000FEC 21r04r00         [12] 2951 	ld	hl, #_max_scan
      000FEF 7E               [ 8] 2952 	ld	a, (hl)
      000FF0 C6 06            [ 8] 2953 	add	a, #0x06
      000FF2 77               [ 8] 2954 	ld	(hl), a
                                   2955 ;src/director.c:541: move_win(7, cloud_cut_scan);
      000FF3 21r05r00         [12] 2956 	ld	hl, #_cloud_cut_scan
      000FF6 4E               [ 8] 2957 	ld	c, (hl)
                                   2958 ;/home/javier/Escritorio/gb_development/gbdk/include/gb/gb.h:1656: WX_REG=x, WY_REG=y;
      000FF7 3E 07            [ 8] 2959 	ld	a, #0x07
      000FF9 E0r00            [12] 2960 	ldh	(_WX_REG + 0), a
      000FFB 79               [ 4] 2961 	ld	a, c
      000FFC E0r00            [12] 2962 	ldh	(_WY_REG + 0), a
                                   2963 ;src/director.c:542: pan_up(16);
      000FFE 3E 10            [ 8] 2964 	ld	a, #0x10
      001000 CDrA0r0E         [24] 2965 	call	_pan_up
                                   2966 ;src/director.c:543: finish_frame(1)
      001003 3E 01            [ 8] 2967 	ld	a, #0x01
      001005 CDrC7r0D         [24] 2968 	call	_finish_frame_inner
      001008 CB 47            [ 8] 2969 	bit	0,a
      00100A C0               [20] 2970 	ret	NZ
                                   2971 ;src/director.c:537: for (i = 0; i < 24; i++)
      00100B 21r00r00         [12] 2972 	ld	hl, #_i
      00100E 34               [12] 2973 	inc	(hl)
      00100F 7E               [ 8] 2974 	ld	a, (hl)
      001010 D6 18            [ 8] 2975 	sub	a, #0x18
      001012 38 D1            [12] 2976 	jr	C, 00114$
                                   2977 ;src/director.c:545: remove_VBL(VBL_interrupt);
      001014 11r00r00         [12] 2978 	ld	de, #_VBL_interrupt
      001017 CDr00r00         [24] 2979 	call	_remove_VBL
                                   2980 ;src/director.c:546: remove_LCD(LCD_interrupt);
      00101A 11rC3r00         [12] 2981 	ld	de, #_LCD_interrupt
      00101D CDr00r00         [24] 2982 	call	_remove_LCD
                                   2983 ;src/director.c:548: finish_frame(15)
      001020 3E 0F            [ 8] 2984 	ld	a, #0x0f
      001022 CDrC7r0D         [24] 2985 	call	_finish_frame_inner
      001025 CB 47            [ 8] 2986 	bit	0,a
      001027 C0               [20] 2987 	ret	NZ
                                   2988 ;src/director.c:549: BGP_REG = DMG_PALETTE(DMG_WHITE, DMG_LITE_GRAY, DMG_DARK_GRAY, DMG_BLACK);
      001028 3E E4            [ 8] 2989 	ld	a, #0xe4
      00102A E0r00            [12] 2990 	ldh	(_BGP_REG + 0), a
                                   2991 ;/home/javier/Escritorio/gb_development/gbdk/include/gb/gb.h:1656: WX_REG=x, WY_REG=y;
      00102C 3E 07            [ 8] 2992 	ld	a, #0x07
      00102E E0r00            [12] 2993 	ldh	(_WX_REG + 0), a
      001030 AF               [ 4] 2994 	xor	a, a
      001031 E0r00            [12] 2995 	ldh	(_WY_REG + 0), a
                                   2996 ;src/director.c:551: SHOW_WIN;
      001033 F0r00            [12] 2997 	ldh	a, (_LCDC_REG + 0)
      001035 F6 20            [ 8] 2998 	or	a, #0x20
      001037 E0r00            [12] 2999 	ldh	(_LCDC_REG + 0), a
                                   3000 ;src/director.c:552: cloud_cut_scan = 6;
      001039 21r05r00         [12] 3001 	ld	hl, #_cloud_cut_scan
      00103C 36 06            [12] 3002 	ld	(hl), #0x06
                                   3003 ;src/director.c:553: for (i = 0; i < 24; i++)
      00103E 21r00r00         [12] 3004 	ld	hl, #_i
      001041 36 00            [12] 3005 	ld	(hl), #0x00
      001043                       3006 00116$:
                                   3007 ;src/director.c:555: move_win(7, cloud_cut_scan);
      001043 21r05r00         [12] 3008 	ld	hl, #_cloud_cut_scan
      001046 4E               [ 8] 3009 	ld	c, (hl)
                                   3010 ;/home/javier/Escritorio/gb_development/gbdk/include/gb/gb.h:1656: WX_REG=x, WY_REG=y;
      001047 3E 07            [ 8] 3011 	ld	a, #0x07
      001049 E0r00            [12] 3012 	ldh	(_WX_REG + 0), a
      00104B 79               [ 4] 3013 	ld	a, c
      00104C E0r00            [12] 3014 	ldh	(_WY_REG + 0), a
                                   3015 ;src/director.c:556: cloud_cut_scan+=6;
      00104E 7E               [ 8] 3016 	ld	a, (hl)
      00104F C6 06            [ 8] 3017 	add	a, #0x06
      001051 77               [ 8] 3018 	ld	(hl), a
                                   3019 ;src/director.c:557: pan_up(16);
      001052 3E 10            [ 8] 3020 	ld	a, #0x10
      001054 CDrA0r0E         [24] 3021 	call	_pan_up
                                   3022 ;src/director.c:558: finish_frame(1)
      001057 3E 01            [ 8] 3023 	ld	a, #0x01
      001059 CDrC7r0D         [24] 3024 	call	_finish_frame_inner
      00105C CB 47            [ 8] 3025 	bit	0,a
      00105E C0               [20] 3026 	ret	NZ
                                   3027 ;src/director.c:553: for (i = 0; i < 24; i++)
      00105F 21r00r00         [12] 3028 	ld	hl, #_i
      001062 34               [12] 3029 	inc	(hl)
      001063 7E               [ 8] 3030 	ld	a, (hl)
      001064 D6 18            [ 8] 3031 	sub	a, #0x18
      001066 38 DB            [12] 3032 	jr	C, 00116$
                                   3033 ;src/director.c:560: HIDE_WIN;
      001068 F0r00            [12] 3034 	ldh	a, (_LCDC_REG + 0)
      00106A E6 DF            [ 8] 3035 	and	a, #0xdf
      00106C E0r00            [12] 3036 	ldh	(_LCDC_REG + 0), a
                                   3037 ;src/director.c:561: }
      00106E C9               [16] 3038 	ret
                                   3039 	.area _CODE
                                   3040 	.area _INITIALIZER
      000000                       3041 __xinit__frame_counter:
      000000 00                    3042 	.db #0x00	; 0
                                   3043 	.area _CABS (ABS)
