                                      1 ;--------------------------------------------------------
                                      2 ; File Created by SDCC : free open source ISO C Compiler 
                                      3 ; Version 4.3.2 #14228 (Linux)
                                      4 ;--------------------------------------------------------
                                      5 	.module player
                                      6 	.optsdcc -msm83
                                      7 	
                                      8 ;--------------------------------------------------------
                                      9 ; Public variables in this module
                                     10 ;--------------------------------------------------------
                                     11 	.globl _hide_sprites_range
                                     12 	.globl _set_sprite_data
                                     13 	.globl _set_bkg_tiles
                                     14 	.globl _joypad
                                     15 	.globl _play_boing_sfx
                                     16 	.globl _stop_hurt_sfx
                                     17 	.globl _play_hurt_sfx
                                     18 	.globl _play_break_sfx
                                     19 	.globl _play_bump_sfx
                                     20 	.globl _stop_jump_sfx
                                     21 	.globl _play_jump_sfx
                                     22 	.globl _stop_sfx
                                     23 	.globl _score
                                     24 	.globl _current_state
                                     25 	.globl _player_y
                                     26 	.globl _player_x
                                     27 	.globl _is_facing_right
                                     28 	.globl _a_not_pressed
                                     29 	.globl _player_dead_flag
                                     30 	.globl _clamp_y_velocity
                                     31 	.globl _clamp_x_velocity
                                     32 	.globl _jump_power
                                     33 	.globl _impulse
                                     34 	.globl _fall_g
                                     35 	.globl _jump_g
                                     36 	.globl _player_init
                                     37 	.globl _compute_player_frame
                                     38 	.globl _render_player
                                     39 	.globl _render_all_particles
                                     40 	.globl _instanciate_puff
                                     41 	.globl _instanciate_collision_puffs
                                     42 	.globl _end_frame
                                     43 ;--------------------------------------------------------
                                     44 ; special function registers
                                     45 ;--------------------------------------------------------
                                     46 ;--------------------------------------------------------
                                     47 ; ram data
                                     48 ;--------------------------------------------------------
                                     49 	.area _DATA
      000000                         50 _player_dead_flag::
      000000                         51 	.ds 1
      000001                         52 _frame_counter:
      000001                         53 	.ds 1
      000002                         54 _current_frame:
      000002                         55 	.ds 1
      000003                         56 _a_not_pressed::
      000003                         57 	.ds 1
      000004                         58 _i:
      000004                         59 	.ds 1
      000005                         60 _joy:
      000005                         61 	.ds 1
      000006                         62 _x_force:
      000006                         63 	.ds 1
      000007                         64 _x_speed:
      000007                         65 	.ds 2
      000009                         66 _is_facing_right::
      000009                         67 	.ds 1
      00000A                         68 _is_grounded:
      00000A                         69 	.ds 1
      00000B                         70 _is_jumping:
      00000B                         71 	.ds 1
      00000C                         72 _y_speed:
      00000C                         73 	.ds 1
      00000D                         74 _player_x::
      00000D                         75 	.ds 2
      00000F                         76 _player_y::
      00000F                         77 	.ds 1
      000010                         78 _last_x:
      000010                         79 	.ds 2
      000012                         80 _last_y:
      000012                         81 	.ds 1
      000013                         82 _current_state::
      000013                         83 	.ds 1
      000014                         84 _current_coyote_frames:
      000014                         85 	.ds 1
      000015                         86 _score::
      000015                         87 	.ds 2
      000017                         88 _max_player_y:
      000017                         89 	.ds 1
      000018                         90 _test_max_player_y:
      000018                         91 	.ds 1
      000019                         92 _highest_visited_floor:
      000019                         93 	.ds 1
      00001A                         94 _next_free_puff:
      00001A                         95 	.ds 1
      00001B                         96 _brick_frame:
      00001B                         97 	.ds 1
      00001C                         98 _brick_y_speed:
      00001C                         99 	.ds 1
                                    100 ;--------------------------------------------------------
                                    101 ; ram data
                                    102 ;--------------------------------------------------------
                                    103 	.area _INITIALIZED
      000000                        104 _puff_frame:
      000000                        105 	.ds 4
      000004                        106 _rect_functions:
      000004                        107 	.ds 16
                                    108 ;--------------------------------------------------------
                                    109 ; absolute external ram data
                                    110 ;--------------------------------------------------------
                                    111 	.area _DABS (ABS)
                                    112 ;--------------------------------------------------------
                                    113 ; global & static initialisations
                                    114 ;--------------------------------------------------------
                                    115 	.area _HOME
                                    116 	.area _GSINIT
                                    117 	.area _GSFINAL
                                    118 	.area _GSINIT
                                    119 ;--------------------------------------------------------
                                    120 ; Home
                                    121 ;--------------------------------------------------------
                                    122 	.area _HOME
                                    123 	.area _HOME
                                    124 ;--------------------------------------------------------
                                    125 ; code
                                    126 ;--------------------------------------------------------
                                    127 	.area _CODE
                                    128 ;src/player.c:132: void player_init(void)
                                    129 ;	---------------------------------
                                    130 ; Function player_init
                                    131 ; ---------------------------------
      000000                        132 _player_init::
                                    133 ;src/player.c:134: player_dead_flag = false;
      000000 21r00r00         [12]  134 	ld	hl, #_player_dead_flag
      000003 36 00            [12]  135 	ld	(hl), #0x00
                                    136 ;src/player.c:136: OBP0_REG = 0xE4; //11100100
      000005 3E E4            [ 8]  137 	ld	a, #0xe4
      000007 E0r00            [12]  138 	ldh	(_OBP0_REG + 0), a
                                    139 ;src/player.c:139: set_sprite_data(TILE_NUM_START, PLAYER_SPRITES, playerSprites);
      000009 11r00r00         [12]  140 	ld	de, #_playerSprites
      00000C D5               [16]  141 	push	de
      00000D 21 00 18         [12]  142 	ld	hl, #0x1800
      000010 E5               [16]  143 	push	hl
      000011 CDr00r00         [24]  144 	call	_set_sprite_data
      000014 E8 04            [16]  145 	add	sp, #4
                                    146 ;src/player.c:140: set_sprite_data(PLAYER_SPRITES, 3, Sfx);
      000016 11r00r00         [12]  147 	ld	de, #_Sfx
      000019 D5               [16]  148 	push	de
      00001A 21 18 03         [12]  149 	ld	hl, #0x318
      00001D E5               [16]  150 	push	hl
      00001E CDr00r00         [24]  151 	call	_set_sprite_data
      000021 E8 04            [16]  152 	add	sp, #4
                                    153 ;src/player.c:142: frame_counter = 0;
      000023 21r01r00         [12]  154 	ld	hl, #_frame_counter
      000026 36 00            [12]  155 	ld	(hl), #0x00
                                    156 ;src/player.c:143: current_frame = 0;
      000028 21r02r00         [12]  157 	ld	hl, #_current_frame
      00002B 36 00            [12]  158 	ld	(hl), #0x00
                                    159 ;src/player.c:144: current_state = PLAYER_STATE_IDLE;
      00002D 21r13r00         [12]  160 	ld	hl, #_current_state
      000030 36 00            [12]  161 	ld	(hl), #0x00
                                    162 ;src/player.c:145: x_force = 0U;
      000032 21r06r00         [12]  163 	ld	hl, #_x_force
      000035 36 00            [12]  164 	ld	(hl), #0x00
                                    165 ;src/player.c:146: x_speed = 0U;
      000037 AF               [ 4]  166 	xor	a, a
      000038 21r07r00         [12]  167 	ld	hl, #_x_speed
      00003B 22               [ 8]  168 	ld	(hl+), a
      00003C 77               [ 8]  169 	ld	(hl), a
                                    170 ;src/player.c:147: y_speed = 0;
      00003D 21r0Cr00         [12]  171 	ld	hl, #_y_speed
      000040 36 00            [12]  172 	ld	(hl), #0x00
                                    173 ;src/player.c:148: player_x = last_x = PX_TO_SUB(16U);
      000042 21r10r00         [12]  174 	ld	hl, #_last_x
      000045 AF               [ 4]  175 	xor	a, a
      000046 22               [ 8]  176 	ld	(hl+), a
      000047 36 10            [12]  177 	ld	(hl), #0x10
      000049 21r0Dr00         [12]  178 	ld	hl, #_player_x
      00004C AF               [ 4]  179 	xor	a, a
      00004D 22               [ 8]  180 	ld	(hl+), a
      00004E 36 10            [12]  181 	ld	(hl), #0x10
                                    182 ;src/player.c:149: player_y = last_y = 128U;
      000050 21r12r00         [12]  183 	ld	hl, #_last_y
      000053 36 80            [12]  184 	ld	(hl), #0x80
      000055 21r0Fr00         [12]  185 	ld	hl, #_player_y
      000058 36 80            [12]  186 	ld	(hl), #0x80
                                    187 ;src/player.c:150: is_facing_right = true;
      00005A 21r09r00         [12]  188 	ld	hl, #_is_facing_right
      00005D 36 01            [12]  189 	ld	(hl), #0x01
                                    190 ;src/player.c:151: is_grounded = true;
      00005F 21r0Ar00         [12]  191 	ld	hl, #_is_grounded
      000062 36 01            [12]  192 	ld	(hl), #0x01
                                    193 ;src/player.c:152: next_free_puff = 0;
      000064 21r1Ar00         [12]  194 	ld	hl, #_next_free_puff
      000067 36 00            [12]  195 	ld	(hl), #0x00
                                    196 ;src/player.c:153: score = 0;
      000069 AF               [ 4]  197 	xor	a, a
      00006A 21r15r00         [12]  198 	ld	hl, #_score
      00006D 22               [ 8]  199 	ld	(hl+), a
      00006E 77               [ 8]  200 	ld	(hl), a
                                    201 ;src/player.c:154: highest_visited_floor = 1;
      00006F 21r19r00         [12]  202 	ld	hl, #_highest_visited_floor
      000072 36 01            [12]  203 	ld	(hl), #0x01
                                    204 ;src/player.c:155: max_player_y = 0;
      000074 21r17r00         [12]  205 	ld	hl, #_max_player_y
      000077 36 00            [12]  206 	ld	(hl), #0x00
                                    207 ;src/player.c:156: a_not_pressed = true;
      000079 21r03r00         [12]  208 	ld	hl, #_a_not_pressed
      00007C 36 01            [12]  209 	ld	(hl), #0x01
                                    210 ;src/player.c:157: current_coyote_frames = 0;
      00007E 21r14r00         [12]  211 	ld	hl, #_current_coyote_frames
      000081 36 00            [12]  212 	ld	(hl), #0x00
                                    213 ;src/player.c:158: joy = 0;
      000083 21r05r00         [12]  214 	ld	hl, #_joy
      000086 36 00            [12]  215 	ld	(hl), #0x00
                                    216 ;src/player.c:159: move_metasprite(idle_metasprites[0], TILE_NUM_START, SPR_NUM_START, (uint8_t)SUB_TO_PX(player_x), player_y);
      000088 21r00r00         [12]  217 	ld	hl, #_idle_metasprites
      00008B 2A               [ 8]  218 	ld	a, (hl+)
      00008C 4F               [ 4]  219 	ld	c, a
      00008D 7E               [ 8]  220 	ld	a, (hl)
                                    221 ;/home/javier/Escritorio/gb_development/gbdk/include/gb/metasprites.h:160: __current_metasprite = metasprite;
      00008E 21r00r00         [12]  222 	ld	hl, #___current_metasprite
      000091 71               [ 8]  223 	ld	(hl), c
      000092 23               [ 8]  224 	inc	hl
      000093 77               [ 8]  225 	ld	(hl), a
                                    226 ;/home/javier/Escritorio/gb_development/gbdk/include/gb/metasprites.h:161: __current_base_tile = base_tile;
      000094 21r00r00         [12]  227 	ld	hl, #___current_base_tile
      000097 36 00            [12]  228 	ld	(hl), #0x00
                                    229 ;/home/javier/Escritorio/gb_development/gbdk/include/gb/metasprites.h:162: __current_base_prop = 0;
      000099 21r00r00         [12]  230 	ld	hl, #___current_base_prop
      00009C 36 00            [12]  231 	ld	(hl), #0x00
                                    232 ;/home/javier/Escritorio/gb_development/gbdk/include/gb/metasprites.h:163: return __move_metasprite(base_sprite, (y << 8) | (uint8_t)x);
      00009E 11 10 80         [12]  233 	ld	de, #0x8010
      0000A1 AF               [ 4]  234 	xor	a, a
      0000A2 CDr00r00         [24]  235 	call	___move_metasprite
                                    236 ;src/player.c:161: set_sprite_data(0x1B, 2, brick_particle);
      0000A5 11r00r00         [12]  237 	ld	de, #_brick_particle
      0000A8 D5               [16]  238 	push	de
      0000A9 3E 02            [ 8]  239 	ld	a, #0x02
      0000AB F5               [16]  240 	push	af
      0000AC 33               [ 8]  241 	inc	sp
      0000AD 3E 1B            [ 8]  242 	ld	a, #0x1b
      0000AF F5               [16]  243 	push	af
      0000B0 33               [ 8]  244 	inc	sp
      0000B1 CDr00r00         [24]  245 	call	_set_sprite_data
      0000B4 E8 04            [16]  246 	add	sp, #4
                                    247 ;/home/javier/Escritorio/gb_development/gbdk/include/gb/gb.h:1804: shadow_OAM[nb].tile=tile;
      0000B6 21r32r00         [12]  248 	ld	hl, #(_shadow_OAM + 50)
      0000B9 36 1B            [12]  249 	ld	(hl), #0x1b
      0000BB 21r36r00         [12]  250 	ld	hl, #(_shadow_OAM + 54)
      0000BE 36 1B            [12]  251 	ld	(hl), #0x1b
      0000C0 21r3Ar00         [12]  252 	ld	hl, #(_shadow_OAM + 58)
      0000C3 36 1C            [12]  253 	ld	(hl), #0x1c
      0000C5 21r3Er00         [12]  254 	ld	hl, #(_shadow_OAM + 62)
      0000C8 36 1C            [12]  255 	ld	(hl), #0x1c
                                    256 ;src/player.c:166: brick_frame = 0;
      0000CA 21r1Br00         [12]  257 	ld	hl, #_brick_frame
      0000CD 36 00            [12]  258 	ld	(hl), #0x00
                                    259 ;src/player.c:167: }
      0000CF C9               [16]  260 	ret
      0000D0                        261 _jump_g:
      0000D0 02                     262 	.db #0x02	; 2
      0000D1                        263 _fall_g:
      0000D1 04                     264 	.db #0x04	; 4
      0000D2                        265 _impulse:
      0000D2 18                     266 	.db #0x18	; 24
      0000D3                        267 _jump_power:
      0000D3 E0                     268 	.db #0xe0	; -32
      0000D4                        269 _clamp_x_velocity:
      0000D4 00 02                  270 	.dw #0x0200
      0000D6                        271 _clamp_y_velocity:
      0000D6 14                     272 	.db #0x14	;  20
                                    273 ;src/player.c:169: void compute_player_frame(void)
                                    274 ;	---------------------------------
                                    275 ; Function compute_player_frame
                                    276 ; ---------------------------------
      0000D7                        277 _compute_player_frame::
                                    278 ;src/player.c:171: if(current_state == PLAYER_STATE_HURT){
      0000D7 FAr13r00         [16]  279 	ld	a, (#_current_state)
      0000DA D6 04            [ 8]  280 	sub	a, #0x04
      0000DC 20 05            [12]  281 	jr	NZ, 00104$
                                    282 ;src/player.c:172: hurt_frame();
      0000DE CDr8Fr08         [24]  283 	call	_hurt_frame
      0000E1 18 0C            [12]  284 	jr	00105$
      0000E3                        285 00104$:
                                    286 ;src/player.c:175: retrieve_input();
      0000E3 CDr53r01         [24]  287 	call	_retrieve_input
                                    288 ;src/player.c:177: if(player_dead_flag) return;
      0000E6 21r00r00         [12]  289 	ld	hl, #_player_dead_flag
      0000E9 CB 46            [12]  290 	bit	0, (hl)
      0000EB C0               [20]  291 	ret	NZ
                                    292 ;src/player.c:179: calculate_physics();
      0000EC CDr50r02         [24]  293 	call	_calculate_physics
      0000EF                        294 00105$:
                                    295 ;src/player.c:185: check_collisions();
      0000EF CDr6Er09         [24]  296 	call	_check_collisions
                                    297 ;src/player.c:186: if(y_speed > 0 && (current_state != PLAYER_STATE_HURT && current_state != PLAYER_STATE_FALLING)){
      0000F2 21r0Cr00         [12]  298 	ld	hl, #_y_speed
      0000F5 5E               [ 8]  299 	ld	e, (hl)
      0000F6 AF               [ 4]  300 	xor	a, a
      0000F7 57               [ 4]  301 	ld	d, a
      0000F8 96               [ 8]  302 	sub	a, (hl)
      0000F9 CB 7B            [ 8]  303 	bit	7, e
      0000FB 28 07            [12]  304 	jr	Z, 00166$
      0000FD CB 7A            [ 8]  305 	bit	7, d
      0000FF 20 08            [12]  306 	jr	NZ, 00167$
      000101 BF               [ 4]  307 	cp	a, a
      000102 18 05            [12]  308 	jr	00167$
      000104                        309 00166$:
      000104 CB 7A            [ 8]  310 	bit	7, d
      000106 28 01            [12]  311 	jr	Z, 00167$
      000108 37               [ 4]  312 	scf
      000109                        313 00167$:
      000109 30 1A            [12]  314 	jr	NC, 00107$
      00010B FAr13r00         [16]  315 	ld	a,(#_current_state)
      00010E FE 04            [ 8]  316 	cp	a,#0x04
      000110 28 13            [12]  317 	jr	Z, 00107$
      000112 D6 03            [ 8]  318 	sub	a, #0x03
      000114 28 0F            [12]  319 	jr	Z, 00107$
                                    320 ;src/player.c:187: switch_state(PLAYER_STATE_FALLING);
      000116 3E 03            [ 8]  321 	ld	a, #0x03
      000118 CDr50r09         [24]  322 	call	_switch_state
                                    323 ;src/player.c:188: is_grounded = false;
      00011B 21r0Ar00         [12]  324 	ld	hl, #_is_grounded
      00011E 36 00            [12]  325 	ld	(hl), #0x00
                                    326 ;src/player.c:189: is_jumping = false;
      000120 21r0Br00         [12]  327 	ld	hl, #_is_jumping
      000123 36 00            [12]  328 	ld	(hl), #0x00
      000125                        329 00107$:
                                    330 ;src/player.c:192: if(current_state == PLAYER_STATE_FALLING && current_coyote_frames < COYOTE_FRAMES) current_coyote_frames++;
      000125 FAr13r00         [16]  331 	ld	a, (#_current_state)
      000128 D6 03            [ 8]  332 	sub	a, #0x03
      00012A 20 09            [12]  333 	jr	NZ, 00111$
      00012C 21r14r00         [12]  334 	ld	hl, #_current_coyote_frames
      00012F 7E               [ 8]  335 	ld	a, (hl)
      000130 D6 04            [ 8]  336 	sub	a, #0x04
      000132 30 01            [12]  337 	jr	NC, 00111$
      000134 34               [12]  338 	inc	(hl)
      000135                        339 00111$:
                                    340 ;src/player.c:194: update_score();
      000135 CDr4Dr0F         [24]  341 	call	_update_score
                                    342 ;src/player.c:196: last_x = player_x;
      000138 FAr0Dr00         [16]  343 	ld	a, (#_player_x)
      00013B EAr10r00         [16]  344 	ld	(#_last_x),a
      00013E FAr0Er00         [16]  345 	ld	a, (#_player_x + 1)
      000141 EAr11r00         [16]  346 	ld	(#_last_x + 1),a
                                    347 ;src/player.c:197: last_y = player_y;
      000144 FAr0Fr00         [16]  348 	ld	a, (#_player_y)
      000147 EAr12r00         [16]  349 	ld	(#_last_y),a
                                    350 ;src/player.c:199: render_all_particles();
      00014A CDrE9r06         [24]  351 	call	_render_all_particles
                                    352 ;src/player.c:201: render_player();
      00014D CDr4Br03         [24]  353 	call	_render_player
                                    354 ;src/player.c:203: end_frame();
                                    355 ;src/player.c:204: }
      000150 C3rE8r08         [16]  356 	jp	_end_frame
                                    357 ;src/player.c:206: static void retrieve_input(void){
                                    358 ;	---------------------------------
                                    359 ; Function retrieve_input
                                    360 ; ---------------------------------
      000153                        361 _retrieve_input:
                                    362 ;src/player.c:207: joy = joypad();
      000153 CDr00r00         [24]  363 	call	_joypad
                                    364 ;src/player.c:208: if (joy & J_RIGHT)
      000156 EAr05r00         [16]  365 	ld	(#_joy),a
      000159 CB 47            [ 8]  366 	bit	0, a
      00015B 28 2D            [12]  367 	jr	Z, 00120$
                                    368 ;src/player.c:210: if(is_grounded)switch_state(PLAYER_STATE_RUNNING);
      00015D 21r0Ar00         [12]  369 	ld	hl, #_is_grounded
      000160 CB 46            [12]  370 	bit	0, (hl)
      000162 28 05            [12]  371 	jr	Z, 00102$
      000164 3E 01            [ 8]  372 	ld	a, #0x01
      000166 CDr50r09         [24]  373 	call	_switch_state
      000169                        374 00102$:
                                    375 ;src/player.c:211: if (!is_facing_right && x_speed)
      000169 21r09r00         [12]  376 	ld	hl, #_is_facing_right
      00016C CB 46            [12]  377 	bit	0, (hl)
      00016E 20 0E            [12]  378 	jr	NZ, 00104$
      000170 21r08r00         [12]  379 	ld	hl, #_x_speed + 1
      000173 3A               [ 8]  380 	ld	a, (hl-)
      000174 B6               [ 8]  381 	or	a, (hl)
      000175 28 07            [12]  382 	jr	Z, 00104$
                                    383 ;src/player.c:213: x_force = 0;
      000177 21r06r00         [12]  384 	ld	hl, #_x_force
      00017A 36 00            [12]  385 	ld	(hl), #0x00
      00017C 18 52            [12]  386 	jr	00121$
      00017E                        387 00104$:
                                    388 ;src/player.c:217: is_facing_right = true;
      00017E 21r09r00         [12]  389 	ld	hl, #_is_facing_right
      000181 36 01            [12]  390 	ld	(hl), #0x01
                                    391 ;src/player.c:218: x_force = impulse;
      000183 21r06r00         [12]  392 	ld	hl, #_x_force
      000186 36 18            [12]  393 	ld	(hl), #0x18
      000188 18 46            [12]  394 	jr	00121$
      00018A                        395 00120$:
                                    396 ;src/player.c:221: else if (joy & J_LEFT)
      00018A CB 4F            [ 8]  397 	bit	1, a
      00018C 28 2D            [12]  398 	jr	Z, 00117$
                                    399 ;src/player.c:223: if(is_grounded)switch_state(PLAYER_STATE_RUNNING);
      00018E 21r0Ar00         [12]  400 	ld	hl, #_is_grounded
      000191 CB 46            [12]  401 	bit	0, (hl)
      000193 28 05            [12]  402 	jr	Z, 00108$
      000195 3E 01            [ 8]  403 	ld	a, #0x01
      000197 CDr50r09         [24]  404 	call	_switch_state
      00019A                        405 00108$:
                                    406 ;src/player.c:224: if (is_facing_right && x_speed)
      00019A 21r09r00         [12]  407 	ld	hl, #_is_facing_right
      00019D CB 46            [12]  408 	bit	0, (hl)
      00019F 28 0E            [12]  409 	jr	Z, 00110$
      0001A1 21r08r00         [12]  410 	ld	hl, #_x_speed + 1
      0001A4 3A               [ 8]  411 	ld	a, (hl-)
      0001A5 B6               [ 8]  412 	or	a, (hl)
      0001A6 28 07            [12]  413 	jr	Z, 00110$
                                    414 ;src/player.c:226: x_force = 0;
      0001A8 21r06r00         [12]  415 	ld	hl, #_x_force
      0001AB 36 00            [12]  416 	ld	(hl), #0x00
      0001AD 18 21            [12]  417 	jr	00121$
      0001AF                        418 00110$:
                                    419 ;src/player.c:230: is_facing_right = false;
      0001AF 21r09r00         [12]  420 	ld	hl, #_is_facing_right
      0001B2 36 00            [12]  421 	ld	(hl), #0x00
                                    422 ;src/player.c:231: x_force = impulse;
      0001B4 21r06r00         [12]  423 	ld	hl, #_x_force
      0001B7 36 18            [12]  424 	ld	(hl), #0x18
      0001B9 18 15            [12]  425 	jr	00121$
      0001BB                        426 00117$:
                                    427 ;src/player.c:236: x_force = 0;
      0001BB 21r06r00         [12]  428 	ld	hl, #_x_force
      0001BE 36 00            [12]  429 	ld	(hl), #0x00
                                    430 ;src/player.c:237: if((!x_speed) && (!y_speed)) switch_state(PLAYER_STATE_IDLE);
      0001C0 21r08r00         [12]  431 	ld	hl, #_x_speed + 1
      0001C3 3A               [ 8]  432 	ld	a, (hl-)
      0001C4 B6               [ 8]  433 	or	a, (hl)
      0001C5 20 09            [12]  434 	jr	NZ, 00121$
      0001C7 FAr0Cr00         [16]  435 	ld	a, (#_y_speed)
      0001CA B7               [ 4]  436 	or	a,a
      0001CB 20 03            [12]  437 	jr	NZ, 00121$
      0001CD CDr50r09         [24]  438 	call	_switch_state
      0001D0                        439 00121$:
                                    440 ;src/player.c:208: if (joy & J_RIGHT)
      0001D0 FAr05r00         [16]  441 	ld	a, (#_joy)
                                    442 ;src/player.c:239: if ((joy & J_A && a_not_pressed) && (is_grounded || current_coyote_frames < COYOTE_FRAMES) && (y_speed >= 0))
      0001D3 E6 10            [ 8]  443 	and	a, #0x10
      0001D5 4F               [ 4]  444 	ld	c, a
      0001D6 B7               [ 4]  445 	or	a, a
      0001D7 28 3A            [12]  446 	jr	Z, 00127$
      0001D9 21r03r00         [12]  447 	ld	hl, #_a_not_pressed
      0001DC CB 46            [12]  448 	bit	0, (hl)
      0001DE 28 33            [12]  449 	jr	Z, 00127$
      0001E0 21r0Ar00         [12]  450 	ld	hl, #_is_grounded
      0001E3 CB 46            [12]  451 	bit	0, (hl)
      0001E5 20 07            [12]  452 	jr	NZ, 00132$
      0001E7 FAr14r00         [16]  453 	ld	a, (#_current_coyote_frames)
      0001EA D6 04            [ 8]  454 	sub	a, #0x04
      0001EC 30 25            [12]  455 	jr	NC, 00127$
      0001EE                        456 00132$:
      0001EE FAr0Cr00         [16]  457 	ld	a, (#_y_speed)
      0001F1 CB 7F            [ 8]  458 	bit	7, a
      0001F3 20 1E            [12]  459 	jr	NZ, 00127$
                                    460 ;src/player.c:241: switch_state(PLAYER_STATE_JUMPING);
      0001F5 3E 02            [ 8]  461 	ld	a, #0x02
      0001F7 CDr50r09         [24]  462 	call	_switch_state
                                    463 ;src/player.c:242: play_jump_sfx();
      0001FA CDr00r00         [24]  464 	call	_play_jump_sfx
                                    465 ;src/player.c:243: a_not_pressed = false;
      0001FD 21r03r00         [12]  466 	ld	hl, #_a_not_pressed
      000200 36 00            [12]  467 	ld	(hl), #0x00
                                    468 ;src/player.c:244: y_speed = jump_power;
      000202 21r0Cr00         [12]  469 	ld	hl, #_y_speed
      000205 36 E0            [12]  470 	ld	(hl), #0xe0
                                    471 ;src/player.c:245: is_grounded = false;
      000207 21r0Ar00         [12]  472 	ld	hl, #_is_grounded
      00020A 36 00            [12]  473 	ld	(hl), #0x00
                                    474 ;src/player.c:246: is_jumping = true;
      00020C 21r0Br00         [12]  475 	ld	hl, #_is_jumping
      00020F 36 01            [12]  476 	ld	(hl), #0x01
      000211 18 31            [12]  477 	jr	00128$
      000213                        478 00127$:
                                    479 ;src/player.c:248: else if ((!(joy & J_A) || y_speed > 0) && !is_grounded)
      000213 79               [ 4]  480 	ld	a, c
      000214 B7               [ 4]  481 	or	a, a
      000215 28 19            [12]  482 	jr	Z, 00125$
      000217 21r0Cr00         [12]  483 	ld	hl, #_y_speed
      00021A 5E               [ 8]  484 	ld	e, (hl)
      00021B AF               [ 4]  485 	xor	a, a
      00021C 57               [ 4]  486 	ld	d, a
      00021D 96               [ 8]  487 	sub	a, (hl)
      00021E CB 7B            [ 8]  488 	bit	7, e
      000220 28 07            [12]  489 	jr	Z, 00258$
      000222 CB 7A            [ 8]  490 	bit	7, d
      000224 20 08            [12]  491 	jr	NZ, 00259$
      000226 BF               [ 4]  492 	cp	a, a
      000227 18 05            [12]  493 	jr	00259$
      000229                        494 00258$:
      000229 CB 7A            [ 8]  495 	bit	7, d
      00022B 28 01            [12]  496 	jr	Z, 00259$
      00022D 37               [ 4]  497 	scf
      00022E                        498 00259$:
      00022E 30 14            [12]  499 	jr	NC, 00128$
      000230                        500 00125$:
      000230 21r0Ar00         [12]  501 	ld	hl, #_is_grounded
      000233 CB 46            [12]  502 	bit	0, (hl)
      000235 20 0D            [12]  503 	jr	NZ, 00128$
                                    504 ;src/player.c:250: switch_state(PLAYER_STATE_FALLING);
      000237 3E 03            [ 8]  505 	ld	a, #0x03
      000239 CDr50r09         [24]  506 	call	_switch_state
                                    507 ;src/player.c:251: stop_jump_sfx();
      00023C CDr00r00         [24]  508 	call	_stop_jump_sfx
                                    509 ;src/player.c:252: is_jumping = false;
      00023F 21r0Br00         [12]  510 	ld	hl, #_is_jumping
      000242 36 00            [12]  511 	ld	(hl), #0x00
      000244                        512 00128$:
                                    513 ;src/player.c:254: if(!(joy & J_A)) a_not_pressed = true;
      000244 FAr05r00         [16]  514 	ld	a, (#_joy)
      000247 CB 67            [ 8]  515 	bit	4, a
      000249 C0               [20]  516 	ret	NZ
      00024A 21r03r00         [12]  517 	ld	hl, #_a_not_pressed
      00024D 36 01            [12]  518 	ld	(hl), #0x01
                                    519 ;src/player.c:255: }
      00024F C9               [16]  520 	ret
                                    521 ;src/player.c:257: static void calculate_physics(void){
                                    522 ;	---------------------------------
                                    523 ; Function calculate_physics
                                    524 ; ---------------------------------
      000250                        525 _calculate_physics:
      000250 3B               [ 8]  526 	dec	sp
      000251 3B               [ 8]  527 	dec	sp
                                    528 ;src/player.c:262: player_x = is_facing_right ? player_x + (x_speed) /*+ (x_force >> 2)*/ : player_x - (x_speed) /*- (x_force >> 2)*/;
      000252 FAr07r00         [16]  529 	ld	a, (#_x_speed)
      000255 F8 00            [12]  530 	ldhl	sp,	#0
      000257 77               [ 8]  531 	ld	(hl), a
      000258 FAr08r00         [16]  532 	ld	a, (#_x_speed + 1)
      00025B F8 01            [12]  533 	ldhl	sp,	#1
      00025D 77               [ 8]  534 	ld	(hl), a
      00025E 21r09r00         [12]  535 	ld	hl, #_is_facing_right
      000261 CB 46            [12]  536 	bit	0, (hl)
      000263 28 0D            [12]  537 	jr	Z, 00111$
      000265 D1               [12]  538 	pop	de
      000266 D5               [16]  539 	push	de
      000267 21r0Dr00         [12]  540 	ld	hl, #_player_x
      00026A 2A               [ 8]  541 	ld	a,	(hl+)
      00026B 66               [ 8]  542 	ld	h, (hl)
      00026C 6F               [ 4]  543 	ld	l, a
      00026D 19               [ 8]  544 	add	hl, de
      00026E 4D               [ 4]  545 	ld	c, l
      00026F 44               [ 4]  546 	ld	b, h
      000270 18 0F            [12]  547 	jr	00112$
      000272                        548 00111$:
      000272 21r0Dr00         [12]  549 	ld	hl, #_player_x
      000275 2A               [ 8]  550 	ld	a, (hl+)
      000276 5F               [ 4]  551 	ld	e, a
      000277 56               [ 8]  552 	ld	d, (hl)
      000278 E1               [12]  553 	pop	hl
      000279 E5               [16]  554 	push	hl
      00027A 7B               [ 4]  555 	ld	a, e
      00027B 95               [ 4]  556 	sub	a, l
      00027C 5F               [ 4]  557 	ld	e, a
      00027D 7A               [ 4]  558 	ld	a, d
      00027E 9C               [ 4]  559 	sbc	a, h
      00027F 47               [ 4]  560 	ld	b, a
      000280 4B               [ 4]  561 	ld	c, e
      000281                        562 00112$:
      000281 21r0Dr00         [12]  563 	ld	hl, #_player_x
      000284 79               [ 4]  564 	ld	a, c
      000285 22               [ 8]  565 	ld	(hl+), a
      000286 70               [ 8]  566 	ld	(hl), b
                                    567 ;src/player.c:263: if((uint8_t)(SUB_TO_PX(player_x) - 10U) > 160U) {
      000287 7E               [ 8]  568 	ld	a, (hl)
      000288 C6 F6            [ 8]  569 	add	a, #0xf6
      00028A 4F               [ 4]  570 	ld	c, a
      00028B 3E A0            [ 8]  571 	ld	a, #0xa0
      00028D 91               [ 4]  572 	sub	a, c
      00028E 30 1C            [12]  573 	jr	NC, 00105$
                                    574 ;src/player.c:264: if((uint8_t)(SUB_TO_PX(player_x) - 10U) < 200) player_x = player_x - (160U << 8); //right exit
      000290 2B               [ 8]  575 	dec	hl
      000291 2A               [ 8]  576 	ld	a, (hl+)
      000292 5F               [ 4]  577 	ld	e, a
      000293 46               [ 8]  578 	ld	b, (hl)
      000294 79               [ 4]  579 	ld	a, c
      000295 D6 C8            [ 8]  580 	sub	a, #0xc8
      000297 30 0A            [12]  581 	jr	NC, 00102$
      000299 2B               [ 8]  582 	dec	hl
      00029A 4B               [ 4]  583 	ld	c, e
      00029B 78               [ 4]  584 	ld	a,b
      00029C C6 60            [ 8]  585 	add	a,#0x60
      00029E 71               [ 8]  586 	ld	(hl), c
      00029F 23               [ 8]  587 	inc	hl
      0002A0 77               [ 8]  588 	ld	(hl), a
      0002A1 18 09            [12]  589 	jr	00105$
      0002A3                        590 00102$:
                                    591 ;src/player.c:265: else player_x = player_x + (160U << 8); //left exit
      0002A3 78               [ 4]  592 	ld	a, b
      0002A4 C6 A0            [ 8]  593 	add	a, #0xa0
      0002A6 21r0Dr00         [12]  594 	ld	hl, #_player_x
      0002A9 73               [ 8]  595 	ld	(hl), e
      0002AA 23               [ 8]  596 	inc	hl
      0002AB 77               [ 8]  597 	ld	(hl), a
      0002AC                        598 00105$:
                                    599 ;src/player.c:270: x_speed = x_speed >= clamp_x_velocity ? clamp_x_velocity : x_speed + x_force;
      0002AC 21r07r00         [12]  600 	ld	hl, #_x_speed
      0002AF 2A               [ 8]  601 	ld	a, (hl+)
      0002B0 4F               [ 4]  602 	ld	c, a
      0002B1 46               [ 8]  603 	ld	b, (hl)
                                    604 ;src/player.c:267: if (x_force)
      0002B2 FAr06r00         [16]  605 	ld	a, (#_x_force)
      0002B5 B7               [ 4]  606 	or	a, a
      0002B6 28 20            [12]  607 	jr	Z, 00107$
                                    608 ;src/player.c:270: x_speed = x_speed >= clamp_x_velocity ? clamp_x_velocity : x_speed + x_force;
      0002B8 F8 00            [12]  609 	ldhl	sp,	#0
      0002BA 2A               [ 8]  610 	ld	a, (hl+)
      0002BB D6 00            [ 8]  611 	sub	a, #0x00
      0002BD 7E               [ 8]  612 	ld	a, (hl)
      0002BE DE 02            [ 8]  613 	sbc	a, #0x02
      0002C0 38 05            [12]  614 	jr	C, 00113$
      0002C2 01 00 02         [12]  615 	ld	bc, #0x0200
      0002C5 18 09            [12]  616 	jr	00114$
      0002C7                        617 00113$:
      0002C7 21r06r00         [12]  618 	ld	hl, #_x_force
      0002CA 6E               [ 8]  619 	ld	l, (hl)
                                    620 ;	spillPairReg hl
                                    621 ;	spillPairReg hl
      0002CB 26 00            [ 8]  622 	ld	h, #0x00
                                    623 ;	spillPairReg hl
                                    624 ;	spillPairReg hl
      0002CD 09               [ 8]  625 	add	hl, bc
      0002CE 4D               [ 4]  626 	ld	c, l
      0002CF 44               [ 4]  627 	ld	b, h
      0002D0                        628 00114$:
      0002D0 21r07r00         [12]  629 	ld	hl, #_x_speed
      0002D3 79               [ 4]  630 	ld	a, c
      0002D4 22               [ 8]  631 	ld	(hl+), a
      0002D5 70               [ 8]  632 	ld	(hl), b
      0002D6 18 31            [12]  633 	jr	00108$
      0002D8                        634 00107$:
                                    635 ;src/player.c:275: x_speed = x_speed <= 0 ? 0 : MAX(0, x_speed - (impulse<<1));
      0002D8 58               [ 4]  636 	ld	e, b
      0002D9 AF               [ 4]  637 	xor	a, a
      0002DA 57               [ 4]  638 	ld	d, a
      0002DB B9               [ 4]  639 	cp	a, c
      0002DC 98               [ 4]  640 	sbc	a, b
      0002DD CB 7B            [ 8]  641 	bit	7, e
      0002DF 28 07            [12]  642 	jr	Z, 00195$
      0002E1 CB 7A            [ 8]  643 	bit	7, d
      0002E3 20 08            [12]  644 	jr	NZ, 00196$
      0002E5 BF               [ 4]  645 	cp	a, a
      0002E6 18 05            [12]  646 	jr	00196$
      0002E8                        647 00195$:
      0002E8 CB 7A            [ 8]  648 	bit	7, d
      0002EA 28 01            [12]  649 	jr	Z, 00196$
      0002EC 37               [ 4]  650 	scf
      0002ED                        651 00196$:
      0002ED 38 05            [12]  652 	jr	C, 00115$
      0002EF 01 00 00         [12]  653 	ld	bc, #0x0000
      0002F2 18 0F            [12]  654 	jr	00116$
      0002F4                        655 00115$:
      0002F4 79               [ 4]  656 	ld	a, c
      0002F5 C6 D0            [ 8]  657 	add	a, #0xd0
      0002F7 4F               [ 4]  658 	ld	c, a
      0002F8 78               [ 4]  659 	ld	a, b
      0002F9 CE FF            [ 8]  660 	adc	a, #0xff
      0002FB 47               [ 4]  661 	ld	b, a
      0002FC CB 78            [ 8]  662 	bit	7, b
      0002FE 28 03            [12]  663 	jr	Z, 00117$
      000300 01 00 00         [12]  664 	ld	bc, #0x0000
      000303                        665 00117$:
      000303                        666 00116$:
      000303 21r07r00         [12]  667 	ld	hl, #_x_speed
      000306 79               [ 4]  668 	ld	a, c
      000307 22               [ 8]  669 	ld	(hl+), a
      000308 70               [ 8]  670 	ld	(hl), b
      000309                        671 00108$:
                                    672 ;src/player.c:278: player_y += (y_speed >> (PHYSICS_DAMPNER + 1)) + ((is_jumping ? jump_g : fall_g) >> 2);
      000309 21r0Cr00         [12]  673 	ld	hl, #_y_speed
      00030C 4E               [ 8]  674 	ld	c, (hl)
      00030D CB 29            [ 8]  675 	sra	c
      00030F CB 29            [ 8]  676 	sra	c
      000311 CB 29            [ 8]  677 	sra	c
      000313 21r0Br00         [12]  678 	ld	hl, #_is_jumping
      000316 CB 46            [12]  679 	bit	0, (hl)
      000318 3E 02            [ 8]  680 	ld	a, #0x02
      00031A 20 02            [12]  681 	jr	NZ, 00120$
      00031C 3E 04            [ 8]  682 	ld	a, #0x04
      00031E                        683 00120$:
      00031E 0F               [ 4]  684 	rrca
      00031F 0F               [ 4]  685 	rrca
      000320 E6 3F            [ 8]  686 	and	a, #0x3f
      000322 81               [ 4]  687 	add	a, c
      000323 21r0Fr00         [12]  688 	ld	hl, #_player_y
      000326 4E               [ 8]  689 	ld	c, (hl)
      000327 81               [ 4]  690 	add	a, c
      000328 77               [ 8]  691 	ld	(hl), a
                                    692 ;src/player.c:281: y_speed = y_speed >= clamp_y_velocity ? clamp_y_velocity : y_speed + (is_jumping ? jump_g : fall_g);
      000329 FAr0Cr00         [16]  693 	ld	a, (#_y_speed)
      00032C EE 80            [ 8]  694 	xor	a, #0x80
      00032E D6 94            [ 8]  695 	sub	a, #0x94
      000330 38 04            [12]  696 	jr	C, 00121$
      000332 3E 14            [ 8]  697 	ld	a, #0x14
      000334 18 0F            [12]  698 	jr	00122$
      000336                        699 00121$:
      000336 21r0Br00         [12]  700 	ld	hl, #_is_jumping
      000339 CB 46            [12]  701 	bit	0, (hl)
      00033B 3E 02            [ 8]  702 	ld	a, #0x02
      00033D 20 02            [12]  703 	jr	NZ, 00124$
      00033F 3E 04            [ 8]  704 	ld	a, #0x04
      000341                        705 00124$:
      000341 21r0Cr00         [12]  706 	ld	hl, #_y_speed
      000344 86               [ 8]  707 	add	a, (hl)
      000345                        708 00122$:
      000345 EAr0Cr00         [16]  709 	ld	(#_y_speed),a
                                    710 ;src/player.c:282: }
      000348 33               [ 8]  711 	inc	sp
      000349 33               [ 8]  712 	inc	sp
      00034A C9               [16]  713 	ret
                                    714 ;src/player.c:284: void render_player(void){
                                    715 ;	---------------------------------
                                    716 ; Function render_player
                                    717 ; ---------------------------------
      00034B                        718 _render_player::
      00034B E8 F8            [16]  719 	add	sp, #-8
                                    720 ;src/player.c:288: if(!player_dead_flag && (uint8_t)(player_y - camera_y) > 160U) {
      00034D FAr0Fr00         [16]  721 	ld	a, (#_player_y)
      000350 21r00r00         [12]  722 	ld	hl, #_camera_y
      000353 96               [ 8]  723 	sub	a, (hl)
      000354 F8 07            [12]  724 	ldhl	sp,	#7
      000356 77               [ 8]  725 	ld	(hl), a
      000357 21r00r00         [12]  726 	ld	hl, #_player_dead_flag
      00035A CB 46            [12]  727 	bit	0, (hl)
      00035C 20 20            [12]  728 	jr	NZ, 00102$
      00035E 3E A0            [ 8]  729 	ld	a, #0xa0
      000360 F8 07            [12]  730 	ldhl	sp,	#7
      000362 96               [ 8]  731 	sub	a, (hl)
      000363 30 19            [12]  732 	jr	NC, 00102$
                                    733 ;src/player.c:289: player_dead_flag = true;
      000365 21r00r00         [12]  734 	ld	hl, #_player_dead_flag
      000368 36 01            [12]  735 	ld	(hl), #0x01
                                    736 ;src/player.c:290: game_ended_flag = true;
      00036A 21r00r00         [12]  737 	ld	hl, #_game_ended_flag
      00036D 36 01            [12]  738 	ld	(hl), #0x01
                                    739 ;src/player.c:291: calculate_final_score();
      00036F CDrC4r0F         [24]  740 	call	_calculate_final_score
                                    741 ;src/player.c:292: stop_sfx();
      000372 CDr00r00         [24]  742 	call	_stop_sfx
                                    743 ;src/player.c:295: hide_sprites_range(0, 20);
      000375 1E 14            [ 8]  744 	ld	e, #0x14
      000377 AF               [ 4]  745 	xor	a, a
      000378 CDr00r00         [24]  746 	call	_hide_sprites_range
                                    747 ;src/player.c:296: return;
      00037B C3rE6r06         [16]  748 	jp	00127$
      00037E                        749 00102$:
                                    750 ;src/player.c:299: hide_metasprite(metasprites_states[current_state][current_frame], 0);
      00037E 21r13r00         [12]  751 	ld	hl, #_current_state
      000381 46               [ 8]  752 	ld	b, (hl)
      000382 1E 00            [ 8]  753 	ld	e, #0x00
      000384 FAr02r00         [16]  754 	ld	a, (#_current_frame)
      000387 0E 00            [ 8]  755 	ld	c, #0x00
      000389 CB 20            [ 8]  756 	sla	b
      00038B CB 13            [ 8]  757 	rl	e
      00038D F8 04            [12]  758 	ldhl	sp,	#4
      00038F 70               [ 8]  759 	ld	(hl), b
      000390 23               [ 8]  760 	inc	hl
      000391 73               [ 8]  761 	ld	(hl), e
      000392 87               [ 4]  762 	add	a, a
      000393 CB 11            [ 8]  763 	rl	c
      000395 F8 00            [12]  764 	ldhl	sp,	#0
      000397 22               [ 8]  765 	ld	(hl+), a
      000398 71               [ 8]  766 	ld	(hl), c
                                    767 ;src/player.c:298: if(current_state == PLAYER_STATE_HURT && (frame_counter & 0x02)){
      000399 FAr13r00         [16]  768 	ld	a, (#_current_state)
      00039C D6 04            [ 8]  769 	sub	a, #0x04
      00039E 20 52            [12]  770 	jr	NZ, 00107$
      0003A0 FAr01r00         [16]  771 	ld	a, (#_frame_counter)
      0003A3 CB 4F            [ 8]  772 	bit	1, a
      0003A5 28 4B            [12]  773 	jr	Z, 00107$
                                    774 ;src/player.c:299: hide_metasprite(metasprites_states[current_state][current_frame], 0);
      0003A7 11r00r00         [12]  775 	ld	de, #_metasprites_states
      0003AA F8 04            [12]  776 	ldhl	sp,	#4
      0003AC 2A               [ 8]  777 	ld	a,	(hl+)
      0003AD 66               [ 8]  778 	ld	h, (hl)
      0003AE 6F               [ 4]  779 	ld	l, a
      0003AF 19               [ 8]  780 	add	hl, de
      0003B0 2A               [ 8]  781 	ld	a, (hl+)
      0003B1 4F               [ 4]  782 	ld	c, a
      0003B2 46               [ 8]  783 	ld	b, (hl)
      0003B3 E1               [12]  784 	pop	hl
      0003B4 E5               [16]  785 	push	hl
      0003B5 09               [ 8]  786 	add	hl, bc
      0003B6 2A               [ 8]  787 	ld	a, (hl+)
      0003B7 4F               [ 4]  788 	ld	c, a
      0003B8 7E               [ 8]  789 	ld	a, (hl)
                                    790 ;/home/javier/Escritorio/gb_development/gbdk/include/gb/metasprites.h:297: __current_metasprite = metasprite;
      0003B9 21r00r00         [12]  791 	ld	hl, #___current_metasprite
      0003BC 71               [ 8]  792 	ld	(hl), c
      0003BD 23               [ 8]  793 	inc	hl
      0003BE 77               [ 8]  794 	ld	(hl), a
                                    795 ;/home/javier/Escritorio/gb_development/gbdk/include/gb/metasprites.h:298: __hide_metasprite(base_sprite);
      0003BF AF               [ 4]  796 	xor	a, a
      0003C0 CDr00r00         [24]  797 	call	___hide_metasprite
                                    798 ;src/player.c:300: hide_metasprite(metasprites_states[current_state][current_frame], 4);
      0003C3 21r13r00         [12]  799 	ld	hl, #_current_state
      0003C6 6E               [ 8]  800 	ld	l, (hl)
                                    801 ;	spillPairReg hl
                                    802 ;	spillPairReg hl
      0003C7 26 00            [ 8]  803 	ld	h, #0x00
                                    804 ;	spillPairReg hl
                                    805 ;	spillPairReg hl
      0003C9 29               [ 8]  806 	add	hl, hl
      0003CA 11r00r00         [12]  807 	ld	de, #_metasprites_states
      0003CD 19               [ 8]  808 	add	hl, de
      0003CE 2A               [ 8]  809 	ld	a, (hl+)
      0003CF 4F               [ 4]  810 	ld	c, a
      0003D0 46               [ 8]  811 	ld	b, (hl)
      0003D1 21r02r00         [12]  812 	ld	hl, #_current_frame
      0003D4 6E               [ 8]  813 	ld	l, (hl)
                                    814 ;	spillPairReg hl
                                    815 ;	spillPairReg hl
      0003D5 26 00            [ 8]  816 	ld	h, #0x00
                                    817 ;	spillPairReg hl
                                    818 ;	spillPairReg hl
      0003D7 29               [ 8]  819 	add	hl, hl
      0003D8 09               [ 8]  820 	add	hl, bc
      0003D9 2A               [ 8]  821 	ld	a, (hl+)
      0003DA 4E               [ 8]  822 	ld	c, (hl)
                                    823 ;/home/javier/Escritorio/gb_development/gbdk/include/gb/metasprites.h:297: __current_metasprite = metasprite;
      0003DB 21r00r00         [12]  824 	ld	hl, #___current_metasprite
      0003DE 22               [ 8]  825 	ld	(hl+), a
      0003DF 71               [ 8]  826 	ld	(hl), c
                                    827 ;/home/javier/Escritorio/gb_development/gbdk/include/gb/metasprites.h:298: __hide_metasprite(base_sprite);
      0003E0 3E 04            [ 8]  828 	ld	a, #0x04
      0003E2 CDr00r00         [24]  829 	call	___hide_metasprite
                                    830 ;src/player.c:301: if(frame_counter & 0x01)play_hurt_sfx();
      0003E5 FAr01r00         [16]  831 	ld	a, (#_frame_counter)
      0003E8 0F               [ 4]  832 	rrca
      0003E9 D2rE6r06         [16]  833 	jp	NC,00127$
      0003EC CDr00r00         [24]  834 	call	_play_hurt_sfx
                                    835 ;src/player.c:302: return;
      0003EF C3rE6r06         [16]  836 	jp	00127$
      0003F2                        837 00107$:
                                    838 ;src/player.c:305: is_facing_right?move_metasprite(metasprites_states[current_state][current_frame], TILE_NUM_START, SPR_NUM_START, SUB_TO_PX(player_x), (uint8_t)(player_y - camera_y)): move_metasprite_vflip(metasprites_states[current_state][current_frame], TILE_NUM_START, SPR_NUM_START, SUB_TO_PX(player_x), (uint8_t)(player_y - camera_y));
      0003F2 21r09r00         [12]  839 	ld	hl, #_is_facing_right
      0003F5 CB 46            [12]  840 	bit	0, (hl)
      0003F7 CAr7Fr04         [16]  841 	jp	Z, 00129$
      0003FA F8 07            [12]  842 	ldhl	sp,	#7
      0003FC 7E               [ 8]  843 	ld	a, (hl)
      0003FD F8 02            [12]  844 	ldhl	sp,	#2
      0003FF 77               [ 8]  845 	ld	(hl), a
      000400 FAr0Er00         [16]  846 	ld	a, (#_player_x + 1)
      000403 F8 03            [12]  847 	ldhl	sp,	#3
      000405 22               [ 8]  848 	ld	(hl+), a
      000406 2A               [ 8]  849 	ld	a, (hl+)
      000407 5F               [ 4]  850 	ld	e, a
      000408 56               [ 8]  851 	ld	d, (hl)
      000409 21r00r00         [12]  852 	ld	hl, #_metasprites_states
      00040C 19               [ 8]  853 	add	hl, de
      00040D E5               [16]  854 	push	hl
      00040E 7D               [ 4]  855 	ld	a, l
      00040F F8 08            [12]  856 	ldhl	sp,	#8
      000411 77               [ 8]  857 	ld	(hl), a
      000412 E1               [12]  858 	pop	hl
      000413 7C               [ 4]  859 	ld	a, h
      000414 F8 07            [12]  860 	ldhl	sp,	#7
      000416 32               [ 8]  861 	ld	(hl-), a
      000417 2A               [ 8]  862 	ld	a, (hl+)
      000418 5F               [ 4]  863 	ld	e, a
      000419 56               [ 8]  864 	ld	d, (hl)
      00041A 1A               [ 8]  865 	ld	a, (de)
      00041B F8 04            [12]  866 	ldhl	sp,	#4
      00041D 22               [ 8]  867 	ld	(hl+), a
      00041E 13               [ 8]  868 	inc	de
      00041F 1A               [ 8]  869 	ld	a, (de)
      000420 32               [ 8]  870 	ld	(hl-), a
      000421 2A               [ 8]  871 	ld	a, (hl+)
      000422 5F               [ 4]  872 	ld	e, a
      000423 56               [ 8]  873 	ld	d, (hl)
      000424 E1               [12]  874 	pop	hl
      000425 E5               [16]  875 	push	hl
      000426 19               [ 8]  876 	add	hl, de
      000427 E5               [16]  877 	push	hl
      000428 7D               [ 4]  878 	ld	a, l
      000429 F8 08            [12]  879 	ldhl	sp,	#8
      00042B 77               [ 8]  880 	ld	(hl), a
      00042C E1               [12]  881 	pop	hl
      00042D 7C               [ 4]  882 	ld	a, h
      00042E F8 07            [12]  883 	ldhl	sp,	#7
      000430 32               [ 8]  884 	ld	(hl-), a
      000431 2A               [ 8]  885 	ld	a, (hl+)
      000432 5F               [ 4]  886 	ld	e, a
      000433 3A               [ 8]  887 	ld	a, (hl-)
      000434 57               [ 4]  888 	ld	d, a
      000435 1A               [ 8]  889 	ld	a, (de)
      000436 22               [ 8]  890 	ld	(hl+), a
      000437 13               [ 8]  891 	inc	de
      000438 1A               [ 8]  892 	ld	a, (de)
                                    893 ;/home/javier/Escritorio/gb_development/gbdk/include/gb/metasprites.h:160: __current_metasprite = metasprite;
      000439 32               [ 8]  894 	ld	(hl-), a
      00043A 7E               [ 8]  895 	ld	a, (hl)
      00043B EAr00r00         [16]  896 	ld	(#___current_metasprite),a
      00043E F8 07            [12]  897 	ldhl	sp,	#7
      000440 7E               [ 8]  898 	ld	a, (hl)
      000441 EAr01r00         [16]  899 	ld	(#___current_metasprite + 1),a
                                    900 ;/home/javier/Escritorio/gb_development/gbdk/include/gb/metasprites.h:161: __current_base_tile = base_tile;
      000444 21r00r00         [12]  901 	ld	hl, #___current_base_tile
      000447 36 00            [12]  902 	ld	(hl), #0x00
                                    903 ;/home/javier/Escritorio/gb_development/gbdk/include/gb/metasprites.h:162: __current_base_prop = 0;
      000449 21r00r00         [12]  904 	ld	hl, #___current_base_prop
      00044C 36 00            [12]  905 	ld	(hl), #0x00
                                    906 ;/home/javier/Escritorio/gb_development/gbdk/include/gb/metasprites.h:163: return __move_metasprite(base_sprite, (y << 8) | (uint8_t)x);
      00044E F8 02            [12]  907 	ldhl	sp,	#2
      000450 7E               [ 8]  908 	ld	a, (hl)
      000451 F8 06            [12]  909 	ldhl	sp,	#6
      000453 22               [ 8]  910 	ld	(hl+), a
      000454 AF               [ 4]  911 	xor	a, a
      000455 32               [ 8]  912 	ld	(hl-), a
      000456 2A               [ 8]  913 	ld	a, (hl+)
      000457 32               [ 8]  914 	ld	(hl-), a
      000458 36 00            [12]  915 	ld	(hl), #0x00
      00045A F8 03            [12]  916 	ldhl	sp,	#3
      00045C 2A               [ 8]  917 	ld	a, (hl+)
      00045D 22               [ 8]  918 	ld	(hl+), a
      00045E AF               [ 4]  919 	xor	a, a
      00045F 22               [ 8]  920 	ld	(hl+), a
      000460 3A               [ 8]  921 	ld	a, (hl-)
      000461 2B               [ 8]  922 	dec	hl
      000462 B6               [ 8]  923 	or	a, (hl)
      000463 2B               [ 8]  924 	dec	hl
      000464 2B               [ 8]  925 	dec	hl
      000465 77               [ 8]  926 	ld	(hl), a
      000466 F8 07            [12]  927 	ldhl	sp,	#7
      000468 7E               [ 8]  928 	ld	a, (hl)
      000469 F8 03            [12]  929 	ldhl	sp,	#3
      00046B 32               [ 8]  930 	ld	(hl-), a
      00046C 7E               [ 8]  931 	ld	a, (hl)
      00046D F8 06            [12]  932 	ldhl	sp,	#6
      00046F 77               [ 8]  933 	ld	(hl), a
      000470 F8 03            [12]  934 	ldhl	sp,	#3
      000472 7E               [ 8]  935 	ld	a, (hl)
      000473 F8 07            [12]  936 	ldhl	sp,	#7
      000475 32               [ 8]  937 	ld	(hl-), a
      000476 2A               [ 8]  938 	ld	a, (hl+)
      000477 5F               [ 4]  939 	ld	e, a
      000478 56               [ 8]  940 	ld	d, (hl)
      000479 AF               [ 4]  941 	xor	a, a
      00047A CDr00r00         [24]  942 	call	___move_metasprite
                                    943 ;src/player.c:305: is_facing_right?move_metasprite(metasprites_states[current_state][current_frame], TILE_NUM_START, SPR_NUM_START, SUB_TO_PX(player_x), (uint8_t)(player_y - camera_y)): move_metasprite_vflip(metasprites_states[current_state][current_frame], TILE_NUM_START, SPR_NUM_START, SUB_TO_PX(player_x), (uint8_t)(player_y - camera_y));
      00047D 18 35            [12]  944 	jr	00130$
      00047F                        945 00129$:
      00047F FAr0Er00         [16]  946 	ld	a, (#_player_x + 1)
      000482 F8 06            [12]  947 	ldhl	sp,	#6
      000484 32               [ 8]  948 	ld	(hl-), a
      000485 11r00r00         [12]  949 	ld	de, #_metasprites_states
      000488 3A               [ 8]  950 	ld	a, (hl-)
      000489 6E               [ 8]  951 	ld	l, (hl)
      00048A 67               [ 4]  952 	ld	h, a
      00048B 19               [ 8]  953 	add	hl, de
      00048C 2A               [ 8]  954 	ld	a, (hl+)
      00048D 4F               [ 4]  955 	ld	c, a
      00048E 46               [ 8]  956 	ld	b, (hl)
      00048F E1               [12]  957 	pop	hl
      000490 E5               [16]  958 	push	hl
      000491 09               [ 8]  959 	add	hl, bc
      000492 2A               [ 8]  960 	ld	a, (hl+)
      000493 4F               [ 4]  961 	ld	c, a
      000494 7E               [ 8]  962 	ld	a, (hl)
                                    963 ;/home/javier/Escritorio/gb_development/gbdk/include/gb/metasprites.h:200: __current_metasprite = metasprite;
      000495 21r00r00         [12]  964 	ld	hl, #___current_metasprite
      000498 71               [ 8]  965 	ld	(hl), c
      000499 23               [ 8]  966 	inc	hl
      00049A 77               [ 8]  967 	ld	(hl), a
                                    968 ;/home/javier/Escritorio/gb_development/gbdk/include/gb/metasprites.h:201: __current_base_tile = base_tile;
      00049B 21r00r00         [12]  969 	ld	hl, #___current_base_tile
      00049E 36 00            [12]  970 	ld	(hl), #0x00
                                    971 ;/home/javier/Escritorio/gb_development/gbdk/include/gb/metasprites.h:202: __current_base_prop = 0;
      0004A0 21r00r00         [12]  972 	ld	hl, #___current_base_prop
      0004A3 36 00            [12]  973 	ld	(hl), #0x00
                                    974 ;/home/javier/Escritorio/gb_development/gbdk/include/gb/metasprites.h:203: return __move_metasprite_vflip(base_sprite, (y << 8) | (uint8_t)(x - 8u));
      0004A5 F8 07            [12]  975 	ldhl	sp,	#7
      0004A7 3A               [ 8]  976 	ld	a, (hl-)
      0004A8 57               [ 4]  977 	ld	d, a
      0004A9 1E 00            [ 8]  978 	ld	e, #0x00
      0004AB 7E               [ 8]  979 	ld	a, (hl)
      0004AC C6 F8            [ 8]  980 	add	a, #0xf8
      0004AE B3               [ 4]  981 	or	a,e
      0004AF 5F               [ 4]  982 	ld	e, a
      0004B0 AF               [ 4]  983 	xor	a, a
      0004B1 CDr00r00         [24]  984 	call	___move_metasprite_vflip
                                    985 ;src/player.c:305: is_facing_right?move_metasprite(metasprites_states[current_state][current_frame], TILE_NUM_START, SPR_NUM_START, SUB_TO_PX(player_x), (uint8_t)(player_y - camera_y)): move_metasprite_vflip(metasprites_states[current_state][current_frame], TILE_NUM_START, SPR_NUM_START, SUB_TO_PX(player_x), (uint8_t)(player_y - camera_y));
      0004B4                        986 00130$:
                                    987 ;src/player.c:306: if((uint8_t)(SUB_TO_PX(player_x)) > 160U) {
      0004B4 FAr0Er00         [16]  988 	ld	a, (#_player_x + 1)
      0004B7 F8 03            [12]  989 	ldhl	sp,	#3
      0004B9 77               [ 8]  990 	ld	(hl), a
                                    991 ;src/player.c:299: hide_metasprite(metasprites_states[current_state][current_frame], 0);
      0004BA 21r13r00         [12]  992 	ld	hl, #_current_state
      0004BD 5E               [ 8]  993 	ld	e, (hl)
      0004BE 16 00            [ 8]  994 	ld	d, #0x00
      0004C0 21r02r00         [12]  995 	ld	hl, #_current_frame
      0004C3 4E               [ 8]  996 	ld	c, (hl)
      0004C4 06 00            [ 8]  997 	ld	b, #0x00
      0004C6 CB 23            [ 8]  998 	sla	e
      0004C8 CB 12            [ 8]  999 	rl	d
      0004CA F8 04            [12] 1000 	ldhl	sp,	#4
      0004CC 7B               [ 4] 1001 	ld	a, e
      0004CD 22               [ 8] 1002 	ld	(hl+), a
                                   1003 ;src/player.c:306: if((uint8_t)(SUB_TO_PX(player_x)) > 160U) {
      0004CE 7A               [ 4] 1004 	ld	a, d
      0004CF 32               [ 8] 1005 	ld	(hl-), a
      0004D0 2B               [ 8] 1006 	dec	hl
      0004D1 CB 21            [ 8] 1007 	sla	c
      0004D3 CB 10            [ 8] 1008 	rl	b
      0004D5 33               [ 8] 1009 	inc	sp
      0004D6 33               [ 8] 1010 	inc	sp
      0004D7 C5               [16] 1011 	push	bc
      0004D8 3E A0            [ 8] 1012 	ld	a, #0xa0
      0004DA 96               [ 8] 1013 	sub	a, (hl)
      0004DB D2r85r06         [16] 1014 	jp	NC, 00113$
                                   1015 ;src/player.c:288: if(!player_dead_flag && (uint8_t)(player_y - camera_y) > 160U) {
      0004DE FAr0Fr00         [16] 1016 	ld	a, (#_player_y)
      0004E1 21r00r00         [12] 1017 	ld	hl, #_camera_y
      0004E4 96               [ 8] 1018 	sub	a, (hl)
      0004E5 F8 06            [12] 1019 	ldhl	sp,	#6
      0004E7 77               [ 8] 1020 	ld	(hl), a
                                   1021 ;src/player.c:307: if((uint8_t)(SUB_TO_PX(player_x)) < 200) is_facing_right?move_metasprite(metasprites_states[current_state][current_frame], TILE_NUM_START, 4, SUB_TO_PX(player_x) - 160U, (uint8_t)(player_y - camera_y)): move_metasprite_vflip(metasprites_states[current_state][current_frame], TILE_NUM_START, 4, SUB_TO_PX(player_x) - 160, (uint8_t)(player_y - camera_y)); //right exit
      0004E8 F8 03            [12] 1022 	ldhl	sp,	#3
      0004EA 7E               [ 8] 1023 	ld	a, (hl)
      0004EB F8 07            [12] 1024 	ldhl	sp,	#7
      0004ED 77               [ 8] 1025 	ld	(hl), a
      0004EE F8 03            [12] 1026 	ldhl	sp,	#3
      0004F0 7E               [ 8] 1027 	ld	a, (hl)
      0004F1 D6 C8            [ 8] 1028 	sub	a, #0xc8
      0004F3 D2r76r05         [16] 1029 	jp	NC, 00110$
      0004F6 21r09r00         [12] 1030 	ld	hl, #_is_facing_right
      0004F9 CB 46            [12] 1031 	bit	0, (hl)
      0004FB 28 3E            [12] 1032 	jr	Z, 00131$
      0004FD F8 06            [12] 1033 	ldhl	sp,	#6
      0004FF 2A               [ 8] 1034 	ld	a, (hl+)
      000500 77               [ 8] 1035 	ld	(hl), a
      000501 F8 03            [12] 1036 	ldhl	sp,	#3
      000503 7E               [ 8] 1037 	ld	a, (hl)
      000504 C6 60            [ 8] 1038 	add	a, #0x60
      000506 F8 06            [12] 1039 	ldhl	sp,	#6
      000508 32               [ 8] 1040 	ld	(hl-), a
      000509 11r00r00         [12] 1041 	ld	de, #_metasprites_states
      00050C 3A               [ 8] 1042 	ld	a, (hl-)
      00050D 6E               [ 8] 1043 	ld	l, (hl)
      00050E 67               [ 4] 1044 	ld	h, a
      00050F 19               [ 8] 1045 	add	hl, de
      000510 2A               [ 8] 1046 	ld	a, (hl+)
      000511 4F               [ 4] 1047 	ld	c, a
      000512 46               [ 8] 1048 	ld	b, (hl)
      000513 E1               [12] 1049 	pop	hl
      000514 E5               [16] 1050 	push	hl
      000515 09               [ 8] 1051 	add	hl, bc
      000516 2A               [ 8] 1052 	ld	a, (hl+)
      000517 4F               [ 4] 1053 	ld	c, a
      000518 46               [ 8] 1054 	ld	b, (hl)
                                   1055 ;/home/javier/Escritorio/gb_development/gbdk/include/gb/metasprites.h:160: __current_metasprite = metasprite;
      000519 21r00r00         [12] 1056 	ld	hl, #___current_metasprite
      00051C 79               [ 4] 1057 	ld	a, c
      00051D 22               [ 8] 1058 	ld	(hl+), a
      00051E 70               [ 8] 1059 	ld	(hl), b
                                   1060 ;/home/javier/Escritorio/gb_development/gbdk/include/gb/metasprites.h:161: __current_base_tile = base_tile;
      00051F 21r00r00         [12] 1061 	ld	hl, #___current_base_tile
      000522 36 00            [12] 1062 	ld	(hl), #0x00
                                   1063 ;/home/javier/Escritorio/gb_development/gbdk/include/gb/metasprites.h:162: __current_base_prop = 0;
      000524 21r00r00         [12] 1064 	ld	hl, #___current_base_prop
      000527 36 00            [12] 1065 	ld	(hl), #0x00
                                   1066 ;/home/javier/Escritorio/gb_development/gbdk/include/gb/metasprites.h:163: return __move_metasprite(base_sprite, (y << 8) | (uint8_t)x);
      000529 F8 07            [12] 1067 	ldhl	sp,	#7
      00052B 3A               [ 8] 1068 	ld	a, (hl-)
      00052C 57               [ 4] 1069 	ld	d, a
      00052D 1E 00            [ 8] 1070 	ld	e, #0x00
      00052F 4E               [ 8] 1071 	ld	c, (hl)
      000530 7B               [ 4] 1072 	ld	a, e
      000531 B1               [ 4] 1073 	or	a, c
      000532 5F               [ 4] 1074 	ld	e, a
      000533 3E 04            [ 8] 1075 	ld	a, #0x04
      000535 CDr00r00         [24] 1076 	call	___move_metasprite
                                   1077 ;src/player.c:307: if((uint8_t)(SUB_TO_PX(player_x)) < 200) is_facing_right?move_metasprite(metasprites_states[current_state][current_frame], TILE_NUM_START, 4, SUB_TO_PX(player_x) - 160U, (uint8_t)(player_y - camera_y)): move_metasprite_vflip(metasprites_states[current_state][current_frame], TILE_NUM_START, 4, SUB_TO_PX(player_x) - 160, (uint8_t)(player_y - camera_y)); //right exit
      000538 C3rC9r06         [16] 1078 	jp	00114$
      00053B                       1079 00131$:
      00053B F8 07            [12] 1080 	ldhl	sp,	#7
      00053D 7E               [ 8] 1081 	ld	a, (hl)
      00053E C6 60            [ 8] 1082 	add	a, #0x60
      000540 77               [ 8] 1083 	ld	(hl), a
      000541 11r00r00         [12] 1084 	ld	de, #_metasprites_states
      000544 F8 04            [12] 1085 	ldhl	sp,	#4
      000546 2A               [ 8] 1086 	ld	a,	(hl+)
      000547 66               [ 8] 1087 	ld	h, (hl)
      000548 6F               [ 4] 1088 	ld	l, a
      000549 19               [ 8] 1089 	add	hl, de
      00054A 2A               [ 8] 1090 	ld	a, (hl+)
      00054B 4F               [ 4] 1091 	ld	c, a
      00054C 46               [ 8] 1092 	ld	b, (hl)
      00054D E1               [12] 1093 	pop	hl
      00054E E5               [16] 1094 	push	hl
      00054F 09               [ 8] 1095 	add	hl, bc
      000550 2A               [ 8] 1096 	ld	a, (hl+)
      000551 4F               [ 4] 1097 	ld	c, a
      000552 46               [ 8] 1098 	ld	b, (hl)
                                   1099 ;/home/javier/Escritorio/gb_development/gbdk/include/gb/metasprites.h:200: __current_metasprite = metasprite;
      000553 21r00r00         [12] 1100 	ld	hl, #___current_metasprite
      000556 79               [ 4] 1101 	ld	a, c
      000557 22               [ 8] 1102 	ld	(hl+), a
      000558 70               [ 8] 1103 	ld	(hl), b
                                   1104 ;/home/javier/Escritorio/gb_development/gbdk/include/gb/metasprites.h:201: __current_base_tile = base_tile;
      000559 21r00r00         [12] 1105 	ld	hl, #___current_base_tile
      00055C 36 00            [12] 1106 	ld	(hl), #0x00
                                   1107 ;/home/javier/Escritorio/gb_development/gbdk/include/gb/metasprites.h:202: __current_base_prop = 0;
      00055E 21r00r00         [12] 1108 	ld	hl, #___current_base_prop
      000561 36 00            [12] 1109 	ld	(hl), #0x00
                                   1110 ;/home/javier/Escritorio/gb_development/gbdk/include/gb/metasprites.h:203: return __move_metasprite_vflip(base_sprite, (y << 8) | (uint8_t)(x - 8u));
      000563 F8 06            [12] 1111 	ldhl	sp,	#6
      000565 2A               [ 8] 1112 	ld	a, (hl+)
      000566 57               [ 4] 1113 	ld	d, a
      000567 1E 00            [ 8] 1114 	ld	e, #0x00
      000569 7E               [ 8] 1115 	ld	a, (hl)
      00056A C6 F8            [ 8] 1116 	add	a, #0xf8
      00056C B3               [ 4] 1117 	or	a, e
      00056D 5F               [ 4] 1118 	ld	e, a
      00056E 3E 04            [ 8] 1119 	ld	a, #0x04
      000570 CDr00r00         [24] 1120 	call	___move_metasprite_vflip
                                   1121 ;src/player.c:307: if((uint8_t)(SUB_TO_PX(player_x)) < 200) is_facing_right?move_metasprite(metasprites_states[current_state][current_frame], TILE_NUM_START, 4, SUB_TO_PX(player_x) - 160U, (uint8_t)(player_y - camera_y)): move_metasprite_vflip(metasprites_states[current_state][current_frame], TILE_NUM_START, 4, SUB_TO_PX(player_x) - 160, (uint8_t)(player_y - camera_y)); //right exit
      000573 C3rC9r06         [16] 1122 	jp	00114$
      000576                       1123 00110$:
                                   1124 ;src/player.c:308: else is_facing_right?move_metasprite(metasprites_states[current_state][current_frame], TILE_NUM_START, 4, SUB_TO_PX(player_x) + 160U, (uint8_t)(player_y - camera_y)): move_metasprite_vflip(metasprites_states[current_state][current_frame], TILE_NUM_START, 4, SUB_TO_PX(player_x) + 160, (uint8_t)(player_y - camera_y)); //left exit
      000576 21r09r00         [12] 1125 	ld	hl, #_is_facing_right
      000579 CB 46            [12] 1126 	bit	0, (hl)
      00057B 28 7B            [12] 1127 	jr	Z, 00133$
      00057D F8 06            [12] 1128 	ldhl	sp,	#6
      00057F 2A               [ 8] 1129 	ld	a, (hl+)
      000580 77               [ 8] 1130 	ld	(hl), a
      000581 F8 03            [12] 1131 	ldhl	sp,	#3
      000583 7E               [ 8] 1132 	ld	a, (hl)
      000584 C6 A0            [ 8] 1133 	add	a, #0xa0
      000586 F8 06            [12] 1134 	ldhl	sp,	#6
      000588 32               [ 8] 1135 	ld	(hl-), a
      000589 2B               [ 8] 1136 	dec	hl
      00058A 2A               [ 8] 1137 	ld	a, (hl+)
      00058B 5F               [ 4] 1138 	ld	e, a
      00058C 56               [ 8] 1139 	ld	d, (hl)
      00058D 21r00r00         [12] 1140 	ld	hl, #_metasprites_states
      000590 19               [ 8] 1141 	add	hl, de
      000591 E5               [16] 1142 	push	hl
      000592 7D               [ 4] 1143 	ld	a, l
      000593 F8 04            [12] 1144 	ldhl	sp,	#4
      000595 77               [ 8] 1145 	ld	(hl), a
      000596 E1               [12] 1146 	pop	hl
      000597 7C               [ 4] 1147 	ld	a, h
      000598 F8 03            [12] 1148 	ldhl	sp,	#3
      00059A 32               [ 8] 1149 	ld	(hl-), a
      00059B 2A               [ 8] 1150 	ld	a, (hl+)
      00059C 5F               [ 4] 1151 	ld	e, a
      00059D 2A               [ 8] 1152 	ld	a, (hl+)
      00059E 57               [ 4] 1153 	ld	d, a
      00059F 1A               [ 8] 1154 	ld	a, (de)
      0005A0 22               [ 8] 1155 	ld	(hl+), a
      0005A1 13               [ 8] 1156 	inc	de
      0005A2 1A               [ 8] 1157 	ld	a, (de)
      0005A3 32               [ 8] 1158 	ld	(hl-), a
      0005A4 2A               [ 8] 1159 	ld	a, (hl+)
      0005A5 5F               [ 4] 1160 	ld	e, a
      0005A6 56               [ 8] 1161 	ld	d, (hl)
      0005A7 E1               [12] 1162 	pop	hl
      0005A8 E5               [16] 1163 	push	hl
      0005A9 19               [ 8] 1164 	add	hl, de
      0005AA E5               [16] 1165 	push	hl
      0005AB 7D               [ 4] 1166 	ld	a, l
      0005AC F8 04            [12] 1167 	ldhl	sp,	#4
      0005AE 77               [ 8] 1168 	ld	(hl), a
      0005AF E1               [12] 1169 	pop	hl
      0005B0 7C               [ 4] 1170 	ld	a, h
      0005B1 F8 03            [12] 1171 	ldhl	sp,	#3
      0005B3 32               [ 8] 1172 	ld	(hl-), a
      0005B4 2A               [ 8] 1173 	ld	a, (hl+)
      0005B5 5F               [ 4] 1174 	ld	e, a
      0005B6 2A               [ 8] 1175 	ld	a, (hl+)
      0005B7 57               [ 4] 1176 	ld	d, a
      0005B8 1A               [ 8] 1177 	ld	a, (de)
      0005B9 22               [ 8] 1178 	ld	(hl+), a
      0005BA 13               [ 8] 1179 	inc	de
      0005BB 1A               [ 8] 1180 	ld	a, (de)
                                   1181 ;/home/javier/Escritorio/gb_development/gbdk/include/gb/metasprites.h:160: __current_metasprite = metasprite;
      0005BC 32               [ 8] 1182 	ld	(hl-), a
      0005BD 7E               [ 8] 1183 	ld	a, (hl)
      0005BE EAr00r00         [16] 1184 	ld	(#___current_metasprite),a
      0005C1 F8 05            [12] 1185 	ldhl	sp,	#5
      0005C3 7E               [ 8] 1186 	ld	a, (hl)
      0005C4 EAr01r00         [16] 1187 	ld	(#___current_metasprite + 1),a
                                   1188 ;/home/javier/Escritorio/gb_development/gbdk/include/gb/metasprites.h:161: __current_base_tile = base_tile;
      0005C7 21r00r00         [12] 1189 	ld	hl, #___current_base_tile
      0005CA 36 00            [12] 1190 	ld	(hl), #0x00
                                   1191 ;/home/javier/Escritorio/gb_development/gbdk/include/gb/metasprites.h:162: __current_base_prop = 0;
      0005CC 21r00r00         [12] 1192 	ld	hl, #___current_base_prop
      0005CF 36 00            [12] 1193 	ld	(hl), #0x00
                                   1194 ;/home/javier/Escritorio/gb_development/gbdk/include/gb/metasprites.h:163: return __move_metasprite(base_sprite, (y << 8) | (uint8_t)x);
      0005D1 F8 07            [12] 1195 	ldhl	sp,	#7
      0005D3 7E               [ 8] 1196 	ld	a, (hl)
      0005D4 F8 04            [12] 1197 	ldhl	sp,	#4
      0005D6 22               [ 8] 1198 	ld	(hl+), a
      0005D7 AF               [ 4] 1199 	xor	a, a
      0005D8 32               [ 8] 1200 	ld	(hl-), a
      0005D9 2A               [ 8] 1201 	ld	a, (hl+)
      0005DA 32               [ 8] 1202 	ld	(hl-), a
      0005DB AF               [ 4] 1203 	xor	a, a
      0005DC 22               [ 8] 1204 	ld	(hl+), a
      0005DD 23               [ 8] 1205 	inc	hl
      0005DE 7E               [ 8] 1206 	ld	a, (hl)
      0005DF F8 02            [12] 1207 	ldhl	sp,	#2
      0005E1 22               [ 8] 1208 	ld	(hl+), a
      0005E2 AF               [ 4] 1209 	xor	a, a
      0005E3 22               [ 8] 1210 	ld	(hl+), a
      0005E4 3A               [ 8] 1211 	ld	a, (hl-)
      0005E5 2B               [ 8] 1212 	dec	hl
      0005E6 B6               [ 8] 1213 	or	a, (hl)
      0005E7 F8 06            [12] 1214 	ldhl	sp,	#6
      0005E9 32               [ 8] 1215 	ld	(hl-), a
      0005EA 2A               [ 8] 1216 	ld	a, (hl+)
      0005EB 23               [ 8] 1217 	inc	hl
      0005EC 32               [ 8] 1218 	ld	(hl-), a
      0005ED 2A               [ 8] 1219 	ld	a, (hl+)
      0005EE 5F               [ 4] 1220 	ld	e, a
      0005EF 56               [ 8] 1221 	ld	d, (hl)
      0005F0 3E 04            [ 8] 1222 	ld	a, #0x04
      0005F2 CDr00r00         [24] 1223 	call	___move_metasprite
                                   1224 ;src/player.c:308: else is_facing_right?move_metasprite(metasprites_states[current_state][current_frame], TILE_NUM_START, 4, SUB_TO_PX(player_x) + 160U, (uint8_t)(player_y - camera_y)): move_metasprite_vflip(metasprites_states[current_state][current_frame], TILE_NUM_START, 4, SUB_TO_PX(player_x) + 160, (uint8_t)(player_y - camera_y)); //left exit
      0005F5 C3rC9r06         [16] 1225 	jp	00114$
      0005F8                       1226 00133$:
      0005F8 F8 06            [12] 1227 	ldhl	sp,	#6
      0005FA 7E               [ 8] 1228 	ld	a, (hl)
      0005FB F8 02            [12] 1229 	ldhl	sp,	#2
      0005FD 77               [ 8] 1230 	ld	(hl), a
      0005FE F8 07            [12] 1231 	ldhl	sp,	#7
      000600 7E               [ 8] 1232 	ld	a, (hl)
      000601 C6 A0            [ 8] 1233 	add	a, #0xa0
      000603 F8 03            [12] 1234 	ldhl	sp,	#3
      000605 22               [ 8] 1235 	ld	(hl+), a
      000606 2A               [ 8] 1236 	ld	a, (hl+)
      000607 5F               [ 4] 1237 	ld	e, a
      000608 56               [ 8] 1238 	ld	d, (hl)
      000609 21r00r00         [12] 1239 	ld	hl, #_metasprites_states
      00060C 19               [ 8] 1240 	add	hl, de
      00060D E5               [16] 1241 	push	hl
      00060E 7D               [ 4] 1242 	ld	a, l
      00060F F8 08            [12] 1243 	ldhl	sp,	#8
      000611 77               [ 8] 1244 	ld	(hl), a
      000612 E1               [12] 1245 	pop	hl
      000613 7C               [ 4] 1246 	ld	a, h
      000614 F8 07            [12] 1247 	ldhl	sp,	#7
      000616 32               [ 8] 1248 	ld	(hl-), a
      000617 2A               [ 8] 1249 	ld	a, (hl+)
      000618 5F               [ 4] 1250 	ld	e, a
      000619 56               [ 8] 1251 	ld	d, (hl)
      00061A 1A               [ 8] 1252 	ld	a, (de)
      00061B F8 04            [12] 1253 	ldhl	sp,	#4
      00061D 22               [ 8] 1254 	ld	(hl+), a
      00061E 13               [ 8] 1255 	inc	de
      00061F 1A               [ 8] 1256 	ld	a, (de)
      000620 32               [ 8] 1257 	ld	(hl-), a
      000621 2A               [ 8] 1258 	ld	a, (hl+)
      000622 5F               [ 4] 1259 	ld	e, a
      000623 56               [ 8] 1260 	ld	d, (hl)
      000624 E1               [12] 1261 	pop	hl
      000625 E5               [16] 1262 	push	hl
      000626 19               [ 8] 1263 	add	hl, de
      000627 E5               [16] 1264 	push	hl
      000628 7D               [ 4] 1265 	ld	a, l
      000629 F8 08            [12] 1266 	ldhl	sp,	#8
      00062B 77               [ 8] 1267 	ld	(hl), a
      00062C E1               [12] 1268 	pop	hl
      00062D 7C               [ 4] 1269 	ld	a, h
      00062E F8 07            [12] 1270 	ldhl	sp,	#7
      000630 32               [ 8] 1271 	ld	(hl-), a
      000631 2A               [ 8] 1272 	ld	a, (hl+)
      000632 5F               [ 4] 1273 	ld	e, a
      000633 3A               [ 8] 1274 	ld	a, (hl-)
      000634 57               [ 4] 1275 	ld	d, a
      000635 1A               [ 8] 1276 	ld	a, (de)
      000636 22               [ 8] 1277 	ld	(hl+), a
      000637 13               [ 8] 1278 	inc	de
      000638 1A               [ 8] 1279 	ld	a, (de)
                                   1280 ;/home/javier/Escritorio/gb_development/gbdk/include/gb/metasprites.h:200: __current_metasprite = metasprite;
      000639 32               [ 8] 1281 	ld	(hl-), a
      00063A 7E               [ 8] 1282 	ld	a, (hl)
      00063B EAr00r00         [16] 1283 	ld	(#___current_metasprite),a
      00063E F8 07            [12] 1284 	ldhl	sp,	#7
      000640 7E               [ 8] 1285 	ld	a, (hl)
      000641 EAr01r00         [16] 1286 	ld	(#___current_metasprite + 1),a
                                   1287 ;/home/javier/Escritorio/gb_development/gbdk/include/gb/metasprites.h:201: __current_base_tile = base_tile;
      000644 21r00r00         [12] 1288 	ld	hl, #___current_base_tile
      000647 36 00            [12] 1289 	ld	(hl), #0x00
                                   1290 ;/home/javier/Escritorio/gb_development/gbdk/include/gb/metasprites.h:202: __current_base_prop = 0;
      000649 21r00r00         [12] 1291 	ld	hl, #___current_base_prop
      00064C 36 00            [12] 1292 	ld	(hl), #0x00
                                   1293 ;/home/javier/Escritorio/gb_development/gbdk/include/gb/metasprites.h:203: return __move_metasprite_vflip(base_sprite, (y << 8) | (uint8_t)(x - 8u));
      00064E F8 02            [12] 1294 	ldhl	sp,	#2
      000650 7E               [ 8] 1295 	ld	a, (hl)
      000651 F8 06            [12] 1296 	ldhl	sp,	#6
      000653 22               [ 8] 1297 	ld	(hl+), a
      000654 AF               [ 4] 1298 	xor	a, a
      000655 32               [ 8] 1299 	ld	(hl-), a
      000656 2A               [ 8] 1300 	ld	a, (hl+)
      000657 32               [ 8] 1301 	ld	(hl-), a
      000658 36 00            [12] 1302 	ld	(hl), #0x00
      00065A F8 03            [12] 1303 	ldhl	sp,	#3
      00065C 2A               [ 8] 1304 	ld	a, (hl+)
      00065D 23               [ 8] 1305 	inc	hl
      00065E C6 F8            [ 8] 1306 	add	a, #0xf8
      000660 77               [ 8] 1307 	ld	(hl), a
      000661 3A               [ 8] 1308 	ld	a, (hl-)
      000662 22               [ 8] 1309 	ld	(hl+), a
      000663 AF               [ 4] 1310 	xor	a, a
      000664 22               [ 8] 1311 	ld	(hl+), a
      000665 3A               [ 8] 1312 	ld	a, (hl-)
      000666 2B               [ 8] 1313 	dec	hl
      000667 B6               [ 8] 1314 	or	a, (hl)
      000668 2B               [ 8] 1315 	dec	hl
      000669 2B               [ 8] 1316 	dec	hl
      00066A 77               [ 8] 1317 	ld	(hl), a
      00066B F8 07            [12] 1318 	ldhl	sp,	#7
      00066D 7E               [ 8] 1319 	ld	a, (hl)
      00066E F8 03            [12] 1320 	ldhl	sp,	#3
      000670 32               [ 8] 1321 	ld	(hl-), a
      000671 7E               [ 8] 1322 	ld	a, (hl)
      000672 F8 06            [12] 1323 	ldhl	sp,	#6
      000674 77               [ 8] 1324 	ld	(hl), a
      000675 F8 03            [12] 1325 	ldhl	sp,	#3
      000677 7E               [ 8] 1326 	ld	a, (hl)
      000678 F8 07            [12] 1327 	ldhl	sp,	#7
      00067A 32               [ 8] 1328 	ld	(hl-), a
      00067B 2A               [ 8] 1329 	ld	a, (hl+)
      00067C 5F               [ 4] 1330 	ld	e, a
      00067D 56               [ 8] 1331 	ld	d, (hl)
      00067E 3E 04            [ 8] 1332 	ld	a, #0x04
      000680 CDr00r00         [24] 1333 	call	___move_metasprite_vflip
                                   1334 ;src/player.c:308: else is_facing_right?move_metasprite(metasprites_states[current_state][current_frame], TILE_NUM_START, 4, SUB_TO_PX(player_x) + 160U, (uint8_t)(player_y - camera_y)): move_metasprite_vflip(metasprites_states[current_state][current_frame], TILE_NUM_START, 4, SUB_TO_PX(player_x) + 160, (uint8_t)(player_y - camera_y)); //left exit
      000683 18 44            [12] 1335 	jr	00114$
      000685                       1336 00113$:
                                   1337 ;src/player.c:310: hide_metasprite(metasprites_states[current_state][current_frame], 4);
      000685 11r00r00         [12] 1338 	ld	de, #_metasprites_states
      000688 F8 04            [12] 1339 	ldhl	sp,	#4
      00068A 2A               [ 8] 1340 	ld	a,	(hl+)
      00068B 66               [ 8] 1341 	ld	h, (hl)
      00068C 6F               [ 4] 1342 	ld	l, a
      00068D 19               [ 8] 1343 	add	hl, de
      00068E E5               [16] 1344 	push	hl
      00068F 7D               [ 4] 1345 	ld	a, l
      000690 F8 08            [12] 1346 	ldhl	sp,	#8
      000692 77               [ 8] 1347 	ld	(hl), a
      000693 E1               [12] 1348 	pop	hl
      000694 7C               [ 4] 1349 	ld	a, h
      000695 F8 07            [12] 1350 	ldhl	sp,	#7
      000697 32               [ 8] 1351 	ld	(hl-), a
      000698 2A               [ 8] 1352 	ld	a, (hl+)
      000699 5F               [ 4] 1353 	ld	e, a
      00069A 3A               [ 8] 1354 	ld	a, (hl-)
      00069B 57               [ 4] 1355 	ld	d, a
      00069C 1A               [ 8] 1356 	ld	a, (de)
      00069D 22               [ 8] 1357 	ld	(hl+), a
      00069E 13               [ 8] 1358 	inc	de
      00069F 1A               [ 8] 1359 	ld	a, (de)
      0006A0 32               [ 8] 1360 	ld	(hl-), a
      0006A1 2A               [ 8] 1361 	ld	a, (hl+)
      0006A2 5F               [ 4] 1362 	ld	e, a
      0006A3 56               [ 8] 1363 	ld	d, (hl)
      0006A4 E1               [12] 1364 	pop	hl
      0006A5 E5               [16] 1365 	push	hl
      0006A6 19               [ 8] 1366 	add	hl, de
      0006A7 E5               [16] 1367 	push	hl
      0006A8 7D               [ 4] 1368 	ld	a, l
      0006A9 F8 06            [12] 1369 	ldhl	sp,	#6
      0006AB 77               [ 8] 1370 	ld	(hl), a
      0006AC E1               [12] 1371 	pop	hl
      0006AD 7C               [ 4] 1372 	ld	a, h
      0006AE F8 05            [12] 1373 	ldhl	sp,	#5
      0006B0 32               [ 8] 1374 	ld	(hl-), a
      0006B1 2A               [ 8] 1375 	ld	a, (hl+)
      0006B2 5F               [ 4] 1376 	ld	e, a
      0006B3 2A               [ 8] 1377 	ld	a, (hl+)
      0006B4 57               [ 4] 1378 	ld	d, a
      0006B5 1A               [ 8] 1379 	ld	a, (de)
      0006B6 22               [ 8] 1380 	ld	(hl+), a
      0006B7 13               [ 8] 1381 	inc	de
      0006B8 1A               [ 8] 1382 	ld	a, (de)
                                   1383 ;/home/javier/Escritorio/gb_development/gbdk/include/gb/metasprites.h:297: __current_metasprite = metasprite;
      0006B9 32               [ 8] 1384 	ld	(hl-), a
      0006BA 7E               [ 8] 1385 	ld	a, (hl)
      0006BB EAr00r00         [16] 1386 	ld	(#___current_metasprite),a
      0006BE F8 07            [12] 1387 	ldhl	sp,	#7
      0006C0 7E               [ 8] 1388 	ld	a, (hl)
      0006C1 EAr01r00         [16] 1389 	ld	(#___current_metasprite + 1),a
                                   1390 ;/home/javier/Escritorio/gb_development/gbdk/include/gb/metasprites.h:298: __hide_metasprite(base_sprite);
      0006C4 3E 04            [ 8] 1391 	ld	a, #0x04
      0006C6 CDr00r00         [24] 1392 	call	___hide_metasprite
                                   1393 ;src/player.c:310: hide_metasprite(metasprites_states[current_state][current_frame], 4);
      0006C9                       1394 00114$:
                                   1395 ;src/player.c:313: if((uint8_t)(player_y - camera_y) < MAX_SPRITE_HEIGHT && !player_dead_flag){
      0006C9 FAr0Fr00         [16] 1396 	ld	a, (#_player_y)
      0006CC 21r00r00         [12] 1397 	ld	hl, #_camera_y
      0006CF 96               [ 8] 1398 	sub	a, (hl)
      0006D0 4F               [ 4] 1399 	ld	c, a
      0006D1 D6 1A            [ 8] 1400 	sub	a, #0x1a
      0006D3 30 11            [12] 1401 	jr	NC, 00127$
      0006D5 21r00r00         [12] 1402 	ld	hl, #_player_dead_flag
      0006D8 CB 46            [12] 1403 	bit	0, (hl)
      0006DA 20 0A            [12] 1404 	jr	NZ, 00127$
                                   1405 ;src/player.c:314: camera_y -= MAX_SPRITE_HEIGHT - ((uint8_t)(player_y - camera_y));
      0006DC 3E 1A            [ 8] 1406 	ld	a, #0x1a
      0006DE 91               [ 4] 1407 	sub	a, c
      0006DF 4F               [ 4] 1408 	ld	c, a
      0006E0 21r00r00         [12] 1409 	ld	hl, #_camera_y
      0006E3 7E               [ 8] 1410 	ld	a, (hl)
      0006E4 91               [ 4] 1411 	sub	a, c
      0006E5 77               [ 8] 1412 	ld	(hl), a
      0006E6                       1413 00127$:
                                   1414 ;src/player.c:316: }
      0006E6 E8 08            [16] 1415 	add	sp, #8
      0006E8 C9               [16] 1416 	ret
                                   1417 ;src/player.c:318: void render_all_particles(void){
                                   1418 ;	---------------------------------
                                   1419 ; Function render_all_particles
                                   1420 ; ---------------------------------
      0006E9                       1421 _render_all_particles::
                                   1422 ;src/player.c:320: for(i = 0; i < MAX_PUFF; i++){
      0006E9 21r04r00         [12] 1423 	ld	hl, #_i
      0006EC 36 00            [12] 1424 	ld	(hl), #0x00
      0006EE                       1425 00120$:
                                   1426 ;src/player.c:321: if(puff_frame[i] == 0){
      0006EE 3Er00            [ 8] 1427 	ld	a, #<(_puff_frame)
      0006F0 21r04r00         [12] 1428 	ld	hl, #_i
      0006F3 86               [ 8] 1429 	add	a, (hl)
      0006F4 4F               [ 4] 1430 	ld	c, a
      0006F5 3Es00            [ 8] 1431 	ld	a, #>(_puff_frame)
      0006F7 CE 00            [ 8] 1432 	adc	a, #0x00
      0006F9 47               [ 4] 1433 	ld	b, a
      0006FA 0A               [ 8] 1434 	ld	a, (bc)
      0006FB 4F               [ 4] 1435 	ld	c, a
                                   1436 ;src/player.c:322: hide_sprite(FIRST_PUFF + i);
      0006FC 7E               [ 8] 1437 	ld	a, (hl)
      0006FD C6 08            [ 8] 1438 	add	a, #0x08
      0006FF 47               [ 4] 1439 	ld	b, a
                                   1440 ;src/player.c:321: if(puff_frame[i] == 0){
      000700 79               [ 4] 1441 	ld	a, c
      000701 B7               [ 4] 1442 	or	a, a
      000702 20 0D            [12] 1443 	jr	NZ, 00102$
                                   1444 ;src/player.c:322: hide_sprite(FIRST_PUFF + i);
                                   1445 ;/home/javier/Escritorio/gb_development/gbdk/include/gb/gb.h:1905: shadow_OAM[nb].y = 0;
      000704 11r00r00         [12] 1446 	ld	de, #_shadow_OAM+0
      000707 68               [ 4] 1447 	ld	l, b
                                   1448 ;	spillPairReg hl
                                   1449 ;	spillPairReg hl
      000708 26 00            [ 8] 1450 	ld	h, #0x00
                                   1451 ;	spillPairReg hl
                                   1452 ;	spillPairReg hl
      00070A 29               [ 8] 1453 	add	hl, hl
      00070B 29               [ 8] 1454 	add	hl, hl
      00070C 19               [ 8] 1455 	add	hl, de
      00070D 36 00            [12] 1456 	ld	(hl), #0x00
                                   1457 ;src/player.c:323: continue;
      00070F 18 25            [12] 1458 	jr	00103$
      000711                       1459 00102$:
                                   1460 ;src/player.c:325: set_sprite_tile(FIRST_PUFF + i, PLAYER_SPRITES - 1 + (puff_frame[i] >> 2));
      000711 79               [ 4] 1461 	ld	a, c
      000712 0F               [ 4] 1462 	rrca
      000713 0F               [ 4] 1463 	rrca
      000714 E6 3F            [ 8] 1464 	and	a, #0x3f
      000716 C6 17            [ 8] 1465 	add	a, #0x17
      000718 4F               [ 4] 1466 	ld	c, a
                                   1467 ;/home/javier/Escritorio/gb_development/gbdk/include/gb/gb.h:1804: shadow_OAM[nb].tile=tile;
      000719 68               [ 4] 1468 	ld	l, b
                                   1469 ;	spillPairReg hl
                                   1470 ;	spillPairReg hl
      00071A 26 00            [ 8] 1471 	ld	h, #0x00
                                   1472 ;	spillPairReg hl
                                   1473 ;	spillPairReg hl
      00071C 29               [ 8] 1474 	add	hl, hl
      00071D 29               [ 8] 1475 	add	hl, hl
      00071E 11r00r00         [12] 1476 	ld	de, #_shadow_OAM
      000721 19               [ 8] 1477 	add	hl, de
      000722 23               [ 8] 1478 	inc	hl
      000723 23               [ 8] 1479 	inc	hl
      000724 71               [ 8] 1480 	ld	(hl), c
                                   1481 ;src/player.c:326: puff_frame[i] = (puff_frame[i] + 1) & 0x0f; //puff_frame[i]++ mod 16 
      000725 3Er00            [ 8] 1482 	ld	a, #<(_puff_frame)
      000727 21r04r00         [12] 1483 	ld	hl, #_i
      00072A 86               [ 8] 1484 	add	a, (hl)
      00072B 4F               [ 4] 1485 	ld	c, a
      00072C 3Es00            [ 8] 1486 	ld	a, #>(_puff_frame)
      00072E CE 00            [ 8] 1487 	adc	a, #0x00
      000730 47               [ 4] 1488 	ld	b, a
      000731 0A               [ 8] 1489 	ld	a, (bc)
      000732 3C               [ 4] 1490 	inc	a
      000733 E6 0F            [ 8] 1491 	and	a, #0x0f
      000735 02               [ 8] 1492 	ld	(bc), a
      000736                       1493 00103$:
                                   1494 ;src/player.c:320: for(i = 0; i < MAX_PUFF; i++){
      000736 21r04r00         [12] 1495 	ld	hl, #_i
      000739 34               [12] 1496 	inc	(hl)
      00073A 7E               [ 8] 1497 	ld	a, (hl)
      00073B D6 04            [ 8] 1498 	sub	a, #0x04
      00073D 38 AF            [12] 1499 	jr	C, 00120$
                                   1500 ;src/player.c:330: if(brick_frame == 0){
      00073F FAr1Br00         [16] 1501 	ld	a, (#_brick_frame)
      000742 B7               [ 4] 1502 	or	a, a
      000743 20 09            [12] 1503 	jr	NZ, 00106$
                                   1504 ;src/player.c:331: hide_sprites_range(12, 16);
      000745 1E 10            [ 8] 1505 	ld	e, #0x10
      000747 3E 0C            [ 8] 1506 	ld	a, #0x0c
      000749 CDr00r00         [24] 1507 	call	_hide_sprites_range
      00074C 18 36            [12] 1508 	jr	00107$
      00074E                       1509 00106$:
                                   1510 ;src/player.c:334: brick_frame--;
      00074E 21r1Br00         [12] 1511 	ld	hl, #_brick_frame
      000751 35               [12] 1512 	dec	(hl)
                                   1513 ;src/player.c:335: scroll_sprite(12, 1, brick_y_speed>>1);
      000752 21r1Cr00         [12] 1514 	ld	hl, #_brick_y_speed
      000755 5E               [ 8] 1515 	ld	e, (hl)
      000756 CB 2B            [ 8] 1516 	sra	e
                                   1517 ;/home/javier/Escritorio/gb_development/gbdk/include/gb/gb.h:1893: OAM_item_t * itm = &shadow_OAM[nb];
      000758 01r30r00         [12] 1518 	ld	bc, #_shadow_OAM+48
                                   1519 ;/home/javier/Escritorio/gb_development/gbdk/include/gb/gb.h:1894: itm->y+=y, itm->x+=x;
      00075B 0A               [ 8] 1520 	ld	a, (bc)
      00075C 83               [ 4] 1521 	add	a, e
      00075D 02               [ 8] 1522 	ld	(bc), a
      00075E 03               [ 8] 1523 	inc	bc
      00075F 0A               [ 8] 1524 	ld	a, (bc)
      000760 3C               [ 4] 1525 	inc	a
      000761 02               [ 8] 1526 	ld	(bc), a
                                   1527 ;src/player.c:336: scroll_sprite(13, -1, brick_y_speed>>1);
      000762 5E               [ 8] 1528 	ld	e, (hl)
      000763 CB 2B            [ 8] 1529 	sra	e
                                   1530 ;/home/javier/Escritorio/gb_development/gbdk/include/gb/gb.h:1893: OAM_item_t * itm = &shadow_OAM[nb];
      000765 01r34r00         [12] 1531 	ld	bc, #_shadow_OAM+52
                                   1532 ;/home/javier/Escritorio/gb_development/gbdk/include/gb/gb.h:1894: itm->y+=y, itm->x+=x;
      000768 0A               [ 8] 1533 	ld	a, (bc)
      000769 83               [ 4] 1534 	add	a, e
      00076A 02               [ 8] 1535 	ld	(bc), a
      00076B 03               [ 8] 1536 	inc	bc
      00076C 0A               [ 8] 1537 	ld	a, (bc)
      00076D 3D               [ 4] 1538 	dec	a
      00076E 02               [ 8] 1539 	ld	(bc), a
                                   1540 ;/home/javier/Escritorio/gb_development/gbdk/include/gb/gb.h:1893: OAM_item_t * itm = &shadow_OAM[nb];
      00076F 01r38r00         [12] 1541 	ld	bc, #_shadow_OAM+56
                                   1542 ;/home/javier/Escritorio/gb_development/gbdk/include/gb/gb.h:1894: itm->y+=y, itm->x+=x;
      000772 0A               [ 8] 1543 	ld	a, (bc)
      000773 3C               [ 4] 1544 	inc	a
      000774 02               [ 8] 1545 	ld	(bc), a
      000775 03               [ 8] 1546 	inc	bc
      000776 0A               [ 8] 1547 	ld	a, (bc)
      000777 3C               [ 4] 1548 	inc	a
      000778 02               [ 8] 1549 	ld	(bc), a
                                   1550 ;/home/javier/Escritorio/gb_development/gbdk/include/gb/gb.h:1893: OAM_item_t * itm = &shadow_OAM[nb];
      000779 01r3Cr00         [12] 1551 	ld	bc, #_shadow_OAM+60
                                   1552 ;/home/javier/Escritorio/gb_development/gbdk/include/gb/gb.h:1894: itm->y+=y, itm->x+=x;
      00077C 0A               [ 8] 1553 	ld	a, (bc)
      00077D 3C               [ 4] 1554 	inc	a
      00077E 02               [ 8] 1555 	ld	(bc), a
      00077F 03               [ 8] 1556 	inc	bc
      000780 0A               [ 8] 1557 	ld	a, (bc)
      000781 3D               [ 4] 1558 	dec	a
      000782 02               [ 8] 1559 	ld	(bc), a
                                   1560 ;src/player.c:339: brick_y_speed++;
      000783 34               [12] 1561 	inc	(hl)
      000784                       1562 00107$:
                                   1563 ;src/player.c:343: if(current_state != PLAYER_STATE_RUNNING) return;
      000784 FAr13r00         [16] 1564 	ld	a, (#_current_state)
      000787 3D               [ 4] 1565 	dec	a
      000788 C0               [20] 1566 	ret	NZ
                                   1567 ;src/player.c:344: if((frame_counter != 0) || (!(current_frame == 0 || current_frame == 3))) return;
      000789 FAr01r00         [16] 1568 	ld	a, (#_frame_counter)
      00078C B7               [ 4] 1569 	or	a, a
      00078D C0               [20] 1570 	ret	NZ
      00078E 21r02r00         [12] 1571 	ld	hl, #_current_frame
      000791 7E               [ 8] 1572 	ld	a, (hl)
      000792 B7               [ 4] 1573 	or	a, a
      000793 28 04            [12] 1574 	jr	Z, 00111$
      000795 7E               [ 8] 1575 	ld	a, (hl)
      000796 D6 03            [ 8] 1576 	sub	a, #0x03
      000798 C0               [20] 1577 	ret	NZ
      000799                       1578 00111$:
                                   1579 ;src/player.c:347: instanciate_puff(SUB_TO_PX(player_x), player_y, is_facing_right);
      000799 21r0Er00         [12] 1580 	ld	hl, #_player_x + 1
      00079C 4E               [ 8] 1581 	ld	c, (hl)
      00079D FAr09r00         [16] 1582 	ld	a, (#_is_facing_right)
      0007A0 F5               [16] 1583 	push	af
      0007A1 33               [ 8] 1584 	inc	sp
      0007A2 21r0Fr00         [12] 1585 	ld	hl, #_player_y
      0007A5 5E               [ 8] 1586 	ld	e, (hl)
      0007A6 79               [ 4] 1587 	ld	a, c
      0007A7 CDrABr07         [24] 1588 	call	_instanciate_puff
                                   1589 ;src/player.c:356: }
      0007AA C9               [16] 1590 	ret
                                   1591 ;src/player.c:358: void instanciate_puff(uint8_t x, uint8_t y, bool is_facing_right){
                                   1592 ;	---------------------------------
                                   1593 ; Function instanciate_puff
                                   1594 ; ---------------------------------
      0007AB                       1595 _instanciate_puff::
      0007AB 3B               [ 8] 1596 	dec	sp
      0007AC 3B               [ 8] 1597 	dec	sp
      0007AD F8 01            [12] 1598 	ldhl	sp,	#1
      0007AF 32               [ 8] 1599 	ld	(hl-), a
      0007B0 73               [ 8] 1600 	ld	(hl), e
                                   1601 ;src/player.c:359: uint8_t i = FIRST_PUFF + next_free_puff;
      0007B1 FAr1Ar00         [16] 1602 	ld	a, (#_next_free_puff)
      0007B4 C6 08            [ 8] 1603 	add	a, #0x08
      0007B6 4F               [ 4] 1604 	ld	c, a
                                   1605 ;/home/javier/Escritorio/gb_development/gbdk/include/gb/gb.h:1804: shadow_OAM[nb].tile=tile;
      0007B7 11r00r00         [12] 1606 	ld	de, #_shadow_OAM+0
      0007BA 69               [ 4] 1607 	ld	l, c
                                   1608 ;	spillPairReg hl
                                   1609 ;	spillPairReg hl
      0007BB 26 00            [ 8] 1610 	ld	h, #0x00
                                   1611 ;	spillPairReg hl
                                   1612 ;	spillPairReg hl
      0007BD 29               [ 8] 1613 	add	hl, hl
      0007BE 29               [ 8] 1614 	add	hl, hl
      0007BF 19               [ 8] 1615 	add	hl, de
      0007C0 23               [ 8] 1616 	inc	hl
      0007C1 23               [ 8] 1617 	inc	hl
      0007C2 36 18            [12] 1618 	ld	(hl), #0x18
                                   1619 ;/home/javier/Escritorio/gb_development/gbdk/include/gb/gb.h:1860: return shadow_OAM[nb].prop;
      0007C4 69               [ 4] 1620 	ld	l, c
                                   1621 ;	spillPairReg hl
                                   1622 ;	spillPairReg hl
      0007C5 26 00            [ 8] 1623 	ld	h, #0x00
                                   1624 ;	spillPairReg hl
                                   1625 ;	spillPairReg hl
      0007C7 29               [ 8] 1626 	add	hl, hl
      0007C8 29               [ 8] 1627 	add	hl, hl
      0007C9 4D               [ 4] 1628 	ld	c, l
      0007CA 44               [ 4] 1629 	ld	b, h
      0007CB 21r01r00         [12] 1630 	ld	hl,#_shadow_OAM + 1
      0007CE 09               [ 8] 1631 	add	hl,bc
      0007CF 23               [ 8] 1632 	inc	hl
      0007D0 23               [ 8] 1633 	inc	hl
      0007D1 5E               [ 8] 1634 	ld	e, (hl)
                                   1635 ;src/player.c:361: set_sprite_prop(i, get_sprite_prop(i) & 0xDF); // reset the flip
      0007D2 CB AB            [ 8] 1636 	res	5, e
                                   1637 ;/home/javier/Escritorio/gb_development/gbdk/include/gb/gb.h:1850: shadow_OAM[nb].prop=prop;
      0007D4 21r01r00         [12] 1638 	ld	hl,#_shadow_OAM + 1
      0007D7 09               [ 8] 1639 	add	hl,bc
      0007D8 23               [ 8] 1640 	inc	hl
      0007D9 23               [ 8] 1641 	inc	hl
      0007DA 73               [ 8] 1642 	ld	(hl), e
                                   1643 ;src/player.c:362: puff_frame[next_free_puff] = 4;
      0007DB 11r00r00         [12] 1644 	ld	de, #_puff_frame+0
      0007DE 7B               [ 4] 1645 	ld	a, e
      0007DF 21r1Ar00         [12] 1646 	ld	hl, #_next_free_puff
      0007E2 86               [ 8] 1647 	add	a, (hl)
      0007E3 5F               [ 4] 1648 	ld	e, a
      0007E4 30 01            [12] 1649 	jr	NC, 00117$
      0007E6 14               [ 4] 1650 	inc	d
      0007E7                       1651 00117$:
      0007E7 3E 04            [ 8] 1652 	ld	a, #0x04
      0007E9 12               [ 8] 1653 	ld	(de), a
                                   1654 ;src/player.c:363: move_sprite(i, x + X_OFFSET, (uint8_t)((y + Y_OFFSET) - camera_y));
      0007EA F8 00            [12] 1655 	ldhl	sp,	#0
      0007EC 7E               [ 8] 1656 	ld	a, (hl)
      0007ED C6 08            [ 8] 1657 	add	a, #0x08
      0007EF 21r00r00         [12] 1658 	ld	hl, #_camera_y
      0007F2 5E               [ 8] 1659 	ld	e, (hl)
      0007F3 93               [ 4] 1660 	sub	a, e
      0007F4 57               [ 4] 1661 	ld	d, a
      0007F5 F8 01            [12] 1662 	ldhl	sp,	#1
      0007F7 7E               [ 8] 1663 	ld	a, (hl)
      0007F8 C6 FC            [ 8] 1664 	add	a, #0xfc
      0007FA 5F               [ 4] 1665 	ld	e, a
                                   1666 ;/home/javier/Escritorio/gb_development/gbdk/include/gb/gb.h:1877: OAM_item_t * itm = &shadow_OAM[nb];
      0007FB 21r00r00         [12] 1667 	ld	hl, #_shadow_OAM
      0007FE 09               [ 8] 1668 	add	hl, bc
                                   1669 ;/home/javier/Escritorio/gb_development/gbdk/include/gb/gb.h:1878: itm->y=y, itm->x=x;
      0007FF 7A               [ 4] 1670 	ld	a, d
      000800 22               [ 8] 1671 	ld	(hl+), a
      000801 73               [ 8] 1672 	ld	(hl), e
                                   1673 ;src/player.c:364: if(!is_facing_right) set_sprite_prop(i, S_FLIPX); //flip if facing left
      000802 F8 04            [12] 1674 	ldhl	sp,	#4
      000804 CB 46            [12] 1675 	bit	0, (hl)
      000806 20 08            [12] 1676 	jr	NZ, 00102$
                                   1677 ;/home/javier/Escritorio/gb_development/gbdk/include/gb/gb.h:1850: shadow_OAM[nb].prop=prop;
      000808 21r01r00         [12] 1678 	ld	hl,#_shadow_OAM + 1
      00080B 09               [ 8] 1679 	add	hl,bc
      00080C 23               [ 8] 1680 	inc	hl
      00080D 23               [ 8] 1681 	inc	hl
      00080E 36 20            [12] 1682 	ld	(hl), #0x20
                                   1683 ;src/player.c:364: if(!is_facing_right) set_sprite_prop(i, S_FLIPX); //flip if facing left
      000810                       1684 00102$:
                                   1685 ;src/player.c:366: next_free_puff = (next_free_puff + 1) & 0x03;
      000810 21r1Ar00         [12] 1686 	ld	hl, #_next_free_puff
      000813 7E               [ 8] 1687 	ld	a, (hl)
      000814 3C               [ 4] 1688 	inc	a
      000815 E6 03            [ 8] 1689 	and	a, #0x03
      000817 77               [ 8] 1690 	ld	(hl), a
                                   1691 ;src/player.c:367: }
      000818 33               [ 8] 1692 	inc	sp
      000819 33               [ 8] 1693 	inc	sp
      00081A E1               [12] 1694 	pop	hl
      00081B 33               [ 8] 1695 	inc	sp
      00081C E9               [ 4] 1696 	jp	(hl)
                                   1697 ;src/player.c:369: void instanciate_collision_puffs(void){
                                   1698 ;	---------------------------------
                                   1699 ; Function instanciate_collision_puffs
                                   1700 ; ---------------------------------
      00081D                       1701 _instanciate_collision_puffs::
                                   1702 ;src/player.c:370: instanciate_puff(SUB_TO_PX(player_x), player_y, false);
      00081D 21r0Er00         [12] 1703 	ld	hl, #_player_x + 1
      000820 4E               [ 8] 1704 	ld	c, (hl)
      000821 AF               [ 4] 1705 	xor	a, a
      000822 F5               [16] 1706 	push	af
      000823 33               [ 8] 1707 	inc	sp
      000824 21r0Fr00         [12] 1708 	ld	hl, #_player_y
      000827 5E               [ 8] 1709 	ld	e, (hl)
      000828 79               [ 4] 1710 	ld	a, c
      000829 CDrABr07         [24] 1711 	call	_instanciate_puff
                                   1712 ;src/player.c:371: instanciate_puff(SUB_TO_PX(player_x), player_y, true);
      00082C 21r0Er00         [12] 1713 	ld	hl, #_player_x + 1
      00082F 4E               [ 8] 1714 	ld	c, (hl)
      000830 3E 01            [ 8] 1715 	ld	a, #0x01
      000832 F5               [16] 1716 	push	af
      000833 33               [ 8] 1717 	inc	sp
      000834 21r0Fr00         [12] 1718 	ld	hl, #_player_y
      000837 5E               [ 8] 1719 	ld	e, (hl)
      000838 79               [ 4] 1720 	ld	a, c
      000839 CDrABr07         [24] 1721 	call	_instanciate_puff
                                   1722 ;src/player.c:388: }
      00083C C9               [16] 1723 	ret
                                   1724 ;src/player.c:390: static void instanciate_brick_particles(void){
                                   1725 ;	---------------------------------
                                   1726 ; Function instanciate_brick_particles
                                   1727 ; ---------------------------------
      00083D                       1728 _instanciate_brick_particles:
                                   1729 ;src/player.c:392: uint8_t particle_x = ((3 + (i<<1 & 0x0C)) << 3) + 14u;
      00083D FAr04r00         [16] 1730 	ld	a, (#_i)
      000840 87               [ 4] 1731 	add	a, a
      000841 E6 0C            [ 8] 1732 	and	a, #0x0c
      000843 C6 03            [ 8] 1733 	add	a, #0x03
      000845 87               [ 4] 1734 	add	a, a
      000846 87               [ 4] 1735 	add	a, a
      000847 87               [ 4] 1736 	add	a, a
      000848 C6 0E            [ 8] 1737 	add	a, #0x0e
      00084A 4F               [ 4] 1738 	ld	c, a
                                   1739 ;src/player.c:393: uint8_t particle_y = (((PLAYER_FLOOR << 3) + 1 + ((~i & 0x01) << 2)) << 3) - camera_y + 16u;
      00084B FAr0Fr00         [16] 1740 	ld	a, (#_player_y)
      00084E 07               [ 4] 1741 	rlca
      00084F 07               [ 4] 1742 	rlca
      000850 E6 03            [ 8] 1743 	and	a, #0x03
      000852 87               [ 4] 1744 	add	a, a
      000853 87               [ 4] 1745 	add	a, a
      000854 87               [ 4] 1746 	add	a, a
      000855 47               [ 4] 1747 	ld	b, a
      000856 04               [ 4] 1748 	inc	b
      000857 FAr04r00         [16] 1749 	ld	a, (#_i)
      00085A 2F               [ 4] 1750 	cpl
      00085B E6 01            [ 8] 1751 	and	a, #0x01
      00085D 87               [ 4] 1752 	add	a, a
      00085E 87               [ 4] 1753 	add	a, a
      00085F 80               [ 4] 1754 	add	a, b
      000860 87               [ 4] 1755 	add	a, a
      000861 87               [ 4] 1756 	add	a, a
      000862 87               [ 4] 1757 	add	a, a
      000863 21r00r00         [12] 1758 	ld	hl, #_camera_y
      000866 46               [ 8] 1759 	ld	b, (hl)
      000867 90               [ 4] 1760 	sub	a, b
      000868 C6 10            [ 8] 1761 	add	a, #0x10
      00086A 47               [ 4] 1762 	ld	b, a
                                   1763 ;src/player.c:394: move_sprite(12, particle_x, particle_y);
      00086B 59               [ 4] 1764 	ld	e, c
                                   1765 ;/home/javier/Escritorio/gb_development/gbdk/include/gb/gb.h:1877: OAM_item_t * itm = &shadow_OAM[nb];
      00086C 21r30r00         [12] 1766 	ld	hl, #(_shadow_OAM + 48)
                                   1767 ;/home/javier/Escritorio/gb_development/gbdk/include/gb/gb.h:1878: itm->y=y, itm->x=x;
      00086F 70               [ 8] 1768 	ld	(hl), b
      000870 23               [ 8] 1769 	inc	hl
      000871 73               [ 8] 1770 	ld	(hl), e
                                   1771 ;/home/javier/Escritorio/gb_development/gbdk/include/gb/gb.h:1877: OAM_item_t * itm = &shadow_OAM[nb];
      000872 21r34r00         [12] 1772 	ld	hl, #(_shadow_OAM + 52)
                                   1773 ;/home/javier/Escritorio/gb_development/gbdk/include/gb/gb.h:1878: itm->y=y, itm->x=x;
      000875 70               [ 8] 1774 	ld	(hl), b
      000876 23               [ 8] 1775 	inc	hl
      000877 71               [ 8] 1776 	ld	(hl), c
                                   1777 ;/home/javier/Escritorio/gb_development/gbdk/include/gb/gb.h:1877: OAM_item_t * itm = &shadow_OAM[nb];
      000878 21r38r00         [12] 1778 	ld	hl, #(_shadow_OAM + 56)
                                   1779 ;/home/javier/Escritorio/gb_development/gbdk/include/gb/gb.h:1878: itm->y=y, itm->x=x;
      00087B 70               [ 8] 1780 	ld	(hl), b
      00087C 23               [ 8] 1781 	inc	hl
      00087D 71               [ 8] 1782 	ld	(hl), c
                                   1783 ;/home/javier/Escritorio/gb_development/gbdk/include/gb/gb.h:1877: OAM_item_t * itm = &shadow_OAM[nb];
      00087E 21r3Cr00         [12] 1784 	ld	hl, #(_shadow_OAM + 60)
                                   1785 ;/home/javier/Escritorio/gb_development/gbdk/include/gb/gb.h:1878: itm->y=y, itm->x=x;
      000881 70               [ 8] 1786 	ld	(hl), b
      000882 23               [ 8] 1787 	inc	hl
      000883 71               [ 8] 1788 	ld	(hl), c
                                   1789 ;src/player.c:398: brick_frame = 10;
      000884 21r1Br00         [12] 1790 	ld	hl, #_brick_frame
      000887 36 0A            [12] 1791 	ld	(hl), #0x0a
                                   1792 ;src/player.c:399: brick_y_speed = -5;
      000889 21r1Cr00         [12] 1793 	ld	hl, #_brick_y_speed
      00088C 36 FB            [12] 1794 	ld	(hl), #0xfb
                                   1795 ;src/player.c:400: }
      00088E C9               [16] 1796 	ret
                                   1797 ;src/player.c:402: static void hurt_frame(void){
                                   1798 ;	---------------------------------
                                   1799 ; Function hurt_frame
                                   1800 ; ---------------------------------
      00088F                       1801 _hurt_frame:
                                   1802 ;src/player.c:403: if(frame_counter >= HURT_FRAMES){
      00088F FAr01r00         [16] 1803 	ld	a, (#_frame_counter)
      000892 D6 1E            [ 8] 1804 	sub	a, #0x1e
      000894 38 08            [12] 1805 	jr	C, 00102$
                                   1806 ;src/player.c:404: switch_state(PLAYER_STATE_FALLING);
      000896 3E 03            [ 8] 1807 	ld	a, #0x03
      000898 CDr50r09         [24] 1808 	call	_switch_state
                                   1809 ;src/player.c:405: stop_hurt_sfx();
                                   1810 ;src/player.c:406: return;
      00089B C3r00r00         [16] 1811 	jp	_stop_hurt_sfx
      00089E                       1812 00102$:
                                   1813 ;src/player.c:408: player_x = is_facing_right ? player_x - (x_speed) : player_x + (x_speed);
      00089E 21r07r00         [12] 1814 	ld	hl, #_x_speed
      0008A1 2A               [ 8] 1815 	ld	a, (hl+)
      0008A2 4F               [ 4] 1816 	ld	c, a
      0008A3 46               [ 8] 1817 	ld	b, (hl)
      0008A4 21r09r00         [12] 1818 	ld	hl, #_is_facing_right
      0008A7 CB 46            [12] 1819 	bit	0, (hl)
      0008A9 28 0B            [12] 1820 	jr	Z, 00105$
      0008AB 21r0Dr00         [12] 1821 	ld	hl, #_player_x
      0008AE 2A               [ 8] 1822 	ld	a, (hl+)
      0008AF 91               [ 4] 1823 	sub	a, c
      0008B0 4F               [ 4] 1824 	ld	c, a
      0008B1 7E               [ 8] 1825 	ld	a, (hl)
      0008B2 98               [ 4] 1826 	sbc	a, b
      0008B3 47               [ 4] 1827 	ld	b, a
      0008B4 18 0A            [12] 1828 	jr	00106$
      0008B6                       1829 00105$:
      0008B6 79               [ 4] 1830 	ld	a, c
      0008B7 21r0Dr00         [12] 1831 	ld	hl, #_player_x
      0008BA 86               [ 8] 1832 	add	a, (hl)
      0008BB 23               [ 8] 1833 	inc	hl
      0008BC 4F               [ 4] 1834 	ld	c, a
      0008BD 78               [ 4] 1835 	ld	a, b
      0008BE 8E               [ 8] 1836 	adc	a, (hl)
      0008BF 47               [ 4] 1837 	ld	b, a
      0008C0                       1838 00106$:
      0008C0 21r0Dr00         [12] 1839 	ld	hl, #_player_x
      0008C3 79               [ 4] 1840 	ld	a, c
      0008C4 22               [ 8] 1841 	ld	(hl+), a
      0008C5 70               [ 8] 1842 	ld	(hl), b
                                   1843 ;src/player.c:409: player_y += (y_speed >> PHYSICS_DAMPNER);
      0008C6 FAr0Cr00         [16] 1844 	ld	a, (#_y_speed)
      0008C9 CB 2F            [ 8] 1845 	sra	a
      0008CB CB 2F            [ 8] 1846 	sra	a
      0008CD 21r0Fr00         [12] 1847 	ld	hl, #_player_y
      0008D0 4E               [ 8] 1848 	ld	c, (hl)
      0008D1 81               [ 4] 1849 	add	a, c
      0008D2 77               [ 8] 1850 	ld	(hl), a
                                   1851 ;src/player.c:410: y_speed = y_speed >= clamp_y_velocity ? clamp_y_velocity : y_speed + HURT_G;
      0008D3 FAr0Cr00         [16] 1852 	ld	a, (#_y_speed)
      0008D6 EE 80            [ 8] 1853 	xor	a, #0x80
      0008D8 D6 94            [ 8] 1854 	sub	a, #0x94
      0008DA 38 04            [12] 1855 	jr	C, 00107$
      0008DC 3E 14            [ 8] 1856 	ld	a, #0x14
      0008DE 18 04            [12] 1857 	jr	00108$
      0008E0                       1858 00107$:
      0008E0 FAr0Cr00         [16] 1859 	ld	a, (#_y_speed)
      0008E3 3C               [ 4] 1860 	inc	a
      0008E4                       1861 00108$:
      0008E4 EAr0Cr00         [16] 1862 	ld	(#_y_speed),a
                                   1863 ;src/player.c:411: }
      0008E7 C9               [16] 1864 	ret
                                   1865 ;src/player.c:413: void end_frame(void){
                                   1866 ;	---------------------------------
                                   1867 ; Function end_frame
                                   1868 ; ---------------------------------
      0008E8                       1869 _end_frame::
                                   1870 ;src/player.c:414: if(frame_counter == (uint8_t)(metasprites_speeds[current_state][current_frame])){
      0008E8 01r00r00         [12] 1871 	ld	bc, #_metasprites_speeds+0
      0008EB 21r13r00         [12] 1872 	ld	hl, #_current_state
      0008EE 6E               [ 8] 1873 	ld	l, (hl)
                                   1874 ;	spillPairReg hl
                                   1875 ;	spillPairReg hl
      0008EF 26 00            [ 8] 1876 	ld	h, #0x00
                                   1877 ;	spillPairReg hl
                                   1878 ;	spillPairReg hl
      0008F1 29               [ 8] 1879 	add	hl, hl
      0008F2 09               [ 8] 1880 	add	hl, bc
      0008F3 2A               [ 8] 1881 	ld	a, (hl+)
      0008F4 4F               [ 4] 1882 	ld	c, a
      0008F5 46               [ 8] 1883 	ld	b, (hl)
      0008F6 79               [ 4] 1884 	ld	a, c
      0008F7 21r02r00         [12] 1885 	ld	hl, #_current_frame
      0008FA 86               [ 8] 1886 	add	a, (hl)
      0008FB 4F               [ 4] 1887 	ld	c, a
      0008FC 30 01            [12] 1888 	jr	NC, 00131$
      0008FE 04               [ 4] 1889 	inc	b
      0008FF                       1890 00131$:
      0008FF 0A               [ 8] 1891 	ld	a, (bc)
      000900 4F               [ 4] 1892 	ld	c, a
      000901 FAr01r00         [16] 1893 	ld	a, (#_frame_counter)
      000904 91               [ 4] 1894 	sub	a, c
      000905 20 24            [12] 1895 	jr	NZ, 00104$
                                   1896 ;src/player.c:415: frame_counter = 0;
      000907 21r01r00         [12] 1897 	ld	hl, #_frame_counter
      00090A 36 00            [12] 1898 	ld	(hl), #0x00
                                   1899 ;src/player.c:416: current_frame++;
      00090C 21r02r00         [12] 1900 	ld	hl, #_current_frame
      00090F 34               [12] 1901 	inc	(hl)
                                   1902 ;src/player.c:417: if(current_frame == frames_in_state[current_state]){current_frame = 0;}
      000910 01r00r00         [12] 1903 	ld	bc, #_frames_in_state+0
      000913 79               [ 4] 1904 	ld	a, c
      000914 21r13r00         [12] 1905 	ld	hl, #_current_state
      000917 86               [ 8] 1906 	add	a, (hl)
      000918 4F               [ 4] 1907 	ld	c, a
      000919 30 01            [12] 1908 	jr	NC, 00134$
      00091B 04               [ 4] 1909 	inc	b
      00091C                       1910 00134$:
      00091C 0A               [ 8] 1911 	ld	a, (bc)
      00091D 4F               [ 4] 1912 	ld	c, a
      00091E FAr02r00         [16] 1913 	ld	a, (#_current_frame)
      000921 91               [ 4] 1914 	sub	a, c
      000922 20 0B            [12] 1915 	jr	NZ, 00105$
      000924 21r02r00         [12] 1916 	ld	hl, #_current_frame
      000927 36 00            [12] 1917 	ld	(hl), #0x00
      000929 18 04            [12] 1918 	jr	00105$
      00092B                       1919 00104$:
                                   1920 ;src/player.c:419: frame_counter++;
      00092B 21r01r00         [12] 1921 	ld	hl, #_frame_counter
      00092E 34               [12] 1922 	inc	(hl)
      00092F                       1923 00105$:
                                   1924 ;src/player.c:422: if(!rand_init){
      00092F 21r00r00         [12] 1925 	ld	hl, #_rand_init
      000932 CB 46            [12] 1926 	bit	0, (hl)
      000934 C0               [20] 1927 	ret	NZ
                                   1928 ;src/player.c:423: r = r ^ DIV_REG ^ (current_frame << frame_counter);
      000935 F0r00            [12] 1929 	ldh	a, (_DIV_REG + 0)
      000937 21r00r00         [12] 1930 	ld	hl, #_r
      00093A AE               [ 8] 1931 	xor	a, (hl)
      00093B 21r01r00         [12] 1932 	ld	hl, #_frame_counter
      00093E 46               [ 8] 1933 	ld	b, (hl)
      00093F 21r02r00         [12] 1934 	ld	hl, #_current_frame
      000942 4E               [ 8] 1935 	ld	c, (hl)
      000943 04               [ 4] 1936 	inc	b
      000944 18 02            [12] 1937 	jr	00138$
      000946                       1938 00137$:
      000946 CB 21            [ 8] 1939 	sla	c
      000948                       1940 00138$:
      000948 05               [ 4] 1941 	dec	b
      000949 20 FB            [12] 1942 	jr	NZ,00137$
      00094B A9               [ 4] 1943 	xor	a, c
      00094C EAr00r00         [16] 1944 	ld	(#_r),a
                                   1945 ;src/player.c:425: }
      00094F C9               [16] 1946 	ret
                                   1947 ;src/player.c:427: static inline void switch_state(PlayerState state){
                                   1948 ;	---------------------------------
                                   1949 ; Function switch_state
                                   1950 ; ---------------------------------
      000950                       1951 _switch_state:
      000950 4F               [ 4] 1952 	ld	c, a
                                   1953 ;src/player.c:428: if(current_state == state) {return;}
                                   1954 ;src/player.c:429: if(current_state == PLAYER_STATE_FALLING){instanciate_collision_puffs();}
      000951 FAr13r00         [16] 1955 	ld	a,(#_current_state)
      000954 B9               [ 4] 1956 	cp	a,c
      000955 C8               [20] 1957 	ret	Z
      000956 D6 03            [ 8] 1958 	sub	a, #0x03
      000958 20 05            [12] 1959 	jr	NZ, 00104$
      00095A C5               [16] 1960 	push	bc
      00095B CDr1Dr08         [24] 1961 	call	_instanciate_collision_puffs
      00095E C1               [12] 1962 	pop	bc
      00095F                       1963 00104$:
                                   1964 ;src/player.c:430: frame_counter = 0;
      00095F 21r01r00         [12] 1965 	ld	hl, #_frame_counter
      000962 36 00            [12] 1966 	ld	(hl), #0x00
                                   1967 ;src/player.c:431: current_frame = 0;
      000964 21r02r00         [12] 1968 	ld	hl, #_current_frame
      000967 36 00            [12] 1969 	ld	(hl), #0x00
                                   1970 ;src/player.c:432: current_state = state;
      000969 21r13r00         [12] 1971 	ld	hl, #_current_state
      00096C 71               [ 8] 1972 	ld	(hl), c
                                   1973 ;src/player.c:433: }
      00096D C9               [16] 1974 	ret
                                   1975 ;src/player.c:437: static void check_collisions(void){
                                   1976 ;	---------------------------------
                                   1977 ; Function check_collisions
                                   1978 ; ---------------------------------
      00096E                       1979 _check_collisions:
      00096E E8 F0            [16] 1980 	add	sp, #-16
                                   1981 ;src/player.c:439: for(i=0; i<8; i++){
      000970 21r04r00         [12] 1982 	ld	hl, #_i
      000973 36 00            [12] 1983 	ld	(hl), #0x00
      000975                       1984 00133$:
                                   1985 ;src/player.c:440: r = &rect_list[PLAYER_FLOOR][i];
      000975 FAr0Fr00         [16] 1986 	ld	a, (#_player_y)
      000978 07               [ 4] 1987 	rlca
      000979 07               [ 4] 1988 	rlca
      00097A E6 03            [ 8] 1989 	and	a, #0x03
      00097C 4F               [ 4] 1990 	ld	c, a
      00097D 06 00            [ 8] 1991 	ld	b, #0x00
      00097F 69               [ 4] 1992 	ld	l, c
      000980 60               [ 4] 1993 	ld	h, b
      000981 29               [ 8] 1994 	add	hl, hl
      000982 29               [ 8] 1995 	add	hl, hl
      000983 09               [ 8] 1996 	add	hl, bc
      000984 29               [ 8] 1997 	add	hl, hl
      000985 29               [ 8] 1998 	add	hl, hl
      000986 29               [ 8] 1999 	add	hl, hl
      000987 01r00r00         [12] 2000 	ld	bc,#_rect_list
      00098A 09               [ 8] 2001 	add	hl,bc
      00098B 4D               [ 4] 2002 	ld	c, l
      00098C 44               [ 4] 2003 	ld	b, h
      00098D FAr04r00         [16] 2004 	ld	a, (#_i)
      000990 5F               [ 4] 2005 	ld	e, a
      000991 87               [ 4] 2006 	add	a, a
      000992 87               [ 4] 2007 	add	a, a
      000993 83               [ 4] 2008 	add	a, e
      000994 81               [ 4] 2009 	add	a, c
      000995 4F               [ 4] 2010 	ld	c, a
      000996 3E 00            [ 8] 2011 	ld	a, #0x00
      000998 88               [ 4] 2012 	adc	a, b
      000999 F8 01            [12] 2013 	ldhl	sp,	#1
      00099B 71               [ 8] 2014 	ld	(hl), c
      00099C 23               [ 8] 2015 	inc	hl
                                   2016 ;src/player.c:441: if(r->type == INACTIVE) continue;
      00099D 32               [ 8] 2017 	ld	(hl-), a
      00099E 2A               [ 8] 2018 	ld	a, (hl+)
      00099F 5F               [ 4] 2019 	ld	e, a
      0009A0 56               [ 8] 2020 	ld	d, (hl)
      0009A1 21 04 00         [12] 2021 	ld	hl, #0x0004
      0009A4 19               [ 8] 2022 	add	hl, de
      0009A5 4D               [ 4] 2023 	ld	c, l
      0009A6 44               [ 4] 2024 	ld	b, h
      0009A7 0A               [ 8] 2025 	ld	a, (bc)
      0009A8 D6 02            [ 8] 2026 	sub	a, #0x02
      0009AA CAr40r0F         [16] 2027 	jp	Z,00131$
                                   2028 ;src/player.c:442: if(!point_vs_rect(r)) {
      0009AD F8 01            [12] 2029 	ldhl	sp,	#1
      0009AF 5E               [ 8] 2030 	ld	e, (hl)
      0009B0 23               [ 8] 2031 	inc	hl
      0009B1 56               [ 8] 2032 	ld	d, (hl)
      0009B2 CDrDCr0F         [24] 2033 	call	_point_vs_rect
      0009B5 4F               [ 4] 2034 	ld	c, a
      0009B6 CB 41            [ 8] 2035 	bit	0, c
      0009B8 CAr40r0F         [16] 2036 	jp	Z, 00131$
                                   2037 ;src/player.c:451: external_point_area |= ((uint8_t)SUB_TO_PX(last_x) >= (r->x + r->size_x)) ? 0x10 : ((uint8_t)SUB_TO_PX(last_x) <= r->x) ? 0x20 : 0x30;        
      0009BB FAr11r00         [16] 2038 	ld	a, (#_last_x + 1)
      0009BE F8 06            [12] 2039 	ldhl	sp,	#6
      0009C0 77               [ 8] 2040 	ld	(hl), a
      0009C1 F8 01            [12] 2041 	ldhl	sp,#1
      0009C3 2A               [ 8] 2042 	ld	a, (hl+)
      0009C4 5F               [ 4] 2043 	ld	e, a
      0009C5 56               [ 8] 2044 	ld	d, (hl)
      0009C6 1A               [ 8] 2045 	ld	a, (de)
      0009C7 F8 07            [12] 2046 	ldhl	sp,	#7
      0009C9 77               [ 8] 2047 	ld	(hl), a
      0009CA 2A               [ 8] 2048 	ld	a, (hl+)
      0009CB 22               [ 8] 2049 	ld	(hl+), a
      0009CC 36 00            [12] 2050 	ld	(hl), #0x00
      0009CE F8 01            [12] 2051 	ldhl	sp,#1
      0009D0 2A               [ 8] 2052 	ld	a, (hl+)
      0009D1 5F               [ 4] 2053 	ld	e, a
      0009D2 56               [ 8] 2054 	ld	d, (hl)
      0009D3 21 02 00         [12] 2055 	ld	hl, #0x0002
      0009D6 19               [ 8] 2056 	add	hl, de
      0009D7 E5               [16] 2057 	push	hl
      0009D8 7D               [ 4] 2058 	ld	a, l
      0009D9 F8 0C            [12] 2059 	ldhl	sp,	#12
      0009DB 77               [ 8] 2060 	ld	(hl), a
      0009DC E1               [12] 2061 	pop	hl
      0009DD 7C               [ 4] 2062 	ld	a, h
      0009DE F8 0B            [12] 2063 	ldhl	sp,	#11
      0009E0 32               [ 8] 2064 	ld	(hl-), a
      0009E1 2A               [ 8] 2065 	ld	a, (hl+)
      0009E2 5F               [ 4] 2066 	ld	e, a
      0009E3 56               [ 8] 2067 	ld	d, (hl)
      0009E4 1A               [ 8] 2068 	ld	a, (de)
      0009E5 F8 0F            [12] 2069 	ldhl	sp,	#15
      0009E7 77               [ 8] 2070 	ld	(hl), a
      0009E8 F8 0C            [12] 2071 	ldhl	sp,	#12
      0009EA 22               [ 8] 2072 	ld	(hl+), a
      0009EB AF               [ 4] 2073 	xor	a, a
      0009EC 32               [ 8] 2074 	ld	(hl-), a
      0009ED 2A               [ 8] 2075 	ld	a, (hl+)
      0009EE 5F               [ 4] 2076 	ld	e, a
      0009EF 56               [ 8] 2077 	ld	d, (hl)
      0009F0 F8 08            [12] 2078 	ldhl	sp,	#8
      0009F2 2A               [ 8] 2079 	ld	a,	(hl+)
      0009F3 66               [ 8] 2080 	ld	h, (hl)
      0009F4 6F               [ 4] 2081 	ld	l, a
      0009F5 19               [ 8] 2082 	add	hl, de
      0009F6 E5               [16] 2083 	push	hl
      0009F7 7D               [ 4] 2084 	ld	a, l
      0009F8 F8 10            [12] 2085 	ldhl	sp,	#16
      0009FA 77               [ 8] 2086 	ld	(hl), a
      0009FB E1               [12] 2087 	pop	hl
      0009FC 7C               [ 4] 2088 	ld	a, h
      0009FD F8 0F            [12] 2089 	ldhl	sp,	#15
      0009FF 77               [ 8] 2090 	ld	(hl), a
      000A00 F8 06            [12] 2091 	ldhl	sp,	#6
      000A02 4E               [ 8] 2092 	ld	c, (hl)
      000A03 06 00            [ 8] 2093 	ld	b, #0x00
      000A05 F8 0E            [12] 2094 	ldhl	sp,	#14
      000A07 79               [ 4] 2095 	ld	a, c
      000A08 96               [ 8] 2096 	sub	a, (hl)
      000A09 23               [ 8] 2097 	inc	hl
      000A0A 78               [ 4] 2098 	ld	a, b
      000A0B 9E               [ 8] 2099 	sbc	a, (hl)
      000A0C 78               [ 4] 2100 	ld	a, b
      000A0D 57               [ 4] 2101 	ld	d, a
      000A0E CB 7E            [12] 2102 	bit	7, (hl)
      000A10 28 07            [12] 2103 	jr	Z, 00301$
      000A12 CB 7A            [ 8] 2104 	bit	7, d
      000A14 20 08            [12] 2105 	jr	NZ, 00302$
      000A16 BF               [ 4] 2106 	cp	a, a
      000A17 18 05            [12] 2107 	jr	00302$
      000A19                       2108 00301$:
      000A19 CB 7A            [ 8] 2109 	bit	7, d
      000A1B 28 01            [12] 2110 	jr	Z, 00302$
      000A1D 37               [ 4] 2111 	scf
      000A1E                       2112 00302$:
      000A1E 38 06            [12] 2113 	jr	C, 00136$
      000A20 F8 0F            [12] 2114 	ldhl	sp,	#15
      000A22 36 10            [12] 2115 	ld	(hl), #0x10
      000A24 18 0F            [12] 2116 	jr	00137$
      000A26                       2117 00136$:
      000A26 F8 07            [12] 2118 	ldhl	sp,	#7
      000A28 3A               [ 8] 2119 	ld	a, (hl-)
      000A29 96               [ 8] 2120 	sub	a, (hl)
      000A2A 38 04            [12] 2121 	jr	C, 00138$
      000A2C 3E 20            [ 8] 2122 	ld	a, #0x20
      000A2E 18 02            [12] 2123 	jr	00139$
      000A30                       2124 00138$:
      000A30 3E 30            [ 8] 2125 	ld	a, #0x30
      000A32                       2126 00139$:
      000A32 F8 0F            [12] 2127 	ldhl	sp,	#15
      000A34 77               [ 8] 2128 	ld	(hl), a
      000A35                       2129 00137$:
      000A35 F8 0F            [12] 2130 	ldhl	sp,	#15
      000A37 7E               [ 8] 2131 	ld	a, (hl)
      000A38 F8 00            [12] 2132 	ldhl	sp,	#0
                                   2133 ;src/player.c:452: external_point_area |= (last_y <= (r->y - r->size_y)) ? 0x01 : (last_y >= r->y) ? 0x02 : 0x03;
      000A3A 22               [ 8] 2134 	ld	(hl+), a
      000A3B 2A               [ 8] 2135 	ld	a, (hl+)
      000A3C 5F               [ 4] 2136 	ld	e, a
      000A3D 56               [ 8] 2137 	ld	d, (hl)
      000A3E 6B               [ 4] 2138 	ld	l, e
      000A3F 62               [ 4] 2139 	ld	h, d
      000A40 23               [ 8] 2140 	inc	hl
      000A41 E5               [16] 2141 	push	hl
      000A42 7D               [ 4] 2142 	ld	a, l
      000A43 F8 10            [12] 2143 	ldhl	sp,	#16
      000A45 77               [ 8] 2144 	ld	(hl), a
      000A46 E1               [12] 2145 	pop	hl
      000A47 7C               [ 4] 2146 	ld	a, h
      000A48 F8 0F            [12] 2147 	ldhl	sp,	#15
      000A4A 32               [ 8] 2148 	ld	(hl-), a
      000A4B 2A               [ 8] 2149 	ld	a, (hl+)
      000A4C 5F               [ 4] 2150 	ld	e, a
      000A4D 56               [ 8] 2151 	ld	d, (hl)
      000A4E 1A               [ 8] 2152 	ld	a, (de)
      000A4F F8 03            [12] 2153 	ldhl	sp,	#3
      000A51 77               [ 8] 2154 	ld	(hl), a
      000A52 2A               [ 8] 2155 	ld	a, (hl+)
      000A53 22               [ 8] 2156 	ld	(hl+), a
      000A54 36 00            [12] 2157 	ld	(hl), #0x00
      000A56 F8 01            [12] 2158 	ldhl	sp,#1
      000A58 2A               [ 8] 2159 	ld	a, (hl+)
      000A59 5F               [ 4] 2160 	ld	e, a
      000A5A 56               [ 8] 2161 	ld	d, (hl)
      000A5B 21 03 00         [12] 2162 	ld	hl, #0x0003
      000A5E 19               [ 8] 2163 	add	hl, de
      000A5F E5               [16] 2164 	push	hl
      000A60 7D               [ 4] 2165 	ld	a, l
      000A61 F8 0E            [12] 2166 	ldhl	sp,	#14
      000A63 77               [ 8] 2167 	ld	(hl), a
      000A64 E1               [12] 2168 	pop	hl
      000A65 7C               [ 4] 2169 	ld	a, h
      000A66 F8 0D            [12] 2170 	ldhl	sp,	#13
      000A68 32               [ 8] 2171 	ld	(hl-), a
      000A69 2A               [ 8] 2172 	ld	a, (hl+)
      000A6A 5F               [ 4] 2173 	ld	e, a
      000A6B 56               [ 8] 2174 	ld	d, (hl)
      000A6C 1A               [ 8] 2175 	ld	a, (de)
      000A6D F8 09            [12] 2176 	ldhl	sp,	#9
      000A6F 77               [ 8] 2177 	ld	(hl), a
      000A70 F8 06            [12] 2178 	ldhl	sp,	#6
      000A72 22               [ 8] 2179 	ld	(hl+), a
      000A73 AF               [ 4] 2180 	xor	a, a
      000A74 32               [ 8] 2181 	ld	(hl-), a
      000A75 2B               [ 8] 2182 	dec	hl
      000A76 2B               [ 8] 2183 	dec	hl
      000A77 2A               [ 8] 2184 	ld	a, (hl+)
      000A78 5F               [ 4] 2185 	ld	e, a
      000A79 2A               [ 8] 2186 	ld	a, (hl+)
      000A7A 57               [ 4] 2187 	ld	d, a
      000A7B 2A               [ 8] 2188 	ld	a,	(hl+)
      000A7C 66               [ 8] 2189 	ld	h, (hl)
      000A7D 6F               [ 4] 2190 	ld	l, a
      000A7E 7B               [ 4] 2191 	ld	a, e
      000A7F 95               [ 4] 2192 	sub	a, l
      000A80 5F               [ 4] 2193 	ld	e, a
      000A81 7A               [ 4] 2194 	ld	a, d
      000A82 9C               [ 4] 2195 	sbc	a, h
      000A83 F8 09            [12] 2196 	ldhl	sp,	#9
      000A85 32               [ 8] 2197 	ld	(hl-), a
      000A86 73               [ 8] 2198 	ld	(hl), e
      000A87 21r12r00         [12] 2199 	ld	hl, #_last_y
      000A8A 4E               [ 8] 2200 	ld	c, (hl)
      000A8B 06 00            [ 8] 2201 	ld	b, #0x00
      000A8D F8 08            [12] 2202 	ldhl	sp,	#8
      000A8F 2A               [ 8] 2203 	ld	a, (hl+)
      000A90 91               [ 4] 2204 	sub	a, c
      000A91 7E               [ 8] 2205 	ld	a, (hl)
      000A92 98               [ 4] 2206 	sbc	a, b
      000A93 56               [ 8] 2207 	ld	d, (hl)
      000A94 78               [ 4] 2208 	ld	a, b
      000A95 CB 7F            [ 8] 2209 	bit	7,a
      000A97 28 07            [12] 2210 	jr	Z, 00303$
      000A99 CB 7A            [ 8] 2211 	bit	7, d
      000A9B 20 08            [12] 2212 	jr	NZ, 00304$
      000A9D BF               [ 4] 2213 	cp	a, a
      000A9E 18 05            [12] 2214 	jr	00304$
      000AA0                       2215 00303$:
      000AA0 CB 7A            [ 8] 2216 	bit	7, d
      000AA2 28 01            [12] 2217 	jr	Z, 00304$
      000AA4 37               [ 4] 2218 	scf
      000AA5                       2219 00304$:
      000AA5 38 06            [12] 2220 	jr	C, 00140$
      000AA7 F8 09            [12] 2221 	ldhl	sp,	#9
      000AA9 36 01            [12] 2222 	ld	(hl), #0x01
      000AAB 18 11            [12] 2223 	jr	00141$
      000AAD                       2224 00140$:
      000AAD FAr12r00         [16] 2225 	ld	a, (#_last_y)
      000AB0 F8 03            [12] 2226 	ldhl	sp,	#3
      000AB2 96               [ 8] 2227 	sub	a, (hl)
      000AB3 38 04            [12] 2228 	jr	C, 00142$
      000AB5 3E 02            [ 8] 2229 	ld	a, #0x02
      000AB7 18 02            [12] 2230 	jr	00143$
      000AB9                       2231 00142$:
      000AB9 3E 03            [ 8] 2232 	ld	a, #0x03
      000ABB                       2233 00143$:
      000ABB F8 09            [12] 2234 	ldhl	sp,	#9
      000ABD 77               [ 8] 2235 	ld	(hl), a
      000ABE                       2236 00141$:
      000ABE F8 09            [12] 2237 	ldhl	sp,	#9
      000AC0 46               [ 8] 2238 	ld	b, (hl)
      000AC1 F8 00            [12] 2239 	ldhl	sp,	#0
      000AC3 7E               [ 8] 2240 	ld	a, (hl)
      000AC4 B0               [ 4] 2241 	or	a, b
      000AC5 4F               [ 4] 2242 	ld	c, a
                                   2243 ;src/player.c:454: if((player_y > last_y) ? (player_y - last_y) > 50 : (last_y - player_y) > 50){
      000AC6 FAr12r00         [16] 2244 	ld	a, (#_last_y)
      000AC9 21r0Fr00         [12] 2245 	ld	hl, #_player_y
      000ACC 96               [ 8] 2246 	sub	a, (hl)
      000ACD 30 2C            [12] 2247 	jr	NC, 00144$
      000ACF 7E               [ 8] 2248 	ld	a, (hl)
      000AD0 06 00            [ 8] 2249 	ld	b, #0x00
      000AD2 21r12r00         [12] 2250 	ld	hl, #_last_y
      000AD5 5E               [ 8] 2251 	ld	e, (hl)
      000AD6 16 00            [ 8] 2252 	ld	d, #0x00
      000AD8 93               [ 4] 2253 	sub	a, e
      000AD9 6F               [ 4] 2254 	ld	l, a
                                   2255 ;	spillPairReg hl
                                   2256 ;	spillPairReg hl
      000ADA 78               [ 4] 2257 	ld	a, b
      000ADB 9A               [ 4] 2258 	sbc	a, d
      000ADC 67               [ 4] 2259 	ld	h, a
                                   2260 ;	spillPairReg hl
                                   2261 ;	spillPairReg hl
      000ADD 5C               [ 4] 2262 	ld	e, h
      000ADE 16 00            [ 8] 2263 	ld	d, #0x00
      000AE0 3E 32            [ 8] 2264 	ld	a, #0x32
      000AE2 BD               [ 4] 2265 	cp	a, l
      000AE3 3E 00            [ 8] 2266 	ld	a, #0x00
      000AE5 9C               [ 4] 2267 	sbc	a, h
      000AE6 CB 7B            [ 8] 2268 	bit	7, e
      000AE8 28 07            [12] 2269 	jr	Z, 00305$
      000AEA CB 7A            [ 8] 2270 	bit	7, d
      000AEC 20 08            [12] 2271 	jr	NZ, 00306$
      000AEE BF               [ 4] 2272 	cp	a, a
      000AEF 18 05            [12] 2273 	jr	00306$
      000AF1                       2274 00305$:
      000AF1 CB 7A            [ 8] 2275 	bit	7, d
      000AF3 28 01            [12] 2276 	jr	Z, 00306$
      000AF5 37               [ 4] 2277 	scf
      000AF6                       2278 00306$:
      000AF6 3E 00            [ 8] 2279 	ld	a, #0x00
      000AF8 17               [ 4] 2280 	rla
      000AF9 18 2E            [12] 2281 	jr	00145$
      000AFB                       2282 00144$:
      000AFB 21r12r00         [12] 2283 	ld	hl, #_last_y
      000AFE 5E               [ 8] 2284 	ld	e, (hl)
      000AFF 16 00            [ 8] 2285 	ld	d, #0x00
      000B01 21r0Fr00         [12] 2286 	ld	hl, #_player_y
      000B04 6E               [ 8] 2287 	ld	l, (hl)
                                   2288 ;	spillPairReg hl
                                   2289 ;	spillPairReg hl
      000B05 26 00            [ 8] 2290 	ld	h, #0x00
                                   2291 ;	spillPairReg hl
                                   2292 ;	spillPairReg hl
      000B07 7B               [ 4] 2293 	ld	a, e
      000B08 95               [ 4] 2294 	sub	a, l
      000B09 6F               [ 4] 2295 	ld	l, a
                                   2296 ;	spillPairReg hl
                                   2297 ;	spillPairReg hl
      000B0A 7A               [ 4] 2298 	ld	a, d
      000B0B 9C               [ 4] 2299 	sbc	a, h
      000B0C 47               [ 4] 2300 	ld	b, a
      000B0D 58               [ 4] 2301 	ld	e, b
      000B0E 16 00            [ 8] 2302 	ld	d, #0x00
      000B10 3E 32            [ 8] 2303 	ld	a, #0x32
      000B12 BD               [ 4] 2304 	cp	a, l
      000B13 3E 00            [ 8] 2305 	ld	a, #0x00
      000B15 98               [ 4] 2306 	sbc	a, b
      000B16 CB 7B            [ 8] 2307 	bit	7, e
      000B18 28 07            [12] 2308 	jr	Z, 00307$
      000B1A CB 7A            [ 8] 2309 	bit	7, d
      000B1C 20 08            [12] 2310 	jr	NZ, 00308$
      000B1E BF               [ 4] 2311 	cp	a, a
      000B1F 18 05            [12] 2312 	jr	00308$
      000B21                       2313 00307$:
      000B21 CB 7A            [ 8] 2314 	bit	7, d
      000B23 28 01            [12] 2315 	jr	Z, 00308$
      000B25 37               [ 4] 2316 	scf
      000B26                       2317 00308$:
      000B26 3E 00            [ 8] 2318 	ld	a, #0x00
      000B28 17               [ 4] 2319 	rla
      000B29                       2320 00145$:
      000B29 B7               [ 4] 2321 	or	a, a
      000B2A 28 06            [12] 2322 	jr	Z, 00106$
                                   2323 ;src/player.c:455: external_point_area = (external_point_area & 0xF0) + 0x02; //check for overflow height
      000B2C 79               [ 4] 2324 	ld	a, c
      000B2D E6 F0            [ 8] 2325 	and	a, #0xf0
      000B2F C6 02            [ 8] 2326 	add	a, #0x02
      000B31 4F               [ 4] 2327 	ld	c, a
      000B32                       2328 00106$:
                                   2329 ;src/player.c:458: if(rect_functions[r->type](external_point_area)) continue;
      000B32 F8 01            [12] 2330 	ldhl	sp,#1
      000B34 2A               [ 8] 2331 	ld	a, (hl+)
      000B35 5F               [ 4] 2332 	ld	e, a
      000B36 56               [ 8] 2333 	ld	d, (hl)
      000B37 21 04 00         [12] 2334 	ld	hl, #0x0004
      000B3A 19               [ 8] 2335 	add	hl, de
      000B3B 5D               [ 4] 2336 	ld	e, l
      000B3C 54               [ 4] 2337 	ld	d, h
      000B3D 1A               [ 8] 2338 	ld	a, (de)
      000B3E 26 00            [ 8] 2339 	ld	h, #0x00
                                   2340 ;	spillPairReg hl
                                   2341 ;	spillPairReg hl
      000B40 6F               [ 4] 2342 	ld	l, a
      000B41 29               [ 8] 2343 	add	hl, hl
      000B42 11r04r00         [12] 2344 	ld	de, #_rect_functions
      000B45 19               [ 8] 2345 	add	hl, de
      000B46 2A               [ 8] 2346 	ld	a, (hl+)
      000B47 47               [ 4] 2347 	ld	b, a
      000B48 66               [ 8] 2348 	ld	h, (hl)
                                   2349 ;	spillPairReg hl
      000B49 C5               [16] 2350 	push	bc
      000B4A 79               [ 4] 2351 	ld	a, c
      000B4B 68               [ 4] 2352 	ld	l, b
                                   2353 ;	spillPairReg hl
                                   2354 ;	spillPairReg hl
      000B4C CDr00r00         [24] 2355 	call	___sdcc_call_hl
      000B4F 6F               [ 4] 2356 	ld	l, a
                                   2357 ;	spillPairReg hl
                                   2358 ;	spillPairReg hl
      000B50 C1               [12] 2359 	pop	bc
      000B51 CB 45            [ 8] 2360 	bit	0, l
      000B53 C2r40r0F         [16] 2361 	jp	NZ, 00131$
                                   2362 ;src/player.c:461: switch (external_point_area)
      000B56 79               [ 4] 2363 	ld	a,c
      000B57 FE 11            [ 8] 2364 	cp	a,#0x11
      000B59 28 26            [12] 2365 	jr	Z, 00109$
      000B5B FE 12            [ 8] 2366 	cp	a,#0x12
      000B5D CAr6Dr0C         [16] 2367 	jp	Z,00113$
      000B60 FE 13            [ 8] 2368 	cp	a,#0x13
      000B62 CAr45r0D         [16] 2369 	jp	Z,00117$
      000B65 FE 21            [ 8] 2370 	cp	a,#0x21
      000B67 CAr63r0D         [16] 2371 	jp	Z,00118$
      000B6A FE 22            [ 8] 2372 	cp	a,#0x22
      000B6C CAr3Cr0E         [16] 2373 	jp	Z,00122$
      000B6F FE 23            [ 8] 2374 	cp	a,#0x23
      000B71 CArF9r0E         [16] 2375 	jp	Z,00126$
      000B74 FE 31            [ 8] 2376 	cp	a,#0x31
      000B76 CAr0Br0F         [16] 2377 	jp	Z,00127$
      000B79 D6 32            [ 8] 2378 	sub	a, #0x32
      000B7B CAr31r0F         [16] 2379 	jp	Z,00128$
      000B7E C3r40r0F         [16] 2380 	jp	00131$
                                   2381 ;src/player.c:463: case RIGHT_UP: // RIGHT - UP
      000B81                       2382 00109$:
                                   2383 ;src/player.c:464: rx = r->x + r->size_x;
      000B81 F8 01            [12] 2384 	ldhl	sp,#1
      000B83 2A               [ 8] 2385 	ld	a, (hl+)
      000B84 5F               [ 4] 2386 	ld	e, a
      000B85 56               [ 8] 2387 	ld	d, (hl)
      000B86 1A               [ 8] 2388 	ld	a, (de)
      000B87 F8 0A            [12] 2389 	ldhl	sp,#10
      000B89 5E               [ 8] 2390 	ld	e, (hl)
      000B8A 23               [ 8] 2391 	inc	hl
      000B8B 56               [ 8] 2392 	ld	d, (hl)
      000B8C F5               [16] 2393 	push	af
      000B8D 1A               [ 8] 2394 	ld	a, (de)
      000B8E F8 05            [12] 2395 	ldhl	sp,	#5
      000B90 77               [ 8] 2396 	ld	(hl), a
      000B91 F1               [12] 2397 	pop	af
      000B92 86               [ 8] 2398 	add	a, (hl)
      000B93 23               [ 8] 2399 	inc	hl
      000B94 77               [ 8] 2400 	ld	(hl), a
                                   2401 ;src/player.c:465: ry = r->y - r->size_y;
      000B95 F8 0E            [12] 2402 	ldhl	sp,#14
      000B97 2A               [ 8] 2403 	ld	a, (hl+)
      000B98 5F               [ 4] 2404 	ld	e, a
      000B99 3A               [ 8] 2405 	ld	a, (hl-)
      000B9A 2B               [ 8] 2406 	dec	hl
      000B9B 2B               [ 8] 2407 	dec	hl
      000B9C 57               [ 4] 2408 	ld	d, a
      000B9D 1A               [ 8] 2409 	ld	a, (de)
      000B9E 5E               [ 8] 2410 	ld	e, (hl)
      000B9F 23               [ 8] 2411 	inc	hl
      000BA0 56               [ 8] 2412 	ld	d, (hl)
      000BA1 F5               [16] 2413 	push	af
      000BA2 1A               [ 8] 2414 	ld	a, (de)
      000BA3 4F               [ 4] 2415 	ld	c, a
      000BA4 F1               [12] 2416 	pop	af
      000BA5 91               [ 4] 2417 	sub	a, c
      000BA6 F8 05            [12] 2418 	ldhl	sp,	#5
      000BA8 77               [ 8] 2419 	ld	(hl), a
      000BA9 4E               [ 8] 2420 	ld	c, (hl)
                                   2421 ;src/player.c:466: if((ry-player_y)*((uint8_t)SUB_TO_PX(last_x) - (uint8_t)SUB_TO_PX(player_x)) < (last_y - player_y)*(rx-(uint8_t)SUB_TO_PX(player_x))){
      000BAA 06 00            [ 8] 2422 	ld	b, #0x00
      000BAC FAr0Fr00         [16] 2423 	ld	a, (#_player_y)
      000BAF F8 06            [12] 2424 	ldhl	sp,	#6
      000BB1 22               [ 8] 2425 	ld	(hl+), a
      000BB2 AF               [ 4] 2426 	xor	a, a
      000BB3 32               [ 8] 2427 	ld	(hl-), a
      000BB4 2A               [ 8] 2428 	ld	a, (hl+)
      000BB5 5F               [ 4] 2429 	ld	e, a
      000BB6 56               [ 8] 2430 	ld	d, (hl)
      000BB7 79               [ 4] 2431 	ld	a, c
      000BB8 93               [ 4] 2432 	sub	a, e
      000BB9 5F               [ 4] 2433 	ld	e, a
      000BBA 78               [ 4] 2434 	ld	a, b
      000BBB 9A               [ 4] 2435 	sbc	a, d
      000BBC F8 0F            [12] 2436 	ldhl	sp,	#15
      000BBE 32               [ 8] 2437 	ld	(hl-), a
      000BBF 73               [ 8] 2438 	ld	(hl), e
      000BC0 FAr11r00         [16] 2439 	ld	a, (#_last_x + 1)
      000BC3 06 00            [ 8] 2440 	ld	b, #0x00
      000BC5 21r0Er00         [12] 2441 	ld	hl, #_player_x + 1
      000BC8 4E               [ 8] 2442 	ld	c, (hl)
      000BC9 F8 08            [12] 2443 	ldhl	sp,	#8
      000BCB 71               [ 8] 2444 	ld	(hl), c
      000BCC 23               [ 8] 2445 	inc	hl
      000BCD 36 00            [12] 2446 	ld	(hl), #0x00
      000BCF 5F               [ 4] 2447 	ld	e, a
      000BD0 50               [ 4] 2448 	ld	d, b
      000BD1 3A               [ 8] 2449 	ld	a, (hl-)
      000BD2 6E               [ 8] 2450 	ld	l, (hl)
      000BD3 67               [ 4] 2451 	ld	h, a
      000BD4 7B               [ 4] 2452 	ld	a, e
      000BD5 95               [ 4] 2453 	sub	a, l
      000BD6 5F               [ 4] 2454 	ld	e, a
      000BD7 7A               [ 4] 2455 	ld	a, d
      000BD8 9C               [ 4] 2456 	sbc	a, h
      000BD9 47               [ 4] 2457 	ld	b, a
      000BDA 4B               [ 4] 2458 	ld	c, e
      000BDB F8 0E            [12] 2459 	ldhl	sp,	#14
      000BDD 2A               [ 8] 2460 	ld	a, (hl+)
      000BDE 5F               [ 4] 2461 	ld	e, a
      000BDF 56               [ 8] 2462 	ld	d, (hl)
      000BE0 CDr00r00         [24] 2463 	call	__mulint
      000BE3 F8 0A            [12] 2464 	ldhl	sp,	#10
      000BE5 79               [ 4] 2465 	ld	a, c
      000BE6 22               [ 8] 2466 	ld	(hl+), a
      000BE7 70               [ 8] 2467 	ld	(hl), b
      000BE8 FAr12r00         [16] 2468 	ld	a, (#_last_y)
      000BEB F8 0C            [12] 2469 	ldhl	sp,	#12
      000BED 22               [ 8] 2470 	ld	(hl+), a
      000BEE AF               [ 4] 2471 	xor	a, a
      000BEF 32               [ 8] 2472 	ld	(hl-), a
      000BF0 2A               [ 8] 2473 	ld	a, (hl+)
      000BF1 5F               [ 4] 2474 	ld	e, a
      000BF2 56               [ 8] 2475 	ld	d, (hl)
      000BF3 F8 06            [12] 2476 	ldhl	sp,	#6
      000BF5 2A               [ 8] 2477 	ld	a,	(hl+)
      000BF6 66               [ 8] 2478 	ld	h, (hl)
      000BF7 6F               [ 4] 2479 	ld	l, a
      000BF8 7B               [ 4] 2480 	ld	a, e
      000BF9 95               [ 4] 2481 	sub	a, l
      000BFA 5F               [ 4] 2482 	ld	e, a
      000BFB 7A               [ 4] 2483 	ld	a, d
      000BFC 9C               [ 4] 2484 	sbc	a, h
      000BFD F8 0F            [12] 2485 	ldhl	sp,	#15
      000BFF 32               [ 8] 2486 	ld	(hl-), a
      000C00 73               [ 8] 2487 	ld	(hl), e
      000C01 F8 04            [12] 2488 	ldhl	sp,	#4
      000C03 4E               [ 8] 2489 	ld	c, (hl)
      000C04 06 00            [ 8] 2490 	ld	b, #0x00
      000C06 F8 08            [12] 2491 	ldhl	sp,#8
      000C08 2A               [ 8] 2492 	ld	a, (hl+)
      000C09 5F               [ 4] 2493 	ld	e, a
      000C0A 56               [ 8] 2494 	ld	d, (hl)
      000C0B 79               [ 4] 2495 	ld	a, c
      000C0C 93               [ 4] 2496 	sub	a, e
      000C0D 5F               [ 4] 2497 	ld	e, a
      000C0E 78               [ 4] 2498 	ld	a, b
      000C0F 9A               [ 4] 2499 	sbc	a, d
      000C10 47               [ 4] 2500 	ld	b, a
      000C11 4B               [ 4] 2501 	ld	c, e
      000C12 F8 0E            [12] 2502 	ldhl	sp,	#14
      000C14 2A               [ 8] 2503 	ld	a, (hl+)
      000C15 5F               [ 4] 2504 	ld	e, a
      000C16 56               [ 8] 2505 	ld	d, (hl)
      000C17 CDr00r00         [24] 2506 	call	__mulint
      000C1A F8 0A            [12] 2507 	ldhl	sp,	#10
      000C1C 2A               [ 8] 2508 	ld	a, (hl+)
      000C1D 91               [ 4] 2509 	sub	a, c
      000C1E 7E               [ 8] 2510 	ld	a, (hl)
      000C1F 98               [ 4] 2511 	sbc	a, b
      000C20 56               [ 8] 2512 	ld	d, (hl)
      000C21 78               [ 4] 2513 	ld	a, b
      000C22 5F               [ 4] 2514 	ld	e, a
      000C23 CB 7B            [ 8] 2515 	bit	7, e
      000C25 28 07            [12] 2516 	jr	Z, 00317$
      000C27 CB 7A            [ 8] 2517 	bit	7, d
      000C29 20 08            [12] 2518 	jr	NZ, 00318$
      000C2B BF               [ 4] 2519 	cp	a, a
      000C2C 18 05            [12] 2520 	jr	00318$
      000C2E                       2521 00317$:
      000C2E CB 7A            [ 8] 2522 	bit	7, d
      000C30 28 01            [12] 2523 	jr	Z, 00318$
      000C32 37               [ 4] 2524 	scf
      000C33                       2525 00318$:
      000C33 30 1F            [12] 2526 	jr	NC, 00111$
                                   2527 ;src/player.c:468: player_x = (uint16_t)PX_TO_SUB(r->x + r->size_x + 1);
      000C35 F8 01            [12] 2528 	ldhl	sp,#1
      000C37 2A               [ 8] 2529 	ld	a, (hl+)
      000C38 5F               [ 4] 2530 	ld	e, a
      000C39 2A               [ 8] 2531 	ld	a, (hl+)
      000C3A 57               [ 4] 2532 	ld	d, a
      000C3B 1A               [ 8] 2533 	ld	a, (de)
      000C3C 4F               [ 4] 2534 	ld	c, a
      000C3D 06 00            [ 8] 2535 	ld	b, #0x00
      000C3F 7E               [ 8] 2536 	ld	a, (hl)
      000C40 1E 00            [ 8] 2537 	ld	e, #0x00
      000C42 81               [ 4] 2538 	add	a, c
      000C43 4F               [ 4] 2539 	ld	c, a
      000C44 7B               [ 4] 2540 	ld	a, e
      000C45 88               [ 4] 2541 	adc	a, b
      000C46 47               [ 4] 2542 	ld	b, a
      000C47 03               [ 8] 2543 	inc	bc
      000C48 41               [ 4] 2544 	ld	b, c
      000C49 0E 00            [ 8] 2545 	ld	c, #0x00
      000C4B 21r0Dr00         [12] 2546 	ld	hl, #_player_x
      000C4E 79               [ 4] 2547 	ld	a, c
      000C4F 22               [ 8] 2548 	ld	(hl+), a
      000C50 70               [ 8] 2549 	ld	(hl), b
      000C51 C3r40r0F         [16] 2550 	jp	00131$
      000C54                       2551 00111$:
                                   2552 ;src/player.c:472: player_y = r->y - r->size_y - 1;
      000C54 F8 05            [12] 2553 	ldhl	sp,	#5
      000C56 7E               [ 8] 2554 	ld	a, (hl)
      000C57 3D               [ 4] 2555 	dec	a
      000C58 EAr0Fr00         [16] 2556 	ld	(#_player_y),a
                                   2557 ;src/player.c:473: is_grounded = true;
      000C5B 21r0Ar00         [12] 2558 	ld	hl, #_is_grounded
      000C5E 36 01            [12] 2559 	ld	(hl), #0x01
                                   2560 ;src/player.c:474: current_coyote_frames = 0;
      000C60 21r14r00         [12] 2561 	ld	hl, #_current_coyote_frames
      000C63 36 00            [12] 2562 	ld	(hl), #0x00
                                   2563 ;src/player.c:475: y_speed = 0;
      000C65 21r0Cr00         [12] 2564 	ld	hl, #_y_speed
      000C68 36 00            [12] 2565 	ld	(hl), #0x00
                                   2566 ;src/player.c:477: break;
      000C6A C3r40r0F         [16] 2567 	jp	00131$
                                   2568 ;src/player.c:479: case RIGHT_DOWN: // RIGHT - DOWN
      000C6D                       2569 00113$:
                                   2570 ;src/player.c:480: rx = r->x + r->size_x;
      000C6D F8 01            [12] 2571 	ldhl	sp,#1
      000C6F 2A               [ 8] 2572 	ld	a, (hl+)
      000C70 5F               [ 4] 2573 	ld	e, a
      000C71 56               [ 8] 2574 	ld	d, (hl)
      000C72 1A               [ 8] 2575 	ld	a, (de)
      000C73 F8 0A            [12] 2576 	ldhl	sp,#10
      000C75 5E               [ 8] 2577 	ld	e, (hl)
      000C76 23               [ 8] 2578 	inc	hl
      000C77 56               [ 8] 2579 	ld	d, (hl)
      000C78 F5               [16] 2580 	push	af
      000C79 1A               [ 8] 2581 	ld	a, (de)
      000C7A F8 05            [12] 2582 	ldhl	sp,	#5
      000C7C 77               [ 8] 2583 	ld	(hl), a
      000C7D F1               [12] 2584 	pop	af
      000C7E 86               [ 8] 2585 	add	a, (hl)
      000C7F 23               [ 8] 2586 	inc	hl
      000C80 77               [ 8] 2587 	ld	(hl), a
                                   2588 ;src/player.c:481: ry = r->y;
      000C81 F8 0E            [12] 2589 	ldhl	sp,#14
      000C83 2A               [ 8] 2590 	ld	a, (hl+)
      000C84 5F               [ 4] 2591 	ld	e, a
      000C85 56               [ 8] 2592 	ld	d, (hl)
      000C86 1A               [ 8] 2593 	ld	a, (de)
      000C87 F8 05            [12] 2594 	ldhl	sp,	#5
      000C89 77               [ 8] 2595 	ld	(hl), a
      000C8A 4E               [ 8] 2596 	ld	c, (hl)
                                   2597 ;src/player.c:482: if((ry-player_y)*((uint8_t)SUB_TO_PX(last_x) - (uint8_t)SUB_TO_PX(player_x)) > (last_y - player_y)*(rx-(uint8_t)SUB_TO_PX(player_x))){
      000C8B 06 00            [ 8] 2598 	ld	b, #0x00
      000C8D FAr0Fr00         [16] 2599 	ld	a, (#_player_y)
      000C90 F8 06            [12] 2600 	ldhl	sp,	#6
      000C92 22               [ 8] 2601 	ld	(hl+), a
      000C93 AF               [ 4] 2602 	xor	a, a
      000C94 32               [ 8] 2603 	ld	(hl-), a
      000C95 2A               [ 8] 2604 	ld	a, (hl+)
      000C96 5F               [ 4] 2605 	ld	e, a
      000C97 56               [ 8] 2606 	ld	d, (hl)
      000C98 79               [ 4] 2607 	ld	a, c
      000C99 93               [ 4] 2608 	sub	a, e
      000C9A 5F               [ 4] 2609 	ld	e, a
      000C9B 78               [ 4] 2610 	ld	a, b
      000C9C 9A               [ 4] 2611 	sbc	a, d
      000C9D F8 0F            [12] 2612 	ldhl	sp,	#15
      000C9F 32               [ 8] 2613 	ld	(hl-), a
      000CA0 73               [ 8] 2614 	ld	(hl), e
      000CA1 FAr11r00         [16] 2615 	ld	a, (#_last_x + 1)
      000CA4 06 00            [ 8] 2616 	ld	b, #0x00
      000CA6 21r0Er00         [12] 2617 	ld	hl, #_player_x + 1
      000CA9 4E               [ 8] 2618 	ld	c, (hl)
      000CAA F8 08            [12] 2619 	ldhl	sp,	#8
      000CAC 71               [ 8] 2620 	ld	(hl), c
      000CAD 23               [ 8] 2621 	inc	hl
      000CAE 36 00            [12] 2622 	ld	(hl), #0x00
      000CB0 5F               [ 4] 2623 	ld	e, a
      000CB1 50               [ 4] 2624 	ld	d, b
      000CB2 3A               [ 8] 2625 	ld	a, (hl-)
      000CB3 6E               [ 8] 2626 	ld	l, (hl)
      000CB4 67               [ 4] 2627 	ld	h, a
      000CB5 7B               [ 4] 2628 	ld	a, e
      000CB6 95               [ 4] 2629 	sub	a, l
      000CB7 5F               [ 4] 2630 	ld	e, a
      000CB8 7A               [ 4] 2631 	ld	a, d
      000CB9 9C               [ 4] 2632 	sbc	a, h
      000CBA 47               [ 4] 2633 	ld	b, a
      000CBB 4B               [ 4] 2634 	ld	c, e
      000CBC F8 0E            [12] 2635 	ldhl	sp,	#14
      000CBE 2A               [ 8] 2636 	ld	a, (hl+)
      000CBF 5F               [ 4] 2637 	ld	e, a
      000CC0 56               [ 8] 2638 	ld	d, (hl)
      000CC1 CDr00r00         [24] 2639 	call	__mulint
      000CC4 F8 0A            [12] 2640 	ldhl	sp,	#10
      000CC6 79               [ 4] 2641 	ld	a, c
      000CC7 22               [ 8] 2642 	ld	(hl+), a
      000CC8 70               [ 8] 2643 	ld	(hl), b
      000CC9 FAr12r00         [16] 2644 	ld	a, (#_last_y)
      000CCC F8 0C            [12] 2645 	ldhl	sp,	#12
      000CCE 22               [ 8] 2646 	ld	(hl+), a
      000CCF AF               [ 4] 2647 	xor	a, a
      000CD0 32               [ 8] 2648 	ld	(hl-), a
      000CD1 2A               [ 8] 2649 	ld	a, (hl+)
      000CD2 5F               [ 4] 2650 	ld	e, a
      000CD3 56               [ 8] 2651 	ld	d, (hl)
      000CD4 F8 06            [12] 2652 	ldhl	sp,	#6
      000CD6 2A               [ 8] 2653 	ld	a,	(hl+)
      000CD7 66               [ 8] 2654 	ld	h, (hl)
      000CD8 6F               [ 4] 2655 	ld	l, a
      000CD9 7B               [ 4] 2656 	ld	a, e
      000CDA 95               [ 4] 2657 	sub	a, l
      000CDB 5F               [ 4] 2658 	ld	e, a
      000CDC 7A               [ 4] 2659 	ld	a, d
      000CDD 9C               [ 4] 2660 	sbc	a, h
      000CDE F8 0F            [12] 2661 	ldhl	sp,	#15
      000CE0 32               [ 8] 2662 	ld	(hl-), a
      000CE1 73               [ 8] 2663 	ld	(hl), e
      000CE2 F8 04            [12] 2664 	ldhl	sp,	#4
      000CE4 4E               [ 8] 2665 	ld	c, (hl)
      000CE5 06 00            [ 8] 2666 	ld	b, #0x00
      000CE7 F8 08            [12] 2667 	ldhl	sp,#8
      000CE9 2A               [ 8] 2668 	ld	a, (hl+)
      000CEA 5F               [ 4] 2669 	ld	e, a
      000CEB 56               [ 8] 2670 	ld	d, (hl)
      000CEC 79               [ 4] 2671 	ld	a, c
      000CED 93               [ 4] 2672 	sub	a, e
      000CEE 5F               [ 4] 2673 	ld	e, a
      000CEF 78               [ 4] 2674 	ld	a, b
      000CF0 9A               [ 4] 2675 	sbc	a, d
      000CF1 47               [ 4] 2676 	ld	b, a
      000CF2 4B               [ 4] 2677 	ld	c, e
      000CF3 F8 0E            [12] 2678 	ldhl	sp,	#14
      000CF5 2A               [ 8] 2679 	ld	a, (hl+)
      000CF6 5F               [ 4] 2680 	ld	e, a
      000CF7 56               [ 8] 2681 	ld	d, (hl)
      000CF8 CDr00r00         [24] 2682 	call	__mulint
      000CFB F8 0A            [12] 2683 	ldhl	sp,	#10
      000CFD 79               [ 4] 2684 	ld	a, c
      000CFE 96               [ 8] 2685 	sub	a, (hl)
      000CFF 23               [ 8] 2686 	inc	hl
      000D00 78               [ 4] 2687 	ld	a, b
      000D01 9E               [ 8] 2688 	sbc	a, (hl)
      000D02 78               [ 4] 2689 	ld	a, b
      000D03 57               [ 4] 2690 	ld	d, a
      000D04 5E               [ 8] 2691 	ld	e, (hl)
      000D05 CB 7B            [ 8] 2692 	bit	7, e
      000D07 28 07            [12] 2693 	jr	Z, 00319$
      000D09 CB 7A            [ 8] 2694 	bit	7, d
      000D0B 20 08            [12] 2695 	jr	NZ, 00320$
      000D0D BF               [ 4] 2696 	cp	a, a
      000D0E 18 05            [12] 2697 	jr	00320$
      000D10                       2698 00319$:
      000D10 CB 7A            [ 8] 2699 	bit	7, d
      000D12 28 01            [12] 2700 	jr	Z, 00320$
      000D14 37               [ 4] 2701 	scf
      000D15                       2702 00320$:
      000D15 30 1F            [12] 2703 	jr	NC, 00115$
                                   2704 ;src/player.c:484: player_x = (uint16_t)PX_TO_SUB(r->x + r->size_x + 1);
      000D17 F8 01            [12] 2705 	ldhl	sp,#1
      000D19 2A               [ 8] 2706 	ld	a, (hl+)
      000D1A 5F               [ 4] 2707 	ld	e, a
      000D1B 2A               [ 8] 2708 	ld	a, (hl+)
      000D1C 57               [ 4] 2709 	ld	d, a
      000D1D 1A               [ 8] 2710 	ld	a, (de)
      000D1E 4F               [ 4] 2711 	ld	c, a
      000D1F 06 00            [ 8] 2712 	ld	b, #0x00
      000D21 7E               [ 8] 2713 	ld	a, (hl)
      000D22 1E 00            [ 8] 2714 	ld	e, #0x00
      000D24 81               [ 4] 2715 	add	a, c
      000D25 4F               [ 4] 2716 	ld	c, a
      000D26 7B               [ 4] 2717 	ld	a, e
      000D27 88               [ 4] 2718 	adc	a, b
      000D28 47               [ 4] 2719 	ld	b, a
      000D29 03               [ 8] 2720 	inc	bc
      000D2A 41               [ 4] 2721 	ld	b, c
      000D2B 0E 00            [ 8] 2722 	ld	c, #0x00
      000D2D 21r0Dr00         [12] 2723 	ld	hl, #_player_x
      000D30 79               [ 4] 2724 	ld	a, c
      000D31 22               [ 8] 2725 	ld	(hl+), a
      000D32 70               [ 8] 2726 	ld	(hl), b
      000D33 C3r40r0F         [16] 2727 	jp	00131$
      000D36                       2728 00115$:
                                   2729 ;src/player.c:488: player_y = r->y + 1;
      000D36 F8 05            [12] 2730 	ldhl	sp,	#5
      000D38 7E               [ 8] 2731 	ld	a, (hl)
      000D39 3C               [ 4] 2732 	inc	a
      000D3A EAr0Fr00         [16] 2733 	ld	(#_player_y),a
                                   2734 ;src/player.c:489: y_speed = 0;
      000D3D 21r0Cr00         [12] 2735 	ld	hl, #_y_speed
      000D40 36 00            [12] 2736 	ld	(hl), #0x00
                                   2737 ;src/player.c:492: break;
      000D42 C3r40r0F         [16] 2738 	jp	00131$
                                   2739 ;src/player.c:494: case RIGHT_CENTER: // RIGHT - CENTER
      000D45                       2740 00117$:
                                   2741 ;src/player.c:495: player_x = (uint16_t)PX_TO_SUB(r->x + r->size_x + 1);
      000D45 F8 01            [12] 2742 	ldhl	sp,#1
      000D47 2A               [ 8] 2743 	ld	a, (hl+)
      000D48 5F               [ 4] 2744 	ld	e, a
      000D49 56               [ 8] 2745 	ld	d, (hl)
      000D4A 1A               [ 8] 2746 	ld	a, (de)
      000D4B 4F               [ 4] 2747 	ld	c, a
      000D4C 06 00            [ 8] 2748 	ld	b, #0x00
      000D4E F8 0A            [12] 2749 	ldhl	sp,#10
      000D50 2A               [ 8] 2750 	ld	a, (hl+)
      000D51 5F               [ 4] 2751 	ld	e, a
      000D52 56               [ 8] 2752 	ld	d, (hl)
      000D53 1A               [ 8] 2753 	ld	a, (de)
      000D54 26 00            [ 8] 2754 	ld	h, #0x00
                                   2755 ;	spillPairReg hl
                                   2756 ;	spillPairReg hl
      000D56 6F               [ 4] 2757 	ld	l, a
      000D57 09               [ 8] 2758 	add	hl, bc
      000D58 23               [ 8] 2759 	inc	hl
      000D59 4D               [ 4] 2760 	ld	c, l
      000D5A AF               [ 4] 2761 	xor	a, a
      000D5B 21r0Dr00         [12] 2762 	ld	hl, #_player_x
      000D5E 22               [ 8] 2763 	ld	(hl+), a
      000D5F 71               [ 8] 2764 	ld	(hl), c
                                   2765 ;src/player.c:497: break;
      000D60 C3r40r0F         [16] 2766 	jp	00131$
                                   2767 ;src/player.c:499: case LEFT_UP: // LEFT - UP
      000D63                       2768 00118$:
                                   2769 ;src/player.c:500: rx = r->x;
      000D63 F8 01            [12] 2770 	ldhl	sp,#1
      000D65 2A               [ 8] 2771 	ld	a, (hl+)
      000D66 5F               [ 4] 2772 	ld	e, a
      000D67 56               [ 8] 2773 	ld	d, (hl)
      000D68 1A               [ 8] 2774 	ld	a, (de)
      000D69 F8 0B            [12] 2775 	ldhl	sp,	#11
      000D6B 77               [ 8] 2776 	ld	(hl), a
                                   2777 ;src/player.c:501: ry = r->y - r->size_y;
      000D6C F8 0E            [12] 2778 	ldhl	sp,#14
      000D6E 2A               [ 8] 2779 	ld	a, (hl+)
      000D6F 5F               [ 4] 2780 	ld	e, a
      000D70 3A               [ 8] 2781 	ld	a, (hl-)
      000D71 2B               [ 8] 2782 	dec	hl
      000D72 2B               [ 8] 2783 	dec	hl
      000D73 57               [ 4] 2784 	ld	d, a
      000D74 1A               [ 8] 2785 	ld	a, (de)
      000D75 5E               [ 8] 2786 	ld	e, (hl)
      000D76 23               [ 8] 2787 	inc	hl
      000D77 56               [ 8] 2788 	ld	d, (hl)
      000D78 F5               [16] 2789 	push	af
      000D79 1A               [ 8] 2790 	ld	a, (de)
      000D7A 4F               [ 4] 2791 	ld	c, a
      000D7B F1               [12] 2792 	pop	af
      000D7C 91               [ 4] 2793 	sub	a, c
      000D7D F8 04            [12] 2794 	ldhl	sp,	#4
      000D7F 77               [ 8] 2795 	ld	(hl), a
      000D80 4E               [ 8] 2796 	ld	c, (hl)
                                   2797 ;src/player.c:502: if((ry-player_y)*((uint8_t)SUB_TO_PX(last_x) - (uint8_t)SUB_TO_PX(player_x)) > (last_y - player_y)*(rx-(uint8_t)SUB_TO_PX(player_x))){
      000D81 06 00            [ 8] 2798 	ld	b, #0x00
      000D83 FAr0Fr00         [16] 2799 	ld	a, (#_player_y)
      000D86 F8 05            [12] 2800 	ldhl	sp,	#5
      000D88 22               [ 8] 2801 	ld	(hl+), a
      000D89 AF               [ 4] 2802 	xor	a, a
      000D8A 32               [ 8] 2803 	ld	(hl-), a
      000D8B 2A               [ 8] 2804 	ld	a, (hl+)
      000D8C 5F               [ 4] 2805 	ld	e, a
      000D8D 56               [ 8] 2806 	ld	d, (hl)
      000D8E 79               [ 4] 2807 	ld	a, c
      000D8F 93               [ 4] 2808 	sub	a, e
      000D90 5F               [ 4] 2809 	ld	e, a
      000D91 78               [ 4] 2810 	ld	a, b
      000D92 9A               [ 4] 2811 	sbc	a, d
      000D93 F8 0F            [12] 2812 	ldhl	sp,	#15
      000D95 32               [ 8] 2813 	ld	(hl-), a
      000D96 73               [ 8] 2814 	ld	(hl), e
      000D97 FAr11r00         [16] 2815 	ld	a, (#_last_x + 1)
      000D9A 06 00            [ 8] 2816 	ld	b, #0x00
      000D9C 21r0Er00         [12] 2817 	ld	hl, #_player_x + 1
      000D9F 4E               [ 8] 2818 	ld	c, (hl)
      000DA0 F8 07            [12] 2819 	ldhl	sp,	#7
      000DA2 71               [ 8] 2820 	ld	(hl), c
      000DA3 23               [ 8] 2821 	inc	hl
      000DA4 36 00            [12] 2822 	ld	(hl), #0x00
      000DA6 5F               [ 4] 2823 	ld	e, a
      000DA7 50               [ 4] 2824 	ld	d, b
      000DA8 3A               [ 8] 2825 	ld	a, (hl-)
      000DA9 6E               [ 8] 2826 	ld	l, (hl)
      000DAA 67               [ 4] 2827 	ld	h, a
      000DAB 7B               [ 4] 2828 	ld	a, e
      000DAC 95               [ 4] 2829 	sub	a, l
      000DAD 5F               [ 4] 2830 	ld	e, a
      000DAE 7A               [ 4] 2831 	ld	a, d
      000DAF 9C               [ 4] 2832 	sbc	a, h
      000DB0 47               [ 4] 2833 	ld	b, a
      000DB1 4B               [ 4] 2834 	ld	c, e
      000DB2 F8 0E            [12] 2835 	ldhl	sp,	#14
      000DB4 2A               [ 8] 2836 	ld	a, (hl+)
      000DB5 5F               [ 4] 2837 	ld	e, a
      000DB6 56               [ 8] 2838 	ld	d, (hl)
      000DB7 CDr00r00         [24] 2839 	call	__mulint
      000DBA F8 09            [12] 2840 	ldhl	sp,	#9
      000DBC 79               [ 4] 2841 	ld	a, c
      000DBD 22               [ 8] 2842 	ld	(hl+), a
      000DBE 70               [ 8] 2843 	ld	(hl), b
      000DBF FAr12r00         [16] 2844 	ld	a, (#_last_y)
      000DC2 F8 0C            [12] 2845 	ldhl	sp,	#12
      000DC4 22               [ 8] 2846 	ld	(hl+), a
      000DC5 AF               [ 4] 2847 	xor	a, a
      000DC6 32               [ 8] 2848 	ld	(hl-), a
      000DC7 2A               [ 8] 2849 	ld	a, (hl+)
      000DC8 5F               [ 4] 2850 	ld	e, a
      000DC9 56               [ 8] 2851 	ld	d, (hl)
      000DCA F8 05            [12] 2852 	ldhl	sp,	#5
      000DCC 2A               [ 8] 2853 	ld	a,	(hl+)
      000DCD 66               [ 8] 2854 	ld	h, (hl)
      000DCE 6F               [ 4] 2855 	ld	l, a
      000DCF 7B               [ 4] 2856 	ld	a, e
      000DD0 95               [ 4] 2857 	sub	a, l
      000DD1 5F               [ 4] 2858 	ld	e, a
      000DD2 7A               [ 4] 2859 	ld	a, d
      000DD3 9C               [ 4] 2860 	sbc	a, h
      000DD4 F8 0F            [12] 2861 	ldhl	sp,	#15
      000DD6 32               [ 8] 2862 	ld	(hl-), a
      000DD7 73               [ 8] 2863 	ld	(hl), e
      000DD8 F8 0B            [12] 2864 	ldhl	sp,	#11
      000DDA 4E               [ 8] 2865 	ld	c, (hl)
      000DDB 06 00            [ 8] 2866 	ld	b, #0x00
      000DDD F8 07            [12] 2867 	ldhl	sp,#7
      000DDF 2A               [ 8] 2868 	ld	a, (hl+)
      000DE0 5F               [ 4] 2869 	ld	e, a
      000DE1 56               [ 8] 2870 	ld	d, (hl)
      000DE2 79               [ 4] 2871 	ld	a, c
      000DE3 93               [ 4] 2872 	sub	a, e
      000DE4 5F               [ 4] 2873 	ld	e, a
      000DE5 78               [ 4] 2874 	ld	a, b
      000DE6 9A               [ 4] 2875 	sbc	a, d
      000DE7 47               [ 4] 2876 	ld	b, a
      000DE8 4B               [ 4] 2877 	ld	c, e
      000DE9 F8 0E            [12] 2878 	ldhl	sp,	#14
      000DEB 2A               [ 8] 2879 	ld	a, (hl+)
      000DEC 5F               [ 4] 2880 	ld	e, a
      000DED 56               [ 8] 2881 	ld	d, (hl)
      000DEE CDr00r00         [24] 2882 	call	__mulint
      000DF1 F8 09            [12] 2883 	ldhl	sp,	#9
      000DF3 79               [ 4] 2884 	ld	a, c
      000DF4 96               [ 8] 2885 	sub	a, (hl)
      000DF5 23               [ 8] 2886 	inc	hl
      000DF6 78               [ 4] 2887 	ld	a, b
      000DF7 9E               [ 8] 2888 	sbc	a, (hl)
      000DF8 78               [ 4] 2889 	ld	a, b
      000DF9 57               [ 4] 2890 	ld	d, a
      000DFA 5E               [ 8] 2891 	ld	e, (hl)
      000DFB CB 7B            [ 8] 2892 	bit	7, e
      000DFD 28 07            [12] 2893 	jr	Z, 00321$
      000DFF CB 7A            [ 8] 2894 	bit	7, d
      000E01 20 08            [12] 2895 	jr	NZ, 00322$
      000E03 BF               [ 4] 2896 	cp	a, a
      000E04 18 05            [12] 2897 	jr	00322$
      000E06                       2898 00321$:
      000E06 CB 7A            [ 8] 2899 	bit	7, d
      000E08 28 01            [12] 2900 	jr	Z, 00322$
      000E0A 37               [ 4] 2901 	scf
      000E0B                       2902 00322$:
      000E0B 30 16            [12] 2903 	jr	NC, 00120$
                                   2904 ;src/player.c:504: player_x = (uint16_t)PX_TO_SUB(r->x - 1);
      000E0D F8 01            [12] 2905 	ldhl	sp,#1
      000E0F 2A               [ 8] 2906 	ld	a, (hl+)
      000E10 5F               [ 4] 2907 	ld	e, a
      000E11 56               [ 8] 2908 	ld	d, (hl)
      000E12 1A               [ 8] 2909 	ld	a, (de)
      000E13 06 00            [ 8] 2910 	ld	b, #0x00
      000E15 4F               [ 4] 2911 	ld	c, a
      000E16 0B               [ 8] 2912 	dec	bc
      000E17 41               [ 4] 2913 	ld	b, c
      000E18 0E 00            [ 8] 2914 	ld	c, #0x00
      000E1A 21r0Dr00         [12] 2915 	ld	hl, #_player_x
      000E1D 79               [ 4] 2916 	ld	a, c
      000E1E 22               [ 8] 2917 	ld	(hl+), a
      000E1F 70               [ 8] 2918 	ld	(hl), b
      000E20 C3r40r0F         [16] 2919 	jp	00131$
      000E23                       2920 00120$:
                                   2921 ;src/player.c:508: player_y = r->y - r->size_y - 1;
      000E23 F8 04            [12] 2922 	ldhl	sp,	#4
      000E25 7E               [ 8] 2923 	ld	a, (hl)
      000E26 3D               [ 4] 2924 	dec	a
      000E27 EAr0Fr00         [16] 2925 	ld	(#_player_y),a
                                   2926 ;src/player.c:509: is_grounded = true;
      000E2A 21r0Ar00         [12] 2927 	ld	hl, #_is_grounded
      000E2D 36 01            [12] 2928 	ld	(hl), #0x01
                                   2929 ;src/player.c:510: current_coyote_frames = 0;
      000E2F 21r14r00         [12] 2930 	ld	hl, #_current_coyote_frames
      000E32 36 00            [12] 2931 	ld	(hl), #0x00
                                   2932 ;src/player.c:511: y_speed = 0;
      000E34 21r0Cr00         [12] 2933 	ld	hl, #_y_speed
      000E37 36 00            [12] 2934 	ld	(hl), #0x00
                                   2935 ;src/player.c:513: break;
      000E39 C3r40r0F         [16] 2936 	jp	00131$
                                   2937 ;src/player.c:515: case LEFT_DOWN: // LEFT - DOWN
      000E3C                       2938 00122$:
                                   2939 ;src/player.c:516: rx = r->x;
      000E3C F8 01            [12] 2940 	ldhl	sp,#1
      000E3E 2A               [ 8] 2941 	ld	a, (hl+)
      000E3F 5F               [ 4] 2942 	ld	e, a
      000E40 56               [ 8] 2943 	ld	d, (hl)
      000E41 1A               [ 8] 2944 	ld	a, (de)
      000E42 F8 0D            [12] 2945 	ldhl	sp,	#13
                                   2946 ;src/player.c:517: ry = r->y;
      000E44 22               [ 8] 2947 	ld	(hl+), a
      000E45 2A               [ 8] 2948 	ld	a, (hl+)
      000E46 5F               [ 4] 2949 	ld	e, a
      000E47 56               [ 8] 2950 	ld	d, (hl)
      000E48 1A               [ 8] 2951 	ld	a, (de)
      000E49 77               [ 8] 2952 	ld	(hl), a
      000E4A 4E               [ 8] 2953 	ld	c, (hl)
                                   2954 ;src/player.c:518: if((ry-player_y)*((uint8_t)SUB_TO_PX(last_x) - (uint8_t)SUB_TO_PX(player_x)) < (last_y - player_y)*(rx-(uint8_t)SUB_TO_PX(player_x))){
      000E4B 06 00            [ 8] 2955 	ld	b, #0x00
      000E4D FAr0Fr00         [16] 2956 	ld	a, (#_player_y)
      000E50 F8 03            [12] 2957 	ldhl	sp,	#3
      000E52 22               [ 8] 2958 	ld	(hl+), a
      000E53 AF               [ 4] 2959 	xor	a, a
      000E54 32               [ 8] 2960 	ld	(hl-), a
      000E55 2A               [ 8] 2961 	ld	a, (hl+)
      000E56 5F               [ 4] 2962 	ld	e, a
      000E57 56               [ 8] 2963 	ld	d, (hl)
      000E58 79               [ 4] 2964 	ld	a, c
      000E59 93               [ 4] 2965 	sub	a, e
      000E5A 5F               [ 4] 2966 	ld	e, a
      000E5B 78               [ 4] 2967 	ld	a, b
      000E5C 9A               [ 4] 2968 	sbc	a, d
      000E5D F8 0C            [12] 2969 	ldhl	sp,	#12
      000E5F 32               [ 8] 2970 	ld	(hl-), a
      000E60 73               [ 8] 2971 	ld	(hl), e
      000E61 FAr11r00         [16] 2972 	ld	a, (#_last_x + 1)
      000E64 06 00            [ 8] 2973 	ld	b, #0x00
      000E66 21r0Er00         [12] 2974 	ld	hl, #_player_x + 1
      000E69 4E               [ 8] 2975 	ld	c, (hl)
      000E6A F8 05            [12] 2976 	ldhl	sp,	#5
      000E6C 71               [ 8] 2977 	ld	(hl), c
      000E6D 23               [ 8] 2978 	inc	hl
      000E6E 36 00            [12] 2979 	ld	(hl), #0x00
      000E70 5F               [ 4] 2980 	ld	e, a
      000E71 50               [ 4] 2981 	ld	d, b
      000E72 3A               [ 8] 2982 	ld	a, (hl-)
      000E73 6E               [ 8] 2983 	ld	l, (hl)
      000E74 67               [ 4] 2984 	ld	h, a
      000E75 7B               [ 4] 2985 	ld	a, e
      000E76 95               [ 4] 2986 	sub	a, l
      000E77 5F               [ 4] 2987 	ld	e, a
      000E78 7A               [ 4] 2988 	ld	a, d
      000E79 9C               [ 4] 2989 	sbc	a, h
      000E7A 47               [ 4] 2990 	ld	b, a
      000E7B 4B               [ 4] 2991 	ld	c, e
      000E7C F8 0B            [12] 2992 	ldhl	sp,	#11
      000E7E 2A               [ 8] 2993 	ld	a, (hl+)
      000E7F 5F               [ 4] 2994 	ld	e, a
      000E80 56               [ 8] 2995 	ld	d, (hl)
      000E81 CDr00r00         [24] 2996 	call	__mulint
      000E84 F8 07            [12] 2997 	ldhl	sp,	#7
      000E86 79               [ 4] 2998 	ld	a, c
      000E87 22               [ 8] 2999 	ld	(hl+), a
      000E88 70               [ 8] 3000 	ld	(hl), b
      000E89 FAr12r00         [16] 3001 	ld	a, (#_last_y)
      000E8C F8 09            [12] 3002 	ldhl	sp,	#9
      000E8E 22               [ 8] 3003 	ld	(hl+), a
      000E8F AF               [ 4] 3004 	xor	a, a
      000E90 32               [ 8] 3005 	ld	(hl-), a
      000E91 2A               [ 8] 3006 	ld	a, (hl+)
      000E92 5F               [ 4] 3007 	ld	e, a
      000E93 56               [ 8] 3008 	ld	d, (hl)
      000E94 F8 03            [12] 3009 	ldhl	sp,	#3
      000E96 2A               [ 8] 3010 	ld	a,	(hl+)
      000E97 66               [ 8] 3011 	ld	h, (hl)
      000E98 6F               [ 4] 3012 	ld	l, a
      000E99 7B               [ 4] 3013 	ld	a, e
      000E9A 95               [ 4] 3014 	sub	a, l
      000E9B 5F               [ 4] 3015 	ld	e, a
      000E9C 7A               [ 4] 3016 	ld	a, d
      000E9D 9C               [ 4] 3017 	sbc	a, h
      000E9E F8 0C            [12] 3018 	ldhl	sp,	#12
      000EA0 32               [ 8] 3019 	ld	(hl-), a
      000EA1 7B               [ 4] 3020 	ld	a, e
      000EA2 22               [ 8] 3021 	ld	(hl+), a
      000EA3 23               [ 8] 3022 	inc	hl
      000EA4 4E               [ 8] 3023 	ld	c, (hl)
      000EA5 06 00            [ 8] 3024 	ld	b, #0x00
      000EA7 F8 05            [12] 3025 	ldhl	sp,#5
      000EA9 2A               [ 8] 3026 	ld	a, (hl+)
      000EAA 5F               [ 4] 3027 	ld	e, a
      000EAB 56               [ 8] 3028 	ld	d, (hl)
      000EAC 79               [ 4] 3029 	ld	a, c
      000EAD 93               [ 4] 3030 	sub	a, e
      000EAE 5F               [ 4] 3031 	ld	e, a
      000EAF 78               [ 4] 3032 	ld	a, b
      000EB0 9A               [ 4] 3033 	sbc	a, d
      000EB1 47               [ 4] 3034 	ld	b, a
      000EB2 4B               [ 4] 3035 	ld	c, e
      000EB3 F8 0B            [12] 3036 	ldhl	sp,	#11
      000EB5 2A               [ 8] 3037 	ld	a, (hl+)
      000EB6 5F               [ 4] 3038 	ld	e, a
      000EB7 56               [ 8] 3039 	ld	d, (hl)
      000EB8 CDr00r00         [24] 3040 	call	__mulint
      000EBB F8 07            [12] 3041 	ldhl	sp,	#7
      000EBD 2A               [ 8] 3042 	ld	a, (hl+)
      000EBE 91               [ 4] 3043 	sub	a, c
      000EBF 7E               [ 8] 3044 	ld	a, (hl)
      000EC0 98               [ 4] 3045 	sbc	a, b
      000EC1 56               [ 8] 3046 	ld	d, (hl)
      000EC2 78               [ 4] 3047 	ld	a, b
      000EC3 5F               [ 4] 3048 	ld	e, a
      000EC4 CB 7B            [ 8] 3049 	bit	7, e
      000EC6 28 07            [12] 3050 	jr	Z, 00323$
      000EC8 CB 7A            [ 8] 3051 	bit	7, d
      000ECA 20 08            [12] 3052 	jr	NZ, 00324$
      000ECC BF               [ 4] 3053 	cp	a, a
      000ECD 18 05            [12] 3054 	jr	00324$
      000ECF                       3055 00323$:
      000ECF CB 7A            [ 8] 3056 	bit	7, d
      000ED1 28 01            [12] 3057 	jr	Z, 00324$
      000ED3 37               [ 4] 3058 	scf
      000ED4                       3059 00324$:
      000ED4 30 15            [12] 3060 	jr	NC, 00124$
                                   3061 ;src/player.c:520: player_x = (uint16_t)PX_TO_SUB(r->x - 1);
      000ED6 F8 01            [12] 3062 	ldhl	sp,#1
      000ED8 2A               [ 8] 3063 	ld	a, (hl+)
      000ED9 5F               [ 4] 3064 	ld	e, a
      000EDA 56               [ 8] 3065 	ld	d, (hl)
      000EDB 1A               [ 8] 3066 	ld	a, (de)
      000EDC 06 00            [ 8] 3067 	ld	b, #0x00
      000EDE 4F               [ 4] 3068 	ld	c, a
      000EDF 0B               [ 8] 3069 	dec	bc
      000EE0 41               [ 4] 3070 	ld	b, c
      000EE1 0E 00            [ 8] 3071 	ld	c, #0x00
      000EE3 21r0Dr00         [12] 3072 	ld	hl, #_player_x
      000EE6 79               [ 4] 3073 	ld	a, c
      000EE7 22               [ 8] 3074 	ld	(hl+), a
      000EE8 70               [ 8] 3075 	ld	(hl), b
      000EE9 18 55            [12] 3076 	jr	00131$
      000EEB                       3077 00124$:
                                   3078 ;src/player.c:524: player_y = r->y + 1;
      000EEB F8 0F            [12] 3079 	ldhl	sp,	#15
      000EED 7E               [ 8] 3080 	ld	a, (hl)
      000EEE 3C               [ 4] 3081 	inc	a
      000EEF EAr0Fr00         [16] 3082 	ld	(#_player_y),a
                                   3083 ;src/player.c:525: y_speed = 0;
      000EF2 21r0Cr00         [12] 3084 	ld	hl, #_y_speed
      000EF5 36 00            [12] 3085 	ld	(hl), #0x00
                                   3086 ;src/player.c:528: break;
      000EF7 18 47            [12] 3087 	jr	00131$
                                   3088 ;src/player.c:530: case LEFT_CENTER: // LEFT - CENTER
      000EF9                       3089 00126$:
                                   3090 ;src/player.c:531: player_x = (uint16_t)PX_TO_SUB(r->x - 1);
      000EF9 F8 01            [12] 3091 	ldhl	sp,#1
      000EFB 2A               [ 8] 3092 	ld	a, (hl+)
      000EFC 5F               [ 4] 3093 	ld	e, a
      000EFD 56               [ 8] 3094 	ld	d, (hl)
      000EFE 1A               [ 8] 3095 	ld	a, (de)
      000EFF 06 00            [ 8] 3096 	ld	b, #0x00
      000F01 4F               [ 4] 3097 	ld	c, a
      000F02 0B               [ 8] 3098 	dec	bc
      000F03 AF               [ 4] 3099 	xor	a, a
      000F04 21r0Dr00         [12] 3100 	ld	hl, #_player_x
      000F07 22               [ 8] 3101 	ld	(hl+), a
      000F08 71               [ 8] 3102 	ld	(hl), c
                                   3103 ;src/player.c:533: break;
      000F09 18 35            [12] 3104 	jr	00131$
                                   3105 ;src/player.c:535: case CENTER_UP: // CENTER - UP
      000F0B                       3106 00127$:
                                   3107 ;src/player.c:536: player_y = r->y - r->size_y - 1;
      000F0B F8 0E            [12] 3108 	ldhl	sp,#14
      000F0D 2A               [ 8] 3109 	ld	a, (hl+)
      000F0E 5F               [ 4] 3110 	ld	e, a
      000F0F 3A               [ 8] 3111 	ld	a, (hl-)
      000F10 2B               [ 8] 3112 	dec	hl
      000F11 2B               [ 8] 3113 	dec	hl
      000F12 57               [ 4] 3114 	ld	d, a
      000F13 1A               [ 8] 3115 	ld	a, (de)
      000F14 5E               [ 8] 3116 	ld	e, (hl)
      000F15 23               [ 8] 3117 	inc	hl
      000F16 56               [ 8] 3118 	ld	d, (hl)
      000F17 F5               [16] 3119 	push	af
      000F18 1A               [ 8] 3120 	ld	a, (de)
      000F19 4F               [ 4] 3121 	ld	c, a
      000F1A F1               [12] 3122 	pop	af
      000F1B 91               [ 4] 3123 	sub	a, c
      000F1C 3D               [ 4] 3124 	dec	a
      000F1D EAr0Fr00         [16] 3125 	ld	(#_player_y),a
                                   3126 ;src/player.c:537: is_grounded = true;
      000F20 21r0Ar00         [12] 3127 	ld	hl, #_is_grounded
      000F23 36 01            [12] 3128 	ld	(hl), #0x01
                                   3129 ;src/player.c:538: current_coyote_frames = 0;
      000F25 21r14r00         [12] 3130 	ld	hl, #_current_coyote_frames
      000F28 36 00            [12] 3131 	ld	(hl), #0x00
                                   3132 ;src/player.c:539: y_speed = 0;
      000F2A 21r0Cr00         [12] 3133 	ld	hl, #_y_speed
      000F2D 36 00            [12] 3134 	ld	(hl), #0x00
                                   3135 ;src/player.c:540: break;
      000F2F 18 0F            [12] 3136 	jr	00131$
                                   3137 ;src/player.c:542: case CENTER_DOWN: // CENTER - DOWN
      000F31                       3138 00128$:
                                   3139 ;src/player.c:543: player_y = r->y + 1;
      000F31 F8 0E            [12] 3140 	ldhl	sp,#14
      000F33 2A               [ 8] 3141 	ld	a, (hl+)
      000F34 5F               [ 4] 3142 	ld	e, a
      000F35 56               [ 8] 3143 	ld	d, (hl)
      000F36 1A               [ 8] 3144 	ld	a, (de)
      000F37 3C               [ 4] 3145 	inc	a
      000F38 EAr0Fr00         [16] 3146 	ld	(#_player_y),a
                                   3147 ;src/player.c:544: y_speed = 0;
      000F3B 21r0Cr00         [12] 3148 	ld	hl, #_y_speed
      000F3E 36 00            [12] 3149 	ld	(hl), #0x00
                                   3150 ;src/player.c:550: }
      000F40                       3151 00131$:
                                   3152 ;src/player.c:439: for(i=0; i<8; i++){
      000F40 21r04r00         [12] 3153 	ld	hl, #_i
      000F43 34               [12] 3154 	inc	(hl)
      000F44 7E               [ 8] 3155 	ld	a, (hl)
      000F45 D6 08            [ 8] 3156 	sub	a, #0x08
      000F47 DAr75r09         [16] 3157 	jp	C, 00133$
                                   3158 ;src/player.c:552: }
      000F4A E8 10            [16] 3159 	add	sp, #16
      000F4C C9               [16] 3160 	ret
                                   3161 ;src/player.c:554: static void update_score(void){
                                   3162 ;	---------------------------------
                                   3163 ; Function update_score
                                   3164 ; ---------------------------------
      000F4D                       3165 _update_score:
      000F4D 3B               [ 8] 3166 	dec	sp
      000F4E 3B               [ 8] 3167 	dec	sp
                                   3168 ;src/player.c:556: if((PREV_PLAYER_FLOOR != PLAYER_FLOOR) && PLAYER_FLOOR == ((highest_visited_floor - 1) & 0x03)){
      000F4F FAr12r00         [16] 3169 	ld	a, (#_last_y)
      000F52 07               [ 4] 3170 	rlca
      000F53 07               [ 4] 3171 	rlca
      000F54 E6 03            [ 8] 3172 	and	a, #0x03
      000F56 F8 00            [12] 3173 	ldhl	sp,	#0
      000F58 77               [ 8] 3174 	ld	(hl), a
      000F59 21r0Fr00         [12] 3175 	ld	hl, #_player_y
      000F5C 7E               [ 8] 3176 	ld	a, (hl)
      000F5D 07               [ 4] 3177 	rlca
      000F5E 07               [ 4] 3178 	rlca
      000F5F E6 03            [ 8] 3179 	and	a, #0x03
      000F61 5F               [ 4] 3180 	ld	e, a
                                   3181 ;src/player.c:559: max_player_y = (uint8_t)((PREV_PLAYER_FLOOR << 6) - player_y);
      000F62 7E               [ 8] 3182 	ld	a, (hl)
      000F63 F8 01            [12] 3183 	ldhl	sp,	#1
                                   3184 ;src/player.c:556: if((PREV_PLAYER_FLOOR != PLAYER_FLOOR) && PLAYER_FLOOR == ((highest_visited_floor - 1) & 0x03)){
      000F65 32               [ 8] 3185 	ld	(hl-), a
      000F66 7E               [ 8] 3186 	ld	a, (hl)
      000F67 93               [ 4] 3187 	sub	a, e
      000F68 28 36            [12] 3188 	jr	Z, 00102$
      000F6A 21r19r00         [12] 3189 	ld	hl, #_highest_visited_floor
      000F6D 4E               [ 8] 3190 	ld	c, (hl)
      000F6E 06 00            [ 8] 3191 	ld	b, #0x00
      000F70 0B               [ 8] 3192 	dec	bc
      000F71 79               [ 4] 3193 	ld	a, c
      000F72 E6 03            [ 8] 3194 	and	a, #0x03
      000F74 4F               [ 4] 3195 	ld	c, a
      000F75 06 00            [ 8] 3196 	ld	b, #0x00
                                   3197 ;	spillPairReg hl
                                   3198 ;	spillPairReg hl
      000F77 7B               [ 4] 3199 	ld	a, e
      000F78 16 00            [ 8] 3200 	ld	d, #0x00
      000F7A 91               [ 4] 3201 	sub	a, c
      000F7B 20 23            [12] 3202 	jr	NZ, 00102$
      000F7D 7A               [ 4] 3203 	ld	a, d
      000F7E 90               [ 4] 3204 	sub	a, b
      000F7F 20 1F            [12] 3205 	jr	NZ, 00102$
                                   3206 ;src/player.c:557: score += 4;
      000F81 21r15r00         [12] 3207 	ld	hl, #_score
      000F84 2A               [ 8] 3208 	ld	a, (hl+)
      000F85 4F               [ 4] 3209 	ld	c, a
      000F86 3A               [ 8] 3210 	ld	a, (hl-)
      000F87 47               [ 4] 3211 	ld	b, a
      000F88 03               [ 8] 3212 	inc	bc
      000F89 03               [ 8] 3213 	inc	bc
      000F8A 03               [ 8] 3214 	inc	bc
      000F8B 03               [ 8] 3215 	inc	bc
      000F8C 79               [ 4] 3216 	ld	a, c
      000F8D 22               [ 8] 3217 	ld	(hl+), a
      000F8E 70               [ 8] 3218 	ld	(hl), b
                                   3219 ;src/player.c:558: highest_visited_floor = PLAYER_FLOOR;
      000F8F 21r19r00         [12] 3220 	ld	hl, #_highest_visited_floor
      000F92 73               [ 8] 3221 	ld	(hl), e
                                   3222 ;src/player.c:559: max_player_y = (uint8_t)((PREV_PLAYER_FLOOR << 6) - player_y);
      000F93 F8 00            [12] 3223 	ldhl	sp,	#0
      000F95 2A               [ 8] 3224 	ld	a, (hl+)
      000F96 0F               [ 4] 3225 	rrca
      000F97 0F               [ 4] 3226 	rrca
      000F98 E6 C0            [ 8] 3227 	and	a, #0xc0
      000F9A 96               [ 8] 3228 	sub	a, (hl)
      000F9B EAr17r00         [16] 3229 	ld	(#_max_player_y),a
                                   3230 ;src/player.c:560: return;
      000F9E 18 21            [12] 3231 	jr	00108$
      000FA0                       3232 00102$:
                                   3233 ;src/player.c:563: if(PLAYER_FLOOR != highest_visited_floor) return;
      000FA0 FAr19r00         [16] 3234 	ld	a, (#_highest_visited_floor)
      000FA3 93               [ 4] 3235 	sub	a, e
      000FA4 20 1B            [12] 3236 	jr	NZ, 00108$
                                   3237 ;src/player.c:565: test_max_player_y = (uint8_t)((((PLAYER_FLOOR + 1) & 0x03) << 6) - player_y);
      000FA6 7B               [ 4] 3238 	ld	a, e
      000FA7 3C               [ 4] 3239 	inc	a
      000FA8 E6 03            [ 8] 3240 	and	a, #0x03
      000FAA 0F               [ 4] 3241 	rrca
      000FAB 0F               [ 4] 3242 	rrca
      000FAC E6 C0            [ 8] 3243 	and	a, #0xc0
      000FAE F8 01            [12] 3244 	ldhl	sp,	#1
      000FB0 96               [ 8] 3245 	sub	a, (hl)
      000FB1 EAr18r00         [16] 3246 	ld	(#_test_max_player_y),a
                                   3247 ;src/player.c:566: if(max_player_y < test_max_player_y){
      000FB4 FAr17r00         [16] 3248 	ld	a, (#_max_player_y)
      000FB7 21r18r00         [12] 3249 	ld	hl, #_test_max_player_y
      000FBA 96               [ 8] 3250 	sub	a, (hl)
      000FBB 30 04            [12] 3251 	jr	NC, 00108$
                                   3252 ;src/player.c:567: max_player_y = test_max_player_y;
      000FBD 7E               [ 8] 3253 	ld	a, (hl)
      000FBE EAr17r00         [16] 3254 	ld	(#_max_player_y),a
      000FC1                       3255 00108$:
                                   3256 ;src/player.c:569: }
      000FC1 33               [ 8] 3257 	inc	sp
      000FC2 33               [ 8] 3258 	inc	sp
      000FC3 C9               [16] 3259 	ret
                                   3260 ;src/player.c:571: static void calculate_final_score(void){
                                   3261 ;	---------------------------------
                                   3262 ; Function calculate_final_score
                                   3263 ; ---------------------------------
      000FC4                       3264 _calculate_final_score:
                                   3265 ;src/player.c:572: score += (max_player_y >> 4);
      000FC4 FAr17r00         [16] 3266 	ld	a, (#_max_player_y)
      000FC7 CB 37            [ 8] 3267 	swap	a
      000FC9 E6 0F            [ 8] 3268 	and	a, #0x0f
      000FCB 21r15r00         [12] 3269 	ld	hl, #_score
      000FCE 4E               [ 8] 3270 	ld	c, (hl)
      000FCF 23               [ 8] 3271 	inc	hl
      000FD0 46               [ 8] 3272 	ld	b, (hl)
      000FD1 2B               [ 8] 3273 	dec	hl
      000FD2 1E 00            [ 8] 3274 	ld	e, #0x00
      000FD4 81               [ 4] 3275 	add	a, c
      000FD5 4F               [ 4] 3276 	ld	c, a
      000FD6 7B               [ 4] 3277 	ld	a, e
      000FD7 88               [ 4] 3278 	adc	a, b
      000FD8 71               [ 8] 3279 	ld	(hl), c
      000FD9 23               [ 8] 3280 	inc	hl
      000FDA 77               [ 8] 3281 	ld	(hl), a
                                   3282 ;src/player.c:573: }
      000FDB C9               [16] 3283 	ret
                                   3284 ;src/player.c:575: static inline bool point_vs_rect(rect *r){
                                   3285 ;	---------------------------------
                                   3286 ; Function point_vs_rect
                                   3287 ; ---------------------------------
      000FDC                       3288 _point_vs_rect:
      000FDC E8 F9            [16] 3289 	add	sp, #-7
      000FDE 4B               [ 4] 3290 	ld	c, e
      000FDF 42               [ 4] 3291 	ld	b, d
                                   3292 ;src/player.c:576: return ((uint8_t)SUB_TO_PX(player_x) >= r->x && player_y <= r->y && (uint8_t)SUB_TO_PX(player_x) <= (r->x + r->size_x) && player_y >= (r->y - r->size_y));
      000FE0 FAr0Er00         [16] 3293 	ld	a, (#_player_x + 1)
      000FE3 F8 06            [12] 3294 	ldhl	sp,	#6
      000FE5 77               [ 8] 3295 	ld	(hl), a
      000FE6 0A               [ 8] 3296 	ld	a, (bc)
      000FE7 5F               [ 4] 3297 	ld	e, a
      000FE8 7E               [ 8] 3298 	ld	a, (hl)
      000FE9 93               [ 4] 3299 	sub	a, e
      000FEA DAr6Br10         [16] 3300 	jp	C, 00103$
      000FED 69               [ 4] 3301 	ld	l, c
                                   3302 ;	spillPairReg hl
                                   3303 ;	spillPairReg hl
      000FEE 60               [ 4] 3304 	ld	h, b
                                   3305 ;	spillPairReg hl
                                   3306 ;	spillPairReg hl
      000FEF 23               [ 8] 3307 	inc	hl
      000FF0 7E               [ 8] 3308 	ld	a, (hl)
      000FF1 F8 02            [12] 3309 	ldhl	sp,#2
      000FF3 77               [ 8] 3310 	ld	(hl), a
      000FF4 21r0Fr00         [12] 3311 	ld	hl, #_player_y
      000FF7 96               [ 8] 3312 	sub	a, (hl)
      000FF8 38 71            [12] 3313 	jr	C, 00103$
      000FFA F8 00            [12] 3314 	ldhl	sp,	#0
      000FFC 7B               [ 4] 3315 	ld	a, e
      000FFD 22               [ 8] 3316 	ld	(hl+), a
      000FFE 36 00            [12] 3317 	ld	(hl), #0x00
      001000 69               [ 4] 3318 	ld	l, c
                                   3319 ;	spillPairReg hl
                                   3320 ;	spillPairReg hl
      001001 60               [ 4] 3321 	ld	h, b
                                   3322 ;	spillPairReg hl
                                   3323 ;	spillPairReg hl
      001002 23               [ 8] 3324 	inc	hl
      001003 23               [ 8] 3325 	inc	hl
      001004 5E               [ 8] 3326 	ld	e, (hl)
      001005 16 00            [ 8] 3327 	ld	d, #0x00
      001007 E1               [12] 3328 	pop	hl
      001008 E5               [16] 3329 	push	hl
      001009 19               [ 8] 3330 	add	hl, de
      00100A E5               [16] 3331 	push	hl
      00100B 7D               [ 4] 3332 	ld	a, l
      00100C F8 05            [12] 3333 	ldhl	sp,	#5
      00100E 77               [ 8] 3334 	ld	(hl), a
      00100F E1               [12] 3335 	pop	hl
      001010 7C               [ 4] 3336 	ld	a, h
      001011 F8 04            [12] 3337 	ldhl	sp,	#4
      001013 22               [ 8] 3338 	ld	(hl+), a
      001014 23               [ 8] 3339 	inc	hl
      001015 3A               [ 8] 3340 	ld	a, (hl-)
      001016 22               [ 8] 3341 	ld	(hl+), a
      001017 36 00            [12] 3342 	ld	(hl), #0x00
      001019 F8 03            [12] 3343 	ldhl	sp,	#3
      00101B 5D               [ 4] 3344 	ld	e, l
      00101C 54               [ 4] 3345 	ld	d, h
      00101D F8 05            [12] 3346 	ldhl	sp,	#5
      00101F 1A               [ 8] 3347 	ld	a, (de)
      001020 13               [ 8] 3348 	inc	de
      001021 96               [ 8] 3349 	sub	a, (hl)
      001022 23               [ 8] 3350 	inc	hl
      001023 1A               [ 8] 3351 	ld	a, (de)
      001024 9E               [ 8] 3352 	sbc	a, (hl)
      001025 1A               [ 8] 3353 	ld	a, (de)
      001026 57               [ 4] 3354 	ld	d, a
      001027 CB 7E            [12] 3355 	bit	7, (hl)
      001029 28 07            [12] 3356 	jr	Z, 00131$
      00102B CB 7A            [ 8] 3357 	bit	7, d
      00102D 20 08            [12] 3358 	jr	NZ, 00132$
      00102F BF               [ 4] 3359 	cp	a, a
      001030 18 05            [12] 3360 	jr	00132$
      001032                       3361 00131$:
      001032 CB 7A            [ 8] 3362 	bit	7, d
      001034 28 01            [12] 3363 	jr	Z, 00132$
      001036 37               [ 4] 3364 	scf
      001037                       3365 00132$:
      001037 38 32            [12] 3366 	jr	C, 00103$
      001039 F8 02            [12] 3367 	ldhl	sp,	#2
      00103B 5E               [ 8] 3368 	ld	e, (hl)
      00103C 16 00            [ 8] 3369 	ld	d, #0x00
      00103E 03               [ 8] 3370 	inc	bc
      00103F 03               [ 8] 3371 	inc	bc
      001040 03               [ 8] 3372 	inc	bc
      001041 0A               [ 8] 3373 	ld	a, (bc)
      001042 4F               [ 4] 3374 	ld	c, a
      001043 06 00            [ 8] 3375 	ld	b, #0x00
      001045 7B               [ 4] 3376 	ld	a, e
      001046 91               [ 4] 3377 	sub	a, c
      001047 4F               [ 4] 3378 	ld	c, a
      001048 7A               [ 4] 3379 	ld	a, d
      001049 98               [ 4] 3380 	sbc	a, b
      00104A 47               [ 4] 3381 	ld	b, a
      00104B FAr0Fr00         [16] 3382 	ld	a, (#_player_y)
      00104E F8 05            [12] 3383 	ldhl	sp,	#5
      001050 22               [ 8] 3384 	ld	(hl+), a
      001051 AF               [ 4] 3385 	xor	a, a
      001052 32               [ 8] 3386 	ld	(hl-), a
      001053 2A               [ 8] 3387 	ld	a, (hl+)
      001054 91               [ 4] 3388 	sub	a, c
      001055 7E               [ 8] 3389 	ld	a, (hl)
      001056 98               [ 4] 3390 	sbc	a, b
      001057 56               [ 8] 3391 	ld	d, (hl)
      001058 78               [ 4] 3392 	ld	a, b
      001059 CB 7F            [ 8] 3393 	bit	7,a
      00105B 28 07            [12] 3394 	jr	Z, 00133$
      00105D CB 7A            [ 8] 3395 	bit	7, d
      00105F 20 08            [12] 3396 	jr	NZ, 00134$
      001061 BF               [ 4] 3397 	cp	a, a
      001062 18 05            [12] 3398 	jr	00134$
      001064                       3399 00133$:
      001064 CB 7A            [ 8] 3400 	bit	7, d
      001066 28 01            [12] 3401 	jr	Z, 00134$
      001068 37               [ 4] 3402 	scf
      001069                       3403 00134$:
      001069 30 03            [12] 3404 	jr	NC, 00104$
      00106B                       3405 00103$:
      00106B AF               [ 4] 3406 	xor	a, a
      00106C 18 02            [12] 3407 	jr	00105$
      00106E                       3408 00104$:
      00106E 3E 01            [ 8] 3409 	ld	a, #0x01
      001070                       3410 00105$:
                                   3411 ;src/player.c:577: }
      001070 E8 07            [16] 3412 	add	sp, #7
      001072 C9               [16] 3413 	ret
                                   3414 ;src/player.c:583: static bool r_solid_function(uint8_t epa){
                                   3415 ;	---------------------------------
                                   3416 ; Function r_solid_function
                                   3417 ; ---------------------------------
      001073                       3418 _r_solid_function:
      001073 3B               [ 8] 3419 	dec	sp
      001074 3B               [ 8] 3420 	dec	sp
                                   3421 ;src/player.c:584: if(epa == CENTER_DOWN){
      001075 D6 32            [ 8] 3422 	sub	a, #0x32
      001077 C2rD0r12         [16] 3423 	jp	NZ,00111$
                                   3424 ;src/player.c:587: bool is_upper = i & 0x01 == 0x01;
      00107A FAr04r00         [16] 3425 	ld	a, (#_i)
      00107D E6 01            [ 8] 3426 	and	a, #0x01
      00107F 4F               [ 4] 3427 	ld	c, a
      001080 F8 00            [12] 3428 	ldhl	sp,	#0
      001082 71               [ 8] 3429 	ld	(hl), c
                                   3430 ;src/player.c:588: component_at_r = is_upper ? map_components[PLAYER_FLOOR][i>>1].components >> 4 : map_components[PLAYER_FLOOR][i>>1].components & 0x0F;
      001083 FAr0Fr00         [16] 3431 	ld	a, (#_player_y)
      001086 07               [ 4] 3432 	rlca
      001087 07               [ 4] 3433 	rlca
      001088 E6 03            [ 8] 3434 	and	a, #0x03
      00108A 5F               [ 4] 3435 	ld	e, a
      00108B FAr04r00         [16] 3436 	ld	a, (#_i)
      00108E CB 3F            [ 8] 3437 	srl	a
      001090 16 00            [ 8] 3438 	ld	d, #0x00
      001092 87               [ 4] 3439 	add	a, a
      001093 F8 01            [12] 3440 	ldhl	sp,	#1
      001095 77               [ 8] 3441 	ld	(hl), a
      001096 CB 23            [ 8] 3442 	sla	e
      001098 CB 12            [ 8] 3443 	rl	d
      00109A CB 23            [ 8] 3444 	sla	e
      00109C CB 12            [ 8] 3445 	rl	d
      00109E CB 23            [ 8] 3446 	sla	e
      0010A0 CB 12            [ 8] 3447 	rl	d
      0010A2 CB 41            [ 8] 3448 	bit	0, c
      0010A4 28 15            [12] 3449 	jr	Z, 00114$
      0010A6 21r00r00         [12] 3450 	ld	hl, #_map_components
      0010A9 19               [ 8] 3451 	add	hl, de
      0010AA 4D               [ 4] 3452 	ld	c, l
      0010AB 44               [ 4] 3453 	ld	b, h
      0010AC F8 01            [12] 3454 	ldhl	sp,	#1
      0010AE 6E               [ 8] 3455 	ld	l, (hl)
      0010AF 26 00            [ 8] 3456 	ld	h, #0x00
      0010B1 09               [ 8] 3457 	add	hl, bc
      0010B2 4D               [ 4] 3458 	ld	c, l
      0010B3 44               [ 4] 3459 	ld	b, h
      0010B4 0A               [ 8] 3460 	ld	a, (bc)
      0010B5 CB 37            [ 8] 3461 	swap	a
      0010B7 E6 0F            [ 8] 3462 	and	a, #0x0f
      0010B9 18 11            [12] 3463 	jr	00115$
      0010BB                       3464 00114$:
      0010BB 21r00r00         [12] 3465 	ld	hl, #_map_components
      0010BE 19               [ 8] 3466 	add	hl, de
      0010BF 4D               [ 4] 3467 	ld	c, l
      0010C0 44               [ 4] 3468 	ld	b, h
      0010C1 F8 01            [12] 3469 	ldhl	sp,	#1
      0010C3 6E               [ 8] 3470 	ld	l, (hl)
      0010C4 26 00            [ 8] 3471 	ld	h, #0x00
      0010C6 09               [ 8] 3472 	add	hl, bc
      0010C7 4D               [ 4] 3473 	ld	c, l
      0010C8 44               [ 4] 3474 	ld	b, h
      0010C9 0A               [ 8] 3475 	ld	a, (bc)
      0010CA E6 0F            [ 8] 3476 	and	a, #0x0f
      0010CC                       3477 00115$:
                                   3478 ;src/player.c:589: if(component_at_r == 2){
      0010CC D6 02            [ 8] 3479 	sub	a, #0x02
      0010CE C2rD0r12         [16] 3480 	jp	NZ,00111$
                                   3481 ;src/player.c:590: if(is_upper){
      0010D1 F8 00            [12] 3482 	ldhl	sp,	#0
      0010D3 CB 46            [12] 3483 	bit	0, (hl)
      0010D5 CArD5r11         [16] 3484 	jp	Z, 00106$
                                   3485 ;src/player.c:591: if((map_components[PLAYER_FLOOR][i>>1].status >> 4) == 0){
      0010D8 23               [ 8] 3486 	inc	hl
      0010D9 01r00r00         [12] 3487 	ld	bc, #_map_components+0
      0010DC 7B               [ 4] 3488 	ld	a, e
      0010DD 81               [ 4] 3489 	add	a, c
      0010DE 5F               [ 4] 3490 	ld	e, a
      0010DF 7A               [ 4] 3491 	ld	a, d
      0010E0 88               [ 4] 3492 	adc	a, b
      0010E1 57               [ 4] 3493 	ld	d, a
      0010E2 6E               [ 8] 3494 	ld	l, (hl)
      0010E3 26 00            [ 8] 3495 	ld	h, #0x00
      0010E5 19               [ 8] 3496 	add	hl, de
      0010E6 23               [ 8] 3497 	inc	hl
      0010E7 5D               [ 4] 3498 	ld	e, l
      0010E8 54               [ 4] 3499 	ld	d, h
      0010E9 1A               [ 8] 3500 	ld	a, (de)
      0010EA CB 37            [ 8] 3501 	swap	a
      0010EC E6 0F            [ 8] 3502 	and	a,#0x0f
      0010EE 20 4D            [12] 3503 	jr	NZ, 00102$
                                   3504 ;src/player.c:592: play_bump_sfx();
      0010F0 C5               [16] 3505 	push	bc
      0010F1 CDr00r00         [24] 3506 	call	_play_bump_sfx
      0010F4 C1               [12] 3507 	pop	bc
                                   3508 ;src/player.c:593: set_bkg_tiles(3 + (i<<1 & 0x0C), (PLAYER_FLOOR << 3) + 1, 4, 1, top_map_02_broken);
      0010F5 FAr0Fr00         [16] 3509 	ld	a, (#_player_y)
      0010F8 07               [ 4] 3510 	rlca
      0010F9 07               [ 4] 3511 	rlca
      0010FA E6 03            [ 8] 3512 	and	a, #0x03
      0010FC 87               [ 4] 3513 	add	a, a
      0010FD 87               [ 4] 3514 	add	a, a
      0010FE 87               [ 4] 3515 	add	a, a
      0010FF 57               [ 4] 3516 	ld	d, a
      001100 14               [ 4] 3517 	inc	d
      001101 FAr04r00         [16] 3518 	ld	a, (#_i)
      001104 87               [ 4] 3519 	add	a, a
      001105 E6 0C            [ 8] 3520 	and	a, #0x0c
      001107 C6 03            [ 8] 3521 	add	a, #0x03
      001109 21r00r00         [12] 3522 	ld	hl, #_top_map_02_broken
      00110C E5               [16] 3523 	push	hl
      00110D 26 01            [ 8] 3524 	ld	h, #0x01
                                   3525 ;	spillPairReg hl
                                   3526 ;	spillPairReg hl
      00110F E5               [16] 3527 	push	hl
      001110 33               [ 8] 3528 	inc	sp
      001111 26 04            [ 8] 3529 	ld	h, #0x04
                                   3530 ;	spillPairReg hl
                                   3531 ;	spillPairReg hl
      001113 6A               [ 4] 3532 	ld	l, d
      001114 E5               [16] 3533 	push	hl
      001115 F5               [16] 3534 	push	af
      001116 33               [ 8] 3535 	inc	sp
      001117 CDr00r00         [24] 3536 	call	_set_bkg_tiles
      00111A E8 06            [16] 3537 	add	sp, #6
                                   3538 ;src/player.c:594: map_components[PLAYER_FLOOR][i>>1].status |= 0x10;
      00111C FAr0Fr00         [16] 3539 	ld	a, (#_player_y)
      00111F 07               [ 4] 3540 	rlca
      001120 07               [ 4] 3541 	rlca
      001121 E6 03            [ 8] 3542 	and	a, #0x03
      001123 26 00            [ 8] 3543 	ld	h, #0x00
                                   3544 ;	spillPairReg hl
                                   3545 ;	spillPairReg hl
      001125 6F               [ 4] 3546 	ld	l, a
      001126 29               [ 8] 3547 	add	hl, hl
      001127 29               [ 8] 3548 	add	hl, hl
      001128 29               [ 8] 3549 	add	hl, hl
      001129 09               [ 8] 3550 	add	hl, bc
      00112A 4D               [ 4] 3551 	ld	c, l
      00112B 44               [ 4] 3552 	ld	b, h
      00112C FAr04r00         [16] 3553 	ld	a, (#_i)
      00112F CB 3F            [ 8] 3554 	srl	a
      001131 87               [ 4] 3555 	add	a, a
      001132 6F               [ 4] 3556 	ld	l, a
      001133 26 00            [ 8] 3557 	ld	h, #0x00
      001135 09               [ 8] 3558 	add	hl, bc
      001136 23               [ 8] 3559 	inc	hl
      001137 CB E6            [16] 3560 	set	4, (hl)
                                   3561 ;src/player.c:595: return false;
      001139 AF               [ 4] 3562 	xor	a, a
      00113A C3rD1r12         [16] 3563 	jp	00112$
      00113D                       3564 00102$:
                                   3565 ;src/player.c:597: instanciate_brick_particles();
      00113D C5               [16] 3566 	push	bc
      00113E CDr3Dr08         [24] 3567 	call	_instanciate_brick_particles
      001141 CDr00r00         [24] 3568 	call	_play_break_sfx
      001144 C1               [12] 3569 	pop	bc
                                   3570 ;src/player.c:599: set_bkg_tiles(3 + (i<<1 & 0x0C), (PLAYER_FLOOR << 3) + 1, 4, 1, top_map_00);
      001145 FAr0Fr00         [16] 3571 	ld	a, (#_player_y)
      001148 07               [ 4] 3572 	rlca
      001149 07               [ 4] 3573 	rlca
      00114A E6 03            [ 8] 3574 	and	a, #0x03
      00114C 87               [ 4] 3575 	add	a, a
      00114D 87               [ 4] 3576 	add	a, a
      00114E 87               [ 4] 3577 	add	a, a
      00114F 57               [ 4] 3578 	ld	d, a
      001150 14               [ 4] 3579 	inc	d
      001151 FAr04r00         [16] 3580 	ld	a, (#_i)
      001154 87               [ 4] 3581 	add	a, a
      001155 E6 0C            [ 8] 3582 	and	a, #0x0c
      001157 C6 03            [ 8] 3583 	add	a, #0x03
      001159 21r00r00         [12] 3584 	ld	hl, #_top_map_00
      00115C E5               [16] 3585 	push	hl
      00115D 26 01            [ 8] 3586 	ld	h, #0x01
                                   3587 ;	spillPairReg hl
                                   3588 ;	spillPairReg hl
      00115F E5               [16] 3589 	push	hl
      001160 33               [ 8] 3590 	inc	sp
      001161 26 04            [ 8] 3591 	ld	h, #0x04
                                   3592 ;	spillPairReg hl
                                   3593 ;	spillPairReg hl
      001163 6A               [ 4] 3594 	ld	l, d
      001164 E5               [16] 3595 	push	hl
      001165 F5               [16] 3596 	push	af
      001166 33               [ 8] 3597 	inc	sp
      001167 CDr00r00         [24] 3598 	call	_set_bkg_tiles
      00116A E8 06            [16] 3599 	add	sp, #6
                                   3600 ;src/player.c:600: map_components[PLAYER_FLOOR][i>>1].components = map_components[PLAYER_FLOOR][i>>1].components & 0x0F;
      00116C FAr0Fr00         [16] 3601 	ld	a, (#_player_y)
      00116F 07               [ 4] 3602 	rlca
      001170 07               [ 4] 3603 	rlca
      001171 E6 03            [ 8] 3604 	and	a, #0x03
      001173 26 00            [ 8] 3605 	ld	h, #0x00
                                   3606 ;	spillPairReg hl
                                   3607 ;	spillPairReg hl
      001175 6F               [ 4] 3608 	ld	l, a
      001176 29               [ 8] 3609 	add	hl, hl
      001177 29               [ 8] 3610 	add	hl, hl
      001178 29               [ 8] 3611 	add	hl, hl
      001179 09               [ 8] 3612 	add	hl, bc
      00117A 5D               [ 4] 3613 	ld	e, l
      00117B 54               [ 4] 3614 	ld	d, h
      00117C FAr04r00         [16] 3615 	ld	a, (#_i)
      00117F CB 3F            [ 8] 3616 	srl	a
      001181 87               [ 4] 3617 	add	a, a
      001182 6F               [ 4] 3618 	ld	l, a
      001183 26 00            [ 8] 3619 	ld	h, #0x00
      001185 19               [ 8] 3620 	add	hl, de
      001186 7E               [ 8] 3621 	ld	a, (hl)
      001187 E6 0F            [ 8] 3622 	and	a, #0x0f
      001189 77               [ 8] 3623 	ld	(hl), a
                                   3624 ;src/player.c:601: map_components[PLAYER_FLOOR][i>>1].status = map_components[PLAYER_FLOOR][i>>1].status & 0x0F;
      00118A FAr0Fr00         [16] 3625 	ld	a, (#_player_y)
      00118D 07               [ 4] 3626 	rlca
      00118E 07               [ 4] 3627 	rlca
      00118F E6 03            [ 8] 3628 	and	a, #0x03
      001191 26 00            [ 8] 3629 	ld	h, #0x00
                                   3630 ;	spillPairReg hl
                                   3631 ;	spillPairReg hl
      001193 6F               [ 4] 3632 	ld	l, a
      001194 29               [ 8] 3633 	add	hl, hl
      001195 29               [ 8] 3634 	add	hl, hl
      001196 29               [ 8] 3635 	add	hl, hl
      001197 09               [ 8] 3636 	add	hl, bc
      001198 4D               [ 4] 3637 	ld	c, l
      001199 44               [ 4] 3638 	ld	b, h
      00119A FAr04r00         [16] 3639 	ld	a, (#_i)
      00119D CB 3F            [ 8] 3640 	srl	a
      00119F 87               [ 4] 3641 	add	a, a
      0011A0 6F               [ 4] 3642 	ld	l, a
      0011A1 26 00            [ 8] 3643 	ld	h, #0x00
      0011A3 09               [ 8] 3644 	add	hl, bc
      0011A4 23               [ 8] 3645 	inc	hl
      0011A5 7E               [ 8] 3646 	ld	a, (hl)
      0011A6 E6 0F            [ 8] 3647 	and	a, #0x0f
      0011A8 77               [ 8] 3648 	ld	(hl), a
                                   3649 ;src/player.c:602: rect_list[PLAYER_FLOOR][i].type = INACTIVE;
      0011A9 01r00r00         [12] 3650 	ld	bc, #_rect_list+0
      0011AC FAr0Fr00         [16] 3651 	ld	a, (#_player_y)
      0011AF 07               [ 4] 3652 	rlca
      0011B0 07               [ 4] 3653 	rlca
      0011B1 E6 03            [ 8] 3654 	and	a, #0x03
      0011B3 5F               [ 4] 3655 	ld	e, a
      0011B4 16 00            [ 8] 3656 	ld	d, #0x00
      0011B6 6B               [ 4] 3657 	ld	l, e
      0011B7 62               [ 4] 3658 	ld	h, d
      0011B8 29               [ 8] 3659 	add	hl, hl
      0011B9 29               [ 8] 3660 	add	hl, hl
      0011BA 19               [ 8] 3661 	add	hl, de
      0011BB 29               [ 8] 3662 	add	hl, hl
      0011BC 29               [ 8] 3663 	add	hl, hl
      0011BD 29               [ 8] 3664 	add	hl, hl
      0011BE 09               [ 8] 3665 	add	hl, bc
      0011BF 4D               [ 4] 3666 	ld	c, l
      0011C0 44               [ 4] 3667 	ld	b, h
      0011C1 FAr04r00         [16] 3668 	ld	a, (#_i)
      0011C4 5F               [ 4] 3669 	ld	e, a
      0011C5 87               [ 4] 3670 	add	a, a
      0011C6 87               [ 4] 3671 	add	a, a
      0011C7 83               [ 4] 3672 	add	a, e
      0011C8 6F               [ 4] 3673 	ld	l, a
      0011C9 26 00            [ 8] 3674 	ld	h, #0x00
      0011CB 09               [ 8] 3675 	add	hl, bc
      0011CC 01 04 00         [12] 3676 	ld	bc, #0x0004
      0011CF 09               [ 8] 3677 	add	hl, bc
      0011D0 36 02            [12] 3678 	ld	(hl), #0x02
      0011D2 C3rD0r12         [16] 3679 	jp	00111$
      0011D5                       3680 00106$:
                                   3681 ;src/player.c:604: if((map_components[PLAYER_FLOOR][i>>1].status & 0x0F) == 0){
      0011D5 01r00r00         [12] 3682 	ld	bc, #_map_components+0
      0011D8 7B               [ 4] 3683 	ld	a, e
      0011D9 81               [ 4] 3684 	add	a, c
      0011DA 5F               [ 4] 3685 	ld	e, a
      0011DB 7A               [ 4] 3686 	ld	a, d
      0011DC 88               [ 4] 3687 	adc	a, b
      0011DD 57               [ 4] 3688 	ld	d, a
      0011DE F8 01            [12] 3689 	ldhl	sp,	#1
      0011E0 6E               [ 8] 3690 	ld	l, (hl)
      0011E1 26 00            [ 8] 3691 	ld	h, #0x00
      0011E3 19               [ 8] 3692 	add	hl, de
      0011E4 23               [ 8] 3693 	inc	hl
      0011E5 5D               [ 4] 3694 	ld	e, l
      0011E6 54               [ 4] 3695 	ld	d, h
      0011E7 1A               [ 8] 3696 	ld	a, (de)
      0011E8 E6 0F            [ 8] 3697 	and	a, #0x0f
      0011EA 20 4E            [12] 3698 	jr	NZ, 00104$
                                   3699 ;src/player.c:605: play_bump_sfx();
      0011EC C5               [16] 3700 	push	bc
      0011ED CDr00r00         [24] 3701 	call	_play_bump_sfx
      0011F0 C1               [12] 3702 	pop	bc
                                   3703 ;src/player.c:606: set_bkg_tiles(3 + (i<<1 & 0x0C), (PLAYER_FLOOR << 3) + 5, 4, 2, bot_map_02_broken);
      0011F1 FAr0Fr00         [16] 3704 	ld	a, (#_player_y)
      0011F4 07               [ 4] 3705 	rlca
      0011F5 07               [ 4] 3706 	rlca
      0011F6 E6 03            [ 8] 3707 	and	a, #0x03
      0011F8 87               [ 4] 3708 	add	a, a
      0011F9 87               [ 4] 3709 	add	a, a
      0011FA 87               [ 4] 3710 	add	a, a
      0011FB C6 05            [ 8] 3711 	add	a, #0x05
      0011FD 57               [ 4] 3712 	ld	d, a
      0011FE FAr04r00         [16] 3713 	ld	a, (#_i)
      001201 87               [ 4] 3714 	add	a, a
      001202 E6 0C            [ 8] 3715 	and	a, #0x0c
      001204 C6 03            [ 8] 3716 	add	a, #0x03
      001206 21r00r00         [12] 3717 	ld	hl, #_bot_map_02_broken
      001209 E5               [16] 3718 	push	hl
      00120A 26 02            [ 8] 3719 	ld	h, #0x02
                                   3720 ;	spillPairReg hl
                                   3721 ;	spillPairReg hl
      00120C E5               [16] 3722 	push	hl
      00120D 33               [ 8] 3723 	inc	sp
      00120E 26 04            [ 8] 3724 	ld	h, #0x04
                                   3725 ;	spillPairReg hl
                                   3726 ;	spillPairReg hl
      001210 6A               [ 4] 3727 	ld	l, d
      001211 E5               [16] 3728 	push	hl
      001212 F5               [16] 3729 	push	af
      001213 33               [ 8] 3730 	inc	sp
      001214 CDr00r00         [24] 3731 	call	_set_bkg_tiles
      001217 E8 06            [16] 3732 	add	sp, #6
                                   3733 ;src/player.c:607: map_components[PLAYER_FLOOR][i>>1].status |= 0x01;
      001219 FAr0Fr00         [16] 3734 	ld	a, (#_player_y)
      00121C 07               [ 4] 3735 	rlca
      00121D 07               [ 4] 3736 	rlca
      00121E E6 03            [ 8] 3737 	and	a, #0x03
      001220 26 00            [ 8] 3738 	ld	h, #0x00
                                   3739 ;	spillPairReg hl
                                   3740 ;	spillPairReg hl
      001222 6F               [ 4] 3741 	ld	l, a
      001223 29               [ 8] 3742 	add	hl, hl
      001224 29               [ 8] 3743 	add	hl, hl
      001225 29               [ 8] 3744 	add	hl, hl
      001226 09               [ 8] 3745 	add	hl, bc
      001227 4D               [ 4] 3746 	ld	c, l
      001228 44               [ 4] 3747 	ld	b, h
      001229 FAr04r00         [16] 3748 	ld	a, (#_i)
      00122C CB 3F            [ 8] 3749 	srl	a
      00122E 87               [ 4] 3750 	add	a, a
      00122F 6F               [ 4] 3751 	ld	l, a
      001230 26 00            [ 8] 3752 	ld	h, #0x00
      001232 09               [ 8] 3753 	add	hl, bc
      001233 23               [ 8] 3754 	inc	hl
      001234 CB C6            [16] 3755 	set	0, (hl)
                                   3756 ;src/player.c:608: return false;
      001236 AF               [ 4] 3757 	xor	a, a
      001237 C3rD1r12         [16] 3758 	jp	00112$
      00123A                       3759 00104$:
                                   3760 ;src/player.c:610: instanciate_brick_particles();
      00123A C5               [16] 3761 	push	bc
      00123B CDr3Dr08         [24] 3762 	call	_instanciate_brick_particles
      00123E CDr00r00         [24] 3763 	call	_play_break_sfx
      001241 C1               [12] 3764 	pop	bc
                                   3765 ;src/player.c:612: set_bkg_tiles(3 + (i<<1 & 0x0C), (PLAYER_FLOOR << 3) + 5, 4, 2, bot_map_00);
      001242 FAr0Fr00         [16] 3766 	ld	a, (#_player_y)
      001245 07               [ 4] 3767 	rlca
      001246 07               [ 4] 3768 	rlca
      001247 E6 03            [ 8] 3769 	and	a, #0x03
      001249 87               [ 4] 3770 	add	a, a
      00124A 87               [ 4] 3771 	add	a, a
      00124B 87               [ 4] 3772 	add	a, a
      00124C C6 05            [ 8] 3773 	add	a, #0x05
      00124E 57               [ 4] 3774 	ld	d, a
      00124F FAr04r00         [16] 3775 	ld	a, (#_i)
      001252 87               [ 4] 3776 	add	a, a
      001253 E6 0C            [ 8] 3777 	and	a, #0x0c
      001255 C6 03            [ 8] 3778 	add	a, #0x03
      001257 21r00r00         [12] 3779 	ld	hl, #_bot_map_00
      00125A E5               [16] 3780 	push	hl
      00125B 26 02            [ 8] 3781 	ld	h, #0x02
                                   3782 ;	spillPairReg hl
                                   3783 ;	spillPairReg hl
      00125D E5               [16] 3784 	push	hl
      00125E 33               [ 8] 3785 	inc	sp
      00125F 26 04            [ 8] 3786 	ld	h, #0x04
                                   3787 ;	spillPairReg hl
                                   3788 ;	spillPairReg hl
      001261 6A               [ 4] 3789 	ld	l, d
      001262 E5               [16] 3790 	push	hl
      001263 F5               [16] 3791 	push	af
      001264 33               [ 8] 3792 	inc	sp
      001265 CDr00r00         [24] 3793 	call	_set_bkg_tiles
      001268 E8 06            [16] 3794 	add	sp, #6
                                   3795 ;src/player.c:613: map_components[PLAYER_FLOOR][i>>1].components = map_components[PLAYER_FLOOR][i>>1].components & 0xF0;
      00126A FAr0Fr00         [16] 3796 	ld	a, (#_player_y)
      00126D 07               [ 4] 3797 	rlca
      00126E 07               [ 4] 3798 	rlca
      00126F E6 03            [ 8] 3799 	and	a, #0x03
      001271 26 00            [ 8] 3800 	ld	h, #0x00
                                   3801 ;	spillPairReg hl
                                   3802 ;	spillPairReg hl
      001273 6F               [ 4] 3803 	ld	l, a
      001274 29               [ 8] 3804 	add	hl, hl
      001275 29               [ 8] 3805 	add	hl, hl
      001276 29               [ 8] 3806 	add	hl, hl
      001277 09               [ 8] 3807 	add	hl, bc
      001278 5D               [ 4] 3808 	ld	e, l
      001279 54               [ 4] 3809 	ld	d, h
      00127A FAr04r00         [16] 3810 	ld	a, (#_i)
      00127D CB 3F            [ 8] 3811 	srl	a
      00127F 87               [ 4] 3812 	add	a, a
      001280 6F               [ 4] 3813 	ld	l, a
      001281 26 00            [ 8] 3814 	ld	h, #0x00
      001283 19               [ 8] 3815 	add	hl, de
      001284 7E               [ 8] 3816 	ld	a, (hl)
      001285 E6 F0            [ 8] 3817 	and	a, #0xf0
      001287 77               [ 8] 3818 	ld	(hl), a
                                   3819 ;src/player.c:614: map_components[PLAYER_FLOOR][i>>1].status = map_components[PLAYER_FLOOR][i>>1].status & 0xF0;
      001288 FAr0Fr00         [16] 3820 	ld	a, (#_player_y)
      00128B 07               [ 4] 3821 	rlca
      00128C 07               [ 4] 3822 	rlca
      00128D E6 03            [ 8] 3823 	and	a, #0x03
      00128F 26 00            [ 8] 3824 	ld	h, #0x00
                                   3825 ;	spillPairReg hl
                                   3826 ;	spillPairReg hl
      001291 6F               [ 4] 3827 	ld	l, a
      001292 29               [ 8] 3828 	add	hl, hl
      001293 29               [ 8] 3829 	add	hl, hl
      001294 29               [ 8] 3830 	add	hl, hl
      001295 09               [ 8] 3831 	add	hl, bc
      001296 4D               [ 4] 3832 	ld	c, l
      001297 44               [ 4] 3833 	ld	b, h
      001298 FAr04r00         [16] 3834 	ld	a, (#_i)
      00129B CB 3F            [ 8] 3835 	srl	a
      00129D 87               [ 4] 3836 	add	a, a
      00129E 6F               [ 4] 3837 	ld	l, a
      00129F 26 00            [ 8] 3838 	ld	h, #0x00
      0012A1 09               [ 8] 3839 	add	hl, bc
      0012A2 23               [ 8] 3840 	inc	hl
      0012A3 7E               [ 8] 3841 	ld	a, (hl)
      0012A4 E6 F0            [ 8] 3842 	and	a, #0xf0
      0012A6 77               [ 8] 3843 	ld	(hl), a
                                   3844 ;src/player.c:615: rect_list[PLAYER_FLOOR][i].type = INACTIVE;
      0012A7 01r00r00         [12] 3845 	ld	bc, #_rect_list+0
      0012AA FAr0Fr00         [16] 3846 	ld	a, (#_player_y)
      0012AD 07               [ 4] 3847 	rlca
      0012AE 07               [ 4] 3848 	rlca
      0012AF E6 03            [ 8] 3849 	and	a, #0x03
      0012B1 5F               [ 4] 3850 	ld	e, a
      0012B2 16 00            [ 8] 3851 	ld	d, #0x00
      0012B4 6B               [ 4] 3852 	ld	l, e
      0012B5 62               [ 4] 3853 	ld	h, d
      0012B6 29               [ 8] 3854 	add	hl, hl
      0012B7 29               [ 8] 3855 	add	hl, hl
      0012B8 19               [ 8] 3856 	add	hl, de
      0012B9 29               [ 8] 3857 	add	hl, hl
      0012BA 29               [ 8] 3858 	add	hl, hl
      0012BB 29               [ 8] 3859 	add	hl, hl
      0012BC 09               [ 8] 3860 	add	hl, bc
      0012BD 4D               [ 4] 3861 	ld	c, l
      0012BE 44               [ 4] 3862 	ld	b, h
      0012BF FAr04r00         [16] 3863 	ld	a, (#_i)
      0012C2 5F               [ 4] 3864 	ld	e, a
      0012C3 87               [ 4] 3865 	add	a, a
      0012C4 87               [ 4] 3866 	add	a, a
      0012C5 83               [ 4] 3867 	add	a, e
      0012C6 6F               [ 4] 3868 	ld	l, a
      0012C7 26 00            [ 8] 3869 	ld	h, #0x00
      0012C9 09               [ 8] 3870 	add	hl, bc
      0012CA 01 04 00         [12] 3871 	ld	bc, #0x0004
      0012CD 09               [ 8] 3872 	add	hl, bc
      0012CE 36 02            [12] 3873 	ld	(hl), #0x02
      0012D0                       3874 00111$:
                                   3875 ;src/player.c:621: return false;
      0012D0 AF               [ 4] 3876 	xor	a, a
      0012D1                       3877 00112$:
                                   3878 ;src/player.c:622: }
      0012D1 33               [ 8] 3879 	inc	sp
      0012D2 33               [ 8] 3880 	inc	sp
      0012D3 C9               [16] 3881 	ret
                                   3882 ;src/player.c:623: static bool r_traversable_function(uint8_t epa){
                                   3883 ;	---------------------------------
                                   3884 ; Function r_traversable_function
                                   3885 ; ---------------------------------
      0012D4                       3886 _r_traversable_function:
                                   3887 ;src/player.c:624: return (bool)(epa != CENTER_UP || (joy & J_DOWN));
      0012D4 D6 31            [ 8] 3888 	sub	a, #0x31
      0012D6 20 09            [12] 3889 	jr	NZ, 00104$
      0012D8 FAr05r00         [16] 3890 	ld	a, (#_joy)
      0012DB 0F               [ 4] 3891 	rrca
      0012DC 0F               [ 4] 3892 	rrca
      0012DD 0F               [ 4] 3893 	rrca
      0012DE E6 01            [ 8] 3894 	and	a,#0x01
      0012E0 C8               [20] 3895 	ret	Z
      0012E1                       3896 00104$:
      0012E1 3E 01            [ 8] 3897 	ld	a, #0x01
                                   3898 ;src/player.c:625: }
      0012E3 C9               [16] 3899 	ret
                                   3900 ;src/player.c:626: static bool r_inactive_function(uint8_t epa){
                                   3901 ;	---------------------------------
                                   3902 ; Function r_inactive_function
                                   3903 ; ---------------------------------
      0012E4                       3904 _r_inactive_function:
                                   3905 ;src/player.c:627: return true;
      0012E4 3E 01            [ 8] 3906 	ld	a, #0x01
                                   3907 ;src/player.c:628: }
      0012E6 C9               [16] 3908 	ret
                                   3909 ;src/player.c:629: static bool r_bouncy_function(uint8_t epa){
                                   3910 ;	---------------------------------
                                   3911 ; Function r_bouncy_function
                                   3912 ; ---------------------------------
      0012E7                       3913 _r_bouncy_function:
                                   3914 ;src/player.c:630: if(epa == CENTER_UP){
      0012E7 D6 31            [ 8] 3915 	sub	a, #0x31
      0012E9 C2r95r13         [16] 3916 	jp	NZ,00109$
                                   3917 ;src/player.c:428: if(current_state == state) {return;}
                                   3918 ;src/player.c:429: if(current_state == PLAYER_STATE_FALLING){instanciate_collision_puffs();}
      0012EC FAr13r00         [16] 3919 	ld	a,(#_current_state)
      0012EF FE 02            [ 8] 3920 	cp	a,#0x02
      0012F1 28 16            [12] 3921 	jr	Z, 00114$
      0012F3 D6 03            [ 8] 3922 	sub	a, #0x03
      0012F5 20 03            [12] 3923 	jr	NZ, 00113$
      0012F7 CDr1Dr08         [24] 3924 	call	_instanciate_collision_puffs
      0012FA                       3925 00113$:
                                   3926 ;src/player.c:430: frame_counter = 0;
      0012FA 21r01r00         [12] 3927 	ld	hl, #_frame_counter
      0012FD 36 00            [12] 3928 	ld	(hl), #0x00
                                   3929 ;src/player.c:431: current_frame = 0;
      0012FF 21r02r00         [12] 3930 	ld	hl, #_current_frame
      001302 36 00            [12] 3931 	ld	(hl), #0x00
                                   3932 ;src/player.c:432: current_state = state;
      001304 21r13r00         [12] 3933 	ld	hl, #_current_state
      001307 36 02            [12] 3934 	ld	(hl), #0x02
                                   3935 ;src/player.c:631: switch_state(PLAYER_STATE_JUMPING);
      001309                       3936 00114$:
                                   3937 ;src/player.c:632: play_boing_sfx();
      001309 CDr00r00         [24] 3938 	call	_play_boing_sfx
                                   3939 ;src/player.c:633: y_speed = (int8_t)(-45);
      00130C 21r0Cr00         [12] 3940 	ld	hl, #_y_speed
      00130F 36 D3            [12] 3941 	ld	(hl), #0xd3
                                   3942 ;src/player.c:634: is_grounded = false;
      001311 21r0Ar00         [12] 3943 	ld	hl, #_is_grounded
      001314 36 00            [12] 3944 	ld	(hl), #0x00
                                   3945 ;src/player.c:635: is_jumping = true;
      001316 21r0Br00         [12] 3946 	ld	hl, #_is_jumping
      001319 36 01            [12] 3947 	ld	(hl), #0x01
                                   3948 ;src/player.c:639: if(i & 0x01 == 0x01) {return true;}
      00131B E5               [16] 3949 	push	hl
      00131C 21r04r00         [12] 3950 	ld	hl, #_i
      00131F CB 46            [12] 3951 	bit	0, (hl)
      001321 E1               [12] 3952 	pop	hl
      001322 28 03            [12] 3953 	jr	Z, 00102$
      001324 3E 01            [ 8] 3954 	ld	a, #0x01
      001326 C9               [16] 3955 	ret
      001327                       3956 00102$:
                                   3957 ;src/player.c:641: status_of_rack = map_components[PLAYER_FLOOR][i>>1].status & 0x0F;
      001327 FAr0Fr00         [16] 3958 	ld	a, (#_player_y)
      00132A 07               [ 4] 3959 	rlca
      00132B 07               [ 4] 3960 	rlca
      00132C E6 03            [ 8] 3961 	and	a, #0x03
      00132E 6F               [ 4] 3962 	ld	l, a
                                   3963 ;	spillPairReg hl
                                   3964 ;	spillPairReg hl
      00132F 26 00            [ 8] 3965 	ld	h, #0x00
                                   3966 ;	spillPairReg hl
                                   3967 ;	spillPairReg hl
      001331 29               [ 8] 3968 	add	hl, hl
      001332 29               [ 8] 3969 	add	hl, hl
      001333 29               [ 8] 3970 	add	hl, hl
      001334 7D               [ 4] 3971 	ld	a, l
      001335 C6r00            [ 8] 3972 	add	a, #<(_map_components)
      001337 4F               [ 4] 3973 	ld	c, a
      001338 7C               [ 4] 3974 	ld	a, h
      001339 CEs00            [ 8] 3975 	adc	a, #>(_map_components)
      00133B 47               [ 4] 3976 	ld	b, a
      00133C FAr04r00         [16] 3977 	ld	a, (#_i)
      00133F CB 3F            [ 8] 3978 	srl	a
      001341 87               [ 4] 3979 	add	a, a
      001342 6F               [ 4] 3980 	ld	l, a
      001343 26 00            [ 8] 3981 	ld	h, #0x00
      001345 09               [ 8] 3982 	add	hl, bc
      001346 23               [ 8] 3983 	inc	hl
      001347 7E               [ 8] 3984 	ld	a, (hl)
      001348 E6 0F            [ 8] 3985 	and	a, #0x0f
                                   3986 ;src/player.c:650: if(status_of_rack == 0x00){
      00134A 4F               [ 4] 3987 	ld	c, a
      00134B B7               [ 4] 3988 	or	a, a
      00134C 20 03            [12] 3989 	jr	NZ, 00104$
                                   3990 ;src/player.c:651: return true;
      00134E 3E 01            [ 8] 3991 	ld	a, #0x01
      001350 C9               [16] 3992 	ret
      001351                       3993 00104$:
                                   3994 ;src/player.c:653: if((status_of_rack & 0b00001100) == 0b00001100){
      001351 79               [ 4] 3995 	ld	a, c
      001352 E6 0C            [ 8] 3996 	and	a, #0x0c
                                   3997 ;src/player.c:656: make_cloth_fall(status_of_rack & 0x03);
      001354 F5               [16] 3998 	push	af
      001355 79               [ 4] 3999 	ld	a, c
      001356 E6 03            [ 8] 4000 	and	a, #0x03
      001358 47               [ 4] 4001 	ld	b, a
      001359 F1               [12] 4002 	pop	af
                                   4003 ;src/player.c:653: if((status_of_rack & 0b00001100) == 0b00001100){
      00135A D6 0C            [ 8] 4004 	sub	a, #0x0c
      00135C 20 0F            [12] 4005 	jr	NZ, 00106$
                                   4006 ;src/player.c:656: make_cloth_fall(status_of_rack & 0x03);
      00135E C5               [16] 4007 	push	bc
      00135F 78               [ 4] 4008 	ld	a, b
      001360 CDr98r13         [24] 4009 	call	_make_cloth_fall
      001363 C1               [12] 4010 	pop	bc
                                   4011 ;src/player.c:658: make_cloth_fall((status_of_rack + 1) & 0x03);
      001364 79               [ 4] 4012 	ld	a, c
      001365 3C               [ 4] 4013 	inc	a
      001366 E6 03            [ 8] 4014 	and	a, #0x03
      001368 CDr98r13         [24] 4015 	call	_make_cloth_fall
      00136B 18 04            [12] 4016 	jr	00107$
      00136D                       4017 00106$:
                                   4018 ;src/player.c:662: make_cloth_fall(status_of_rack & 0x03);
      00136D 78               [ 4] 4019 	ld	a, b
      00136E CDr98r13         [24] 4020 	call	_make_cloth_fall
      001371                       4021 00107$:
                                   4022 ;src/player.c:664: map_components[PLAYER_FLOOR][i>>1].status &= 0xF0;
      001371 FAr0Fr00         [16] 4023 	ld	a, (#_player_y)
      001374 07               [ 4] 4024 	rlca
      001375 07               [ 4] 4025 	rlca
      001376 E6 03            [ 8] 4026 	and	a, #0x03
      001378 6F               [ 4] 4027 	ld	l, a
                                   4028 ;	spillPairReg hl
                                   4029 ;	spillPairReg hl
      001379 26 00            [ 8] 4030 	ld	h, #0x00
                                   4031 ;	spillPairReg hl
                                   4032 ;	spillPairReg hl
      00137B 29               [ 8] 4033 	add	hl, hl
      00137C 29               [ 8] 4034 	add	hl, hl
      00137D 29               [ 8] 4035 	add	hl, hl
      00137E 7D               [ 4] 4036 	ld	a, l
      00137F C6r00            [ 8] 4037 	add	a, #<(_map_components)
      001381 4F               [ 4] 4038 	ld	c, a
      001382 7C               [ 4] 4039 	ld	a, h
      001383 CEs00            [ 8] 4040 	adc	a, #>(_map_components)
      001385 47               [ 4] 4041 	ld	b, a
      001386 FAr04r00         [16] 4042 	ld	a, (#_i)
      001389 CB 3F            [ 8] 4043 	srl	a
      00138B 87               [ 4] 4044 	add	a, a
      00138C 6F               [ 4] 4045 	ld	l, a
      00138D 26 00            [ 8] 4046 	ld	h, #0x00
      00138F 09               [ 8] 4047 	add	hl, bc
      001390 23               [ 8] 4048 	inc	hl
      001391 7E               [ 8] 4049 	ld	a, (hl)
      001392 E6 F0            [ 8] 4050 	and	a, #0xf0
      001394 77               [ 8] 4051 	ld	(hl), a
      001395                       4052 00109$:
                                   4053 ;src/player.c:666: return true;
      001395 3E 01            [ 8] 4054 	ld	a, #0x01
                                   4055 ;src/player.c:667: }
      001397 C9               [16] 4056 	ret
                                   4057 ;src/player.c:669: static void make_cloth_fall(uint8_t sprite_in_OAM){
                                   4058 ;	---------------------------------
                                   4059 ; Function make_cloth_fall
                                   4060 ; ---------------------------------
      001398                       4061 _make_cloth_fall:
                                   4062 ;src/player.c:670: clothes_speed |= (0b00000001 << ((sprite_in_OAM)<<1));
      001398 4F               [ 4] 4063 	ld	c, a
      001399 87               [ 4] 4064 	add	a, a
      00139A 47               [ 4] 4065 	ld	b, a
      00139B 3E 01            [ 8] 4066 	ld	a, #0x01
      00139D 04               [ 4] 4067 	inc	b
      00139E 18 01            [12] 4068 	jr	00106$
      0013A0                       4069 00105$:
      0013A0 87               [ 4] 4070 	add	a, a
      0013A1                       4071 00106$:
      0013A1 05               [ 4] 4072 	dec	b
      0013A2 20 FC            [12] 4073 	jr	NZ,00105$
      0013A4 21r00r00         [12] 4074 	ld	hl, #_clothes_speed
      0013A7 B6               [ 8] 4075 	or	a, (hl)
      0013A8 77               [ 8] 4076 	ld	(hl), a
                                   4077 ;src/player.c:671: set_sprite_tile(16 + sprite_in_OAM, get_sprite_tile(16 + sprite_in_OAM) + 2);
      0013A9 79               [ 4] 4078 	ld	a, c
      0013AA C6 10            [ 8] 4079 	add	a, #0x10
      0013AC 5F               [ 4] 4080 	ld	e, a
                                   4081 ;/home/javier/Escritorio/gb_development/gbdk/include/gb/gb.h:1815: return shadow_OAM[nb].tile;
      0013AD 6B               [ 4] 4082 	ld	l, e
      0013AE 01r00r00         [12] 4083 	ld	bc, #_shadow_OAM+0
                                   4084 ;	spillPairReg hl
                                   4085 ;	spillPairReg hl
      0013B1 26 00            [ 8] 4086 	ld	h, #0x00
                                   4087 ;	spillPairReg hl
                                   4088 ;	spillPairReg hl
      0013B3 29               [ 8] 4089 	add	hl, hl
      0013B4 29               [ 8] 4090 	add	hl, hl
      0013B5 09               [ 8] 4091 	add	hl, bc
      0013B6 23               [ 8] 4092 	inc	hl
      0013B7 23               [ 8] 4093 	inc	hl
      0013B8 4E               [ 8] 4094 	ld	c, (hl)
                                   4095 ;src/player.c:671: set_sprite_tile(16 + sprite_in_OAM, get_sprite_tile(16 + sprite_in_OAM) + 2);
      0013B9 0C               [ 4] 4096 	inc	c
      0013BA 0C               [ 4] 4097 	inc	c
                                   4098 ;/home/javier/Escritorio/gb_development/gbdk/include/gb/gb.h:1804: shadow_OAM[nb].tile=tile;
      0013BB 6B               [ 4] 4099 	ld	l, e
                                   4100 ;	spillPairReg hl
                                   4101 ;	spillPairReg hl
      0013BC 26 00            [ 8] 4102 	ld	h, #0x00
                                   4103 ;	spillPairReg hl
                                   4104 ;	spillPairReg hl
      0013BE 29               [ 8] 4105 	add	hl, hl
      0013BF 29               [ 8] 4106 	add	hl, hl
      0013C0 11r00r00         [12] 4107 	ld	de, #_shadow_OAM
      0013C3 19               [ 8] 4108 	add	hl, de
      0013C4 23               [ 8] 4109 	inc	hl
      0013C5 23               [ 8] 4110 	inc	hl
      0013C6 71               [ 8] 4111 	ld	(hl), c
                                   4112 ;src/player.c:671: set_sprite_tile(16 + sprite_in_OAM, get_sprite_tile(16 + sprite_in_OAM) + 2);
                                   4113 ;src/player.c:672: }
      0013C7 C9               [16] 4114 	ret
                                   4115 ;src/player.c:674: static bool r_shingled_function(uint8_t epa){
                                   4116 ;	---------------------------------
                                   4117 ; Function r_shingled_function
                                   4118 ; ---------------------------------
      0013C8                       4119 _r_shingled_function:
                                   4120 ;src/player.c:675: if(epa == CENTER_UP){
      0013C8 FE 31            [ 8] 4121 	cp	a, #0x31
      0013CA 20 26            [12] 4122 	jr	NZ, 00102$
                                   4123 ;src/player.c:428: if(current_state == state) {return;}
                                   4124 ;src/player.c:429: if(current_state == PLAYER_STATE_FALLING){instanciate_collision_puffs();}
      0013CC FAr13r00         [16] 4125 	ld	a,(#_current_state)
      0013CF FE 04            [ 8] 4126 	cp	a,#0x04
      0013D1 28 16            [12] 4127 	jr	Z, 00109$
      0013D3 D6 03            [ 8] 4128 	sub	a, #0x03
      0013D5 20 03            [12] 4129 	jr	NZ, 00108$
      0013D7 CDr1Dr08         [24] 4130 	call	_instanciate_collision_puffs
      0013DA                       4131 00108$:
                                   4132 ;src/player.c:430: frame_counter = 0;
      0013DA 21r01r00         [12] 4133 	ld	hl, #_frame_counter
      0013DD 36 00            [12] 4134 	ld	(hl), #0x00
                                   4135 ;src/player.c:431: current_frame = 0;
      0013DF 21r02r00         [12] 4136 	ld	hl, #_current_frame
      0013E2 36 00            [12] 4137 	ld	(hl), #0x00
                                   4138 ;src/player.c:432: current_state = state;
      0013E4 21r13r00         [12] 4139 	ld	hl, #_current_state
      0013E7 36 04            [12] 4140 	ld	(hl), #0x04
                                   4141 ;src/player.c:676: switch_state(PLAYER_STATE_HURT);
      0013E9                       4142 00109$:
                                   4143 ;src/player.c:678: x_speed = 0;
      0013E9 AF               [ 4] 4144 	xor	a, a
      0013EA 21r07r00         [12] 4145 	ld	hl, #_x_speed
      0013ED 22               [ 8] 4146 	ld	(hl+), a
      0013EE 77               [ 8] 4147 	ld	(hl), a
                                   4148 ;src/player.c:679: return true;
      0013EF 3E 01            [ 8] 4149 	ld	a, #0x01
      0013F1 C9               [16] 4150 	ret
      0013F2                       4151 00102$:
                                   4152 ;src/player.c:681: if(epa == CENTER_DOWN){
      0013F2 D6 32            [ 8] 4153 	sub	a, #0x32
      0013F4 20 03            [12] 4154 	jr	NZ, 00104$
                                   4155 ;src/player.c:682: play_bump_sfx();
      0013F6 CDr00r00         [24] 4156 	call	_play_bump_sfx
      0013F9                       4157 00104$:
                                   4158 ;src/player.c:684: return false;
      0013F9 AF               [ 4] 4159 	xor	a, a
                                   4160 ;src/player.c:685: }
      0013FA C9               [16] 4161 	ret
                                   4162 ;src/player.c:686: static bool r_spikey_function(uint8_t epa){
                                   4163 ;	---------------------------------
                                   4164 ; Function r_spikey_function
                                   4165 ; ---------------------------------
      0013FB                       4166 _r_spikey_function:
                                   4167 ;src/player.c:687: if(epa == CENTER_UP){
      0013FB FE 31            [ 8] 4168 	cp	a, #0x31
      0013FD 20 2B            [12] 4169 	jr	NZ, 00102$
                                   4170 ;src/player.c:428: if(current_state == state) {return;}
                                   4171 ;src/player.c:429: if(current_state == PLAYER_STATE_FALLING){instanciate_collision_puffs();}
      0013FF FAr13r00         [16] 4172 	ld	a,(#_current_state)
      001402 FE 04            [ 8] 4173 	cp	a,#0x04
      001404 28 16            [12] 4174 	jr	Z, 00109$
      001406 D6 03            [ 8] 4175 	sub	a, #0x03
      001408 20 03            [12] 4176 	jr	NZ, 00108$
      00140A CDr1Dr08         [24] 4177 	call	_instanciate_collision_puffs
      00140D                       4178 00108$:
                                   4179 ;src/player.c:430: frame_counter = 0;
      00140D 21r01r00         [12] 4180 	ld	hl, #_frame_counter
      001410 36 00            [12] 4181 	ld	(hl), #0x00
                                   4182 ;src/player.c:431: current_frame = 0;
      001412 21r02r00         [12] 4183 	ld	hl, #_current_frame
      001415 36 00            [12] 4184 	ld	(hl), #0x00
                                   4185 ;src/player.c:432: current_state = state;
      001417 21r13r00         [12] 4186 	ld	hl, #_current_state
      00141A 36 04            [12] 4187 	ld	(hl), #0x04
                                   4188 ;src/player.c:688: switch_state(PLAYER_STATE_HURT);
      00141C                       4189 00109$:
                                   4190 ;src/player.c:689: y_speed = (int8_t)(HURT_Y_SPEED);
      00141C 21r0Cr00         [12] 4191 	ld	hl, #_y_speed
      00141F 36 F8            [12] 4192 	ld	(hl), #0xf8
                                   4193 ;src/player.c:690: x_speed = HURT_X_SPEED;
      001421 21r07r00         [12] 4194 	ld	hl, #_x_speed
      001424 AF               [ 4] 4195 	xor	a, a
      001425 22               [ 8] 4196 	ld	(hl+), a
                                   4197 ;src/player.c:691: return true;
      001426 3E 01            [ 8] 4198 	ld	a,#0x01
      001428 77               [ 8] 4199 	ld	(hl),a
      001429 C9               [16] 4200 	ret
      00142A                       4201 00102$:
                                   4202 ;src/player.c:693: if(epa == CENTER_DOWN){
      00142A D6 32            [ 8] 4203 	sub	a, #0x32
      00142C 20 03            [12] 4204 	jr	NZ, 00104$
                                   4205 ;src/player.c:694: play_bump_sfx();
      00142E CDr00r00         [24] 4206 	call	_play_bump_sfx
      001431                       4207 00104$:
                                   4208 ;src/player.c:696: return false;
      001431 AF               [ 4] 4209 	xor	a, a
                                   4210 ;src/player.c:697: }
      001432 C9               [16] 4211 	ret
                                   4212 ;src/player.c:699: static bool r_precarious_function(uint8_t epa){
                                   4213 ;	---------------------------------
                                   4214 ; Function r_precarious_function
                                   4215 ; ---------------------------------
      001433                       4216 _r_precarious_function:
                                   4217 ;src/player.c:700: if(epa == CENTER_UP){
      001433 D6 31            [ 8] 4218 	sub	a, #0x31
      001435 20 37            [12] 4219 	jr	NZ, 00104$
                                   4220 ;src/player.c:701: uint8_t status_of_planter = map_components[PLAYER_FLOOR][i>>1].status & 0x0F;
      001437 01r00r00         [12] 4221 	ld	bc, #_map_components+0
      00143A FAr0Fr00         [16] 4222 	ld	a, (#_player_y)
      00143D 07               [ 4] 4223 	rlca
      00143E 07               [ 4] 4224 	rlca
      00143F E6 03            [ 8] 4225 	and	a, #0x03
      001441 6F               [ 4] 4226 	ld	l, a
                                   4227 ;	spillPairReg hl
                                   4228 ;	spillPairReg hl
      001442 26 00            [ 8] 4229 	ld	h, #0x00
                                   4230 ;	spillPairReg hl
                                   4231 ;	spillPairReg hl
      001444 29               [ 8] 4232 	add	hl, hl
      001445 29               [ 8] 4233 	add	hl, hl
      001446 29               [ 8] 4234 	add	hl, hl
      001447 09               [ 8] 4235 	add	hl, bc
      001448 4D               [ 4] 4236 	ld	c, l
      001449 44               [ 4] 4237 	ld	b, h
      00144A FAr04r00         [16] 4238 	ld	a, (#_i)
      00144D CB 3F            [ 8] 4239 	srl	a
      00144F 87               [ 4] 4240 	add	a, a
      001450 6F               [ 4] 4241 	ld	l, a
      001451 26 00            [ 8] 4242 	ld	h, #0x00
      001453 09               [ 8] 4243 	add	hl, bc
      001454 23               [ 8] 4244 	inc	hl
      001455 46               [ 8] 4245 	ld	b, (hl)
      001456 78               [ 4] 4246 	ld	a, b
      001457 E6 0F            [ 8] 4247 	and	a, #0x0f
                                   4248 ;src/player.c:702: uint8_t planter_sprite = status_of_planter >> 3;
      001459 F5               [16] 4249 	push	af
      00145A CB 37            [ 8] 4250 	swap	a
      00145C 07               [ 4] 4251 	rlca
      00145D E6 1F            [ 8] 4252 	and	a, #0x1f
      00145F 4F               [ 4] 4253 	ld	c, a
      001460 F1               [12] 4254 	pop	af
                                   4255 ;src/player.c:703: status_of_planter &= 0x07;
      001461 E6 07            [ 8] 4256 	and	a, #0x07
      001463 20 07            [12] 4257 	jr	NZ, 00102$
                                   4258 ;src/player.c:704: if(!status_of_planter){
                                   4259 ;src/player.c:706: map_components[PLAYER_FLOOR][i>>1].status |= 0x01;
      001465 CB C0            [ 8] 4260 	set	0, b
      001467 70               [ 8] 4261 	ld	(hl), b
                                   4262 ;src/player.c:707: make_planter_fall(planter_sprite);
      001468 79               [ 4] 4263 	ld	a, c
      001469 CDr71r14         [24] 4264 	call	_make_planter_fall
      00146C                       4265 00102$:
                                   4266 ;src/player.c:720: return false;
      00146C AF               [ 4] 4267 	xor	a, a
      00146D C9               [16] 4268 	ret
      00146E                       4269 00104$:
                                   4270 ;src/player.c:722: return true;
      00146E 3E 01            [ 8] 4271 	ld	a, #0x01
                                   4272 ;src/player.c:723: }
      001470 C9               [16] 4273 	ret
                                   4274 ;src/player.c:725: static void make_planter_fall(uint8_t sprite_in_OAM){
                                   4275 ;	---------------------------------
                                   4276 ; Function make_planter_fall
                                   4277 ; ---------------------------------
      001471                       4278 _make_planter_fall:
                                   4279 ;src/player.c:727: planters_drop_flag[sprite_in_OAM] |= (PLAYER_FLOOR << 6) 
      001471 C6r00            [ 8] 4280 	add	a,#<(_planters_drop_flag)
      001473 4F               [ 4] 4281 	ld	c, a
      001474 3Es00            [ 8] 4282 	ld	a, #>(_planters_drop_flag)
      001476 CE 00            [ 8] 4283 	adc	a, #0x00
      001478 47               [ 4] 4284 	ld	b, a
      001479 0A               [ 8] 4285 	ld	a, (bc)
      00147A 5F               [ 4] 4286 	ld	e, a
      00147B FAr0Fr00         [16] 4287 	ld	a, (#_player_y)
      00147E 07               [ 4] 4288 	rlca
      00147F 07               [ 4] 4289 	rlca
      001480 E6 03            [ 8] 4290 	and	a, #0x03
      001482 0F               [ 4] 4291 	rrca
      001483 0F               [ 4] 4292 	rrca
      001484 E6 C0            [ 8] 4293 	and	a, #0xc0
      001486 57               [ 4] 4294 	ld	d, a
                                   4295 ;src/player.c:728: | ((i >> 1) << 4) 
      001487 FAr04r00         [16] 4296 	ld	a, (#_i)
      00148A CB 3F            [ 8] 4297 	srl	a
      00148C CB 37            [ 8] 4298 	swap	a
      00148E E6 F0            [ 8] 4299 	and	a, #0xf0
      001490 B2               [ 4] 4300 	or	a, d
      001491 CB DF            [ 8] 4301 	set	3, a
      001493 B3               [ 4] 4302 	or	a, e
      001494 02               [ 8] 4303 	ld	(bc), a
                                   4304 ;src/player.c:730: }
      001495 C9               [16] 4305 	ret
                                   4306 ;src/player.c:732: static bool r_initf_function(uint8_t epa){
                                   4307 ;	---------------------------------
                                   4308 ; Function r_initf_function
                                   4309 ; ---------------------------------
      001496                       4310 _r_initf_function:
                                   4311 ;src/player.c:733: game_started_flag = epa == CENTER_UP;
      001496 D6 31            [ 8] 4312 	sub	a, #0x31
      001498 3E 01            [ 8] 4313 	ld	a, #0x01
      00149A 28 01            [12] 4314 	jr	Z, 00121$
      00149C AF               [ 4] 4315 	xor	a, a
      00149D                       4316 00121$:
      00149D 4F               [ 4] 4317 	ld	c, a
      00149E 21r00r00         [12] 4318 	ld	hl, #_game_started_flag
      0014A1 71               [ 8] 4319 	ld	(hl), c
                                   4320 ;src/player.c:734: return (bool)(epa != CENTER_UP || (joy & J_DOWN));
      0014A2 CB 41            [ 8] 4321 	bit	0, c
      0014A4 28 09            [12] 4322 	jr	Z, 00104$
      0014A6 FAr05r00         [16] 4323 	ld	a, (#_joy)
      0014A9 0F               [ 4] 4324 	rrca
      0014AA 0F               [ 4] 4325 	rrca
      0014AB 0F               [ 4] 4326 	rrca
      0014AC E6 01            [ 8] 4327 	and	a,#0x01
      0014AE C8               [20] 4328 	ret	Z
      0014AF                       4329 00104$:
      0014AF 3E 01            [ 8] 4330 	ld	a, #0x01
                                   4331 ;src/player.c:735: }
      0014B1 C9               [16] 4332 	ret
                                   4333 	.area _CODE
                                   4334 	.area _INITIALIZER
      000000                       4335 __xinit__puff_frame:
      000000 00                    4336 	.db #0x00	; 0
      000001 00                    4337 	.db #0x00	; 0
      000002 00                    4338 	.db #0x00	; 0
      000003 00                    4339 	.db #0x00	; 0
      000004                       4340 __xinit__rect_functions:
      000004r73r10                 4341 	.dw _r_solid_function
      000006rD4r12                 4342 	.dw _r_traversable_function
      000008rE4r12                 4343 	.dw _r_inactive_function
      00000ArE7r12                 4344 	.dw _r_bouncy_function
      00000CrC8r13                 4345 	.dw _r_shingled_function
      00000ErFBr13                 4346 	.dw _r_spikey_function
      000010r33r14                 4347 	.dw _r_precarious_function
      000012r96r14                 4348 	.dw _r_initf_function
                                   4349 	.area _CABS (ABS)
