                                      1 ;--------------------------------------------------------
                                      2 ; File Created by SDCC : free open source ANSI-C Compiler
                                      3 ; Version 4.1.6 #12539 (MINGW32)
                                      4 ;--------------------------------------------------------
                                      5 	.module scene
                                      6 	.optsdcc -mgbz80
                                      7 	
                                      8 ;--------------------------------------------------------
                                      9 ; Public variables in this module
                                     10 ;--------------------------------------------------------
                                     11 	.globl _rand
                                     12 	.globl _initrand
                                     13 	.globl _set_sprite_data
                                     14 	.globl _set_bkg_tiles
                                     15 	.globl _set_bkg_data
                                     16 	.globl _deactivate_weeds_flag
                                     17 	.globl _clothes_speed
                                     18 	.globl _clothes_position
                                     19 	.globl _map_components
                                     20 	.globl _rect_list
                                     21 	.globl _game_started_flag
                                     22 	.globl _old_camera_y_clamped
                                     23 	.globl _camera_y_clamped
                                     24 	.globl _old_camera_y
                                     25 	.globl _camera_y
                                     26 	.globl _r
                                     27 	.globl _rand_init
                                     28 	.globl _possible_clothes
                                     29 	.globl _all_bots
                                     30 	.globl _all_tops
                                     31 	.globl _bulky_tops
                                     32 	.globl _bulky_bots
                                     33 	.globl _traversable_tops
                                     34 	.globl _traversable_bots
                                     35 	.globl _top_info
                                     36 	.globl _bot_info
                                     37 	.globl _scene_init
                                     38 	.globl _compute_scene_frame
                                     39 	.globl _move_camera
                                     40 	.globl _set_camera
                                     41 	.globl _move_sprites_down
                                     42 	.globl _animate_weeds
                                     43 	.globl _gen_new_floor
                                     44 	.globl _add_clothes_to_rag
                                     45 	.globl _next_map_gen_step
                                     46 	.globl _update_walker
                                     47 	.globl _fill_window
                                     48 	.globl _mend_incorrect_windows
                                     49 	.globl _fill_memory
                                     50 	.globl _memcpy_rect
                                     51 ;--------------------------------------------------------
                                     52 ; special function registers
                                     53 ;--------------------------------------------------------
                                     54 ;--------------------------------------------------------
                                     55 ; ram data
                                     56 ;--------------------------------------------------------
                                     57 	.area _DATA
                           000000    58 Fscene$joy$0_0$0==.
      000000                         59 _joy:
      000000                         60 	.ds 1
                           000001    61 Fscene$i$0_0$0==.
      000001                         62 _i:
      000001                         63 	.ds 1
                           000002    64 Fscene$floor_info$0_0$0==.
      000002                         65 _floor_info:
      000002                         66 	.ds 4
                           000006    67 G$rand_init$0_0$0==.
      000006                         68 _rand_init::
      000006                         69 	.ds 1
                           000007    70 G$r$0_0$0==.
      000007                         71 _r::
      000007                         72 	.ds 1
                           000008    73 Fscene$window_components_on_current_floor$0_0$0==.
      000008                         74 _window_components_on_current_floor:
      000008                         75 	.ds 4
                           00000C    76 G$camera_y$0_0$0==.
      00000C                         77 _camera_y::
      00000C                         78 	.ds 1
                           00000D    79 G$old_camera_y$0_0$0==.
      00000D                         80 _old_camera_y::
      00000D                         81 	.ds 1
                           00000E    82 G$camera_y_clamped$0_0$0==.
      00000E                         83 _camera_y_clamped::
      00000E                         84 	.ds 1
                           00000F    85 G$old_camera_y_clamped$0_0$0==.
      00000F                         86 _old_camera_y_clamped::
      00000F                         87 	.ds 1
                           000010    88 Fscene$frames_to_move$0_0$0==.
      000010                         89 _frames_to_move:
      000010                         90 	.ds 1
                           000011    91 Fscene$current_cam_frame$0_0$0==.
      000011                         92 _current_cam_frame:
      000011                         93 	.ds 1
                           000012    94 Fscene$accelerate_cam_flag$0_0$0==.
      000012                         95 _accelerate_cam_flag:
      000012                         96 	.ds 1
                           000013    97 G$game_started_flag$0_0$0==.
      000013                         98 _game_started_flag::
      000013                         99 	.ds 1
                           000014   100 G$rect_list$0_0$0==.
      000014                        101 _rect_list::
      000014                        102 	.ds 160
                           0000B4   103 G$map_components$0_0$0==.
      0000B4                        104 _map_components::
      0000B4                        105 	.ds 32
                           0000D4   106 Fscene$next_assignable_rect_index$0_0$0==.
      0000D4                        107 _next_assignable_rect_index:
      0000D4                        108 	.ds 1
                           0000D5   109 Fscene$walker_byte$0_0$0==.
      0000D5                        110 _walker_byte:
      0000D5                        111 	.ds 1
                           0000D6   112 Fscene$malloc_i$0_0$0==.
      0000D6                        113 _malloc_i:
      0000D6                        114 	.ds 1
                           0000D7   115 Fscene$window_map$0_0$0==.
      0000D7                        116 _window_map:
      0000D7                        117 	.ds 96
                           000137   118 G$clothes_position$0_0$0==.
      000137                        119 _clothes_position::
      000137                        120 	.ds 4
                           00013B   121 G$clothes_speed$0_0$0==.
      00013B                        122 _clothes_speed::
      00013B                        123 	.ds 1
                           00013C   124 G$deactivate_weeds_flag$0_0$0==.
      00013C                        125 _deactivate_weeds_flag::
      00013C                        126 	.ds 1
                           00013D   127 Fscene$weeds_frame_counter$0_0$0==.
      00013D                        128 _weeds_frame_counter:
      00013D                        129 	.ds 1
                           00013E   130 Fscene$is_generated$0_0$0==.
      00013E                        131 _is_generated:
      00013E                        132 	.ds 1
                           00013F   133 Lscene.memcpy_rect$cur_row$1_0$266==.
      00013F                        134 _memcpy_rect_cur_row_65536_266:
      00013F                        135 	.ds 1
                                    136 ;--------------------------------------------------------
                                    137 ; ram data
                                    138 ;--------------------------------------------------------
                                    139 	.area _INITIALIZED
                                    140 ;--------------------------------------------------------
                                    141 ; absolute external ram data
                                    142 ;--------------------------------------------------------
                                    143 	.area _DABS (ABS)
                                    144 ;--------------------------------------------------------
                                    145 ; global & static initialisations
                                    146 ;--------------------------------------------------------
                                    147 	.area _HOME
                                    148 	.area _GSINIT
                                    149 	.area _GSFINAL
                                    150 	.area _GSINIT
                                    151 ;--------------------------------------------------------
                                    152 ; Home
                                    153 ;--------------------------------------------------------
                                    154 	.area _HOME
                                    155 	.area _HOME
                                    156 ;--------------------------------------------------------
                                    157 ; code
                                    158 ;--------------------------------------------------------
                                    159 	.area _CODE
                           000000   160 	G$scene_init$0$0	= .
                                    161 	.globl	G$scene_init$0$0
                           000000   162 	C$scene.c$116$0_0$130	= .
                                    163 	.globl	C$scene.c$116$0_0$130
                                    164 ;src/scene.c:116: void scene_init(void){
                                    165 ;	---------------------------------
                                    166 ; Function scene_init
                                    167 ; ---------------------------------
      000000                        168 _scene_init::
      000000 E8 D1                  169 	add	sp, #-47
                           000002   170 	C$scene.c$118$1_0$130	= .
                                    171 	.globl	C$scene.c$118$1_0$130
                                    172 ;src/scene.c:118: set_bkg_data(0, 112U, hub_data);
      000002 11r00r00               173 	ld	de, #_hub_data
      000005 D5                     174 	push	de
      000006 21 00 70               175 	ld	hl, #0x7000
      000009 E5                     176 	push	hl
      00000A CDr00r00               177 	call	_set_bkg_data
      00000D E8 04                  178 	add	sp, #4
                           00000F   179 	C$scene.c$119$1_0$130	= .
                                    180 	.globl	C$scene.c$119$1_0$130
                                    181 ;src/scene.c:119: set_bkg_data(112U, 13, numbers);
      00000F 11r00r00               182 	ld	de, #_numbers
      000012 D5                     183 	push	de
      000013 21 70 0D               184 	ld	hl, #0xd70
      000016 E5                     185 	push	hl
      000017 CDr00r00               186 	call	_set_bkg_data
      00001A E8 04                  187 	add	sp, #4
                           00001C   188 	C$scene.c$120$1_0$130	= .
                                    189 	.globl	C$scene.c$120$1_0$130
                                    190 ;src/scene.c:120: set_bkg_data(0x7D, 2, partly_broken_bricks);
      00001C 11r00r00               191 	ld	de, #_partly_broken_bricks
      00001F D5                     192 	push	de
      000020 21 7D 02               193 	ld	hl, #0x27d
      000023 E5                     194 	push	hl
      000024 CDr00r00               195 	call	_set_bkg_data
      000027 E8 04                  196 	add	sp, #4
                           000029   197 	C$scene.c$121$1_0$130	= .
                                    198 	.globl	C$scene.c$121$1_0$130
                                    199 ;src/scene.c:121: set_bkg_tiles(map_pos_x, 20U, 20u, 30u, hub_map);
      000029 11r00r00               200 	ld	de, #_hub_map
      00002C D5                     201 	push	de
      00002D 21 14 1E               202 	ld	hl, #0x1e14
      000030 E5                     203 	push	hl
      000031 21 01 14               204 	ld	hl, #0x1401
      000034 E5                     205 	push	hl
      000035 CDr00r00               206 	call	_set_bkg_tiles
      000038 E8 06                  207 	add	sp, #6
                           00003A   208 	C$scene.c$122$1_0$130	= .
                                    209 	.globl	C$scene.c$122$1_0$130
                                    210 ;src/scene.c:122: camera_y = 0;
      00003A 21r0Cr00               211 	ld	hl, #_camera_y
      00003D 36 00                  212 	ld	(hl), #0x00
                           00003F   213 	C$scene.c$123$1_0$130	= .
                                    214 	.globl	C$scene.c$123$1_0$130
                                    215 ;src/scene.c:123: old_camera_y = 0;
      00003F 21r0Dr00               216 	ld	hl, #_old_camera_y
      000042 36 00                  217 	ld	(hl), #0x00
                           000044   218 	C$scene.c$124$1_0$130	= .
                                    219 	.globl	C$scene.c$124$1_0$130
                                    220 ;src/scene.c:124: frames_to_move = 40;
      000044 21r10r00               221 	ld	hl, #_frames_to_move
      000047 36 28                  222 	ld	(hl), #0x28
                           000049   223 	C$scene.c$125$1_0$130	= .
                                    224 	.globl	C$scene.c$125$1_0$130
                                    225 ;src/scene.c:125: current_cam_frame = 0;
      000049 21r11r00               226 	ld	hl, #_current_cam_frame
      00004C 36 00                  227 	ld	(hl), #0x00
                           00004E   228 	C$scene.c$126$1_0$130	= .
                                    229 	.globl	C$scene.c$126$1_0$130
                                    230 ;src/scene.c:126: accelerate_cam_flag = 0;
      00004E 21r12r00               231 	ld	hl, #_accelerate_cam_flag
      000051 36 00                  232 	ld	(hl), #0x00
                           000053   233 	C$scene.c$127$1_0$130	= .
                                    234 	.globl	C$scene.c$127$1_0$130
                                    235 ;src/scene.c:127: game_started_flag = false;
      000053 21r13r00               236 	ld	hl, #_game_started_flag
      000056 36 00                  237 	ld	(hl), #0x00
                                    238 ;C:/gbdk/include/gb/gb.h:1080: SCX_REG=x, SCY_REG=y;
      000058 3E 08                  239 	ld	a, #0x08
      00005A E0r00                  240 	ldh	(_SCX_REG + 0), a
      00005C AF                     241 	xor	a, a
      00005D E0r00                  242 	ldh	(_SCY_REG + 0), a
                           00005F   243 	C$scene.c$129$1_0$130	= .
                                    244 	.globl	C$scene.c$129$1_0$130
                                    245 ;src/scene.c:129: is_generated = false;
      00005F 21r3Er01               246 	ld	hl, #_is_generated
      000062 36 00                  247 	ld	(hl), #0x00
                           000064   248 	C$scene.c$131$2_0$131	= .
                                    249 	.globl	C$scene.c$131$2_0$131
                                    250 ;src/scene.c:131: rect ground = {0U, 152U, 0xFF, 23U, SOLID};
      000064 F8 00                  251 	ldhl	sp,	#0
      000066 4D                     252 	ld	c, l
      000067 44                     253 	ld	b, h
      000068 AF                     254 	xor	a, a
      000069 02                     255 	ld	(bc), a
      00006A F8 00                  256 	ldhl	sp,	#0
                                    257 ;	spillPairReg hl
                                    258 ;	spillPairReg hl
      00006C 4D                     259 	ld	c,l
      00006D 44                     260 	ld	b,h
                                    261 ;	spillPairReg hl
                                    262 ;	spillPairReg hl
      00006E 23                     263 	inc	hl
      00006F 36 98                  264 	ld	(hl), #0x98
      000071 69                     265 	ld	l, c
                                    266 ;	spillPairReg hl
                                    267 ;	spillPairReg hl
      000072 60                     268 	ld	h, b
                                    269 ;	spillPairReg hl
                                    270 ;	spillPairReg hl
      000073 23                     271 	inc	hl
      000074 23                     272 	inc	hl
      000075 36 FF                  273 	ld	(hl), #0xff
      000077 69                     274 	ld	l, c
                                    275 ;	spillPairReg hl
                                    276 ;	spillPairReg hl
      000078 60                     277 	ld	h, b
                                    278 ;	spillPairReg hl
                                    279 ;	spillPairReg hl
      000079 23                     280 	inc	hl
      00007A 23                     281 	inc	hl
      00007B 23                     282 	inc	hl
      00007C 36 17                  283 	ld	(hl), #0x17
      00007E 21 04 00               284 	ld	hl, #0x0004
      000081 09                     285 	add	hl, bc
      000082 36 00                  286 	ld	(hl), #0x00
                           000084   287 	C$scene.c$132$2_0$131	= .
                                    288 	.globl	C$scene.c$132$2_0$131
                                    289 ;src/scene.c:132: rect dumpster = {103U, 146U, 35U, 32U, TRAVERSABLE};
      000084 F8 05                  290 	ldhl	sp,#5
      000086 36 67                  291 	ld	(hl), #0x67
      000088 7D                     292 	ld	a, l
      000089 54                     293 	ld	d, h
      00008A F8 1B                  294 	ldhl	sp,	#27
      00008C 22                     295 	ld	(hl+), a
      00008D 7A                     296 	ld	a, d
      00008E 32                     297 	ld	(hl-), a
      00008F 2A                     298 	ld	a, (hl+)
      000090 5F                     299 	ld	e, a
      000091 3A                     300 	ld	a, (hl-)
      000092 57                     301 	ld	d, a
      000093 13                     302 	inc	de
      000094 3E 92                  303 	ld	a, #0x92
      000096 12                     304 	ld	(de), a
      000097 2A                     305 	ld	a, (hl+)
      000098 5F                     306 	ld	e, a
      000099 3A                     307 	ld	a, (hl-)
      00009A 57                     308 	ld	d, a
      00009B 13                     309 	inc	de
      00009C 13                     310 	inc	de
      00009D 3E 23                  311 	ld	a, #0x23
      00009F 12                     312 	ld	(de), a
      0000A0 2A                     313 	ld	a, (hl+)
      0000A1 5F                     314 	ld	e, a
      0000A2 3A                     315 	ld	a, (hl-)
      0000A3 57                     316 	ld	d, a
      0000A4 13                     317 	inc	de
      0000A5 13                     318 	inc	de
      0000A6 13                     319 	inc	de
      0000A7 3E 20                  320 	ld	a, #0x20
      0000A9 12                     321 	ld	(de), a
      0000AA 2A                     322 	ld	a, (hl+)
      0000AB 5F                     323 	ld	e, a
      0000AC 56                     324 	ld	d, (hl)
      0000AD 21 04 00               325 	ld	hl, #0x0004
      0000B0 19                     326 	add	hl, de
      0000B1 36 01                  327 	ld	(hl), #0x01
                           0000B3   328 	C$scene.c$133$2_0$131	= .
                                    329 	.globl	C$scene.c$133$2_0$131
                                    330 ;src/scene.c:133: rect vending_machine = {132U, 146U, 32U, 49U, SOLID};
      0000B3 F8 0A                  331 	ldhl	sp,#10
      0000B5 36 84                  332 	ld	(hl), #0x84
      0000B7 7D                     333 	ld	a, l
      0000B8 54                     334 	ld	d, h
      0000B9 F8 1D                  335 	ldhl	sp,	#29
      0000BB 22                     336 	ld	(hl+), a
      0000BC 7A                     337 	ld	a, d
      0000BD 32                     338 	ld	(hl-), a
      0000BE 2A                     339 	ld	a, (hl+)
      0000BF 5F                     340 	ld	e, a
      0000C0 3A                     341 	ld	a, (hl-)
      0000C1 57                     342 	ld	d, a
      0000C2 13                     343 	inc	de
      0000C3 3E 92                  344 	ld	a, #0x92
      0000C5 12                     345 	ld	(de), a
      0000C6 2A                     346 	ld	a, (hl+)
      0000C7 5F                     347 	ld	e, a
      0000C8 3A                     348 	ld	a, (hl-)
      0000C9 57                     349 	ld	d, a
      0000CA 13                     350 	inc	de
      0000CB 13                     351 	inc	de
      0000CC 3E 20                  352 	ld	a, #0x20
      0000CE 12                     353 	ld	(de), a
      0000CF 2A                     354 	ld	a, (hl+)
      0000D0 5F                     355 	ld	e, a
      0000D1 3A                     356 	ld	a, (hl-)
      0000D2 57                     357 	ld	d, a
      0000D3 13                     358 	inc	de
      0000D4 13                     359 	inc	de
      0000D5 13                     360 	inc	de
      0000D6 3E 31                  361 	ld	a, #0x31
      0000D8 12                     362 	ld	(de), a
      0000D9 2A                     363 	ld	a, (hl+)
      0000DA 5F                     364 	ld	e, a
      0000DB 56                     365 	ld	d, (hl)
      0000DC 21 04 00               366 	ld	hl, #0x0004
      0000DF 19                     367 	add	hl, de
      0000E0 5D                     368 	ld	e, l
      0000E1 54                     369 	ld	d, h
      0000E2 AF                     370 	xor	a, a
      0000E3 12                     371 	ld	(de), a
                           0000E4   372 	C$scene.c$134$2_0$131	= .
                                    373 	.globl	C$scene.c$134$2_0$131
                                    374 ;src/scene.c:134: rect ledge = {12U, 88U, 0x98, 19U, INIT_FLAG}; //prev 154
      0000E4 F8 0F                  375 	ldhl	sp,#15
      0000E6 36 0C                  376 	ld	(hl), #0x0c
      0000E8 7D                     377 	ld	a, l
      0000E9 54                     378 	ld	d, h
      0000EA F8 1F                  379 	ldhl	sp,	#31
      0000EC 22                     380 	ld	(hl+), a
      0000ED 7A                     381 	ld	a, d
      0000EE 32                     382 	ld	(hl-), a
      0000EF 2A                     383 	ld	a, (hl+)
      0000F0 5F                     384 	ld	e, a
      0000F1 3A                     385 	ld	a, (hl-)
      0000F2 57                     386 	ld	d, a
      0000F3 13                     387 	inc	de
      0000F4 3E 58                  388 	ld	a, #0x58
      0000F6 12                     389 	ld	(de), a
      0000F7 2A                     390 	ld	a, (hl+)
      0000F8 5F                     391 	ld	e, a
      0000F9 3A                     392 	ld	a, (hl-)
      0000FA 57                     393 	ld	d, a
      0000FB 13                     394 	inc	de
      0000FC 13                     395 	inc	de
      0000FD 3E 98                  396 	ld	a, #0x98
      0000FF 12                     397 	ld	(de), a
      000100 2A                     398 	ld	a, (hl+)
      000101 5F                     399 	ld	e, a
      000102 3A                     400 	ld	a, (hl-)
      000103 57                     401 	ld	d, a
      000104 13                     402 	inc	de
      000105 13                     403 	inc	de
      000106 13                     404 	inc	de
      000107 3E 13                  405 	ld	a, #0x13
      000109 12                     406 	ld	(de), a
      00010A 2A                     407 	ld	a, (hl+)
      00010B 5F                     408 	ld	e, a
      00010C 56                     409 	ld	d, (hl)
      00010D 21 04 00               410 	ld	hl, #0x0004
      000110 19                     411 	add	hl, de
      000111 36 06                  412 	ld	(hl), #0x06
                           000113   413 	C$scene.c$136$1_1$131	= .
                                    414 	.globl	C$scene.c$136$1_1$131
                                    415 ;src/scene.c:136: next_assignable_rect_index = 0U;
      000113 21rD4r00               416 	ld	hl, #_next_assignable_rect_index
      000116 36 00                  417 	ld	(hl), #0x00
                           000118   418 	C$scene.c$138$1_2$132	= .
                                    419 	.globl	C$scene.c$138$1_2$132
                                    420 ;src/scene.c:138: empty_window_status.components = 0x00;
      000118 F8 14                  421 	ldhl	sp,	#20
      00011A 5D                     422 	ld	e, l
      00011B 54                     423 	ld	d, h
      00011C AF                     424 	xor	a, a
      00011D 12                     425 	ld	(de), a
                           00011E   426 	C$scene.c$139$1_2$132	= .
                                    427 	.globl	C$scene.c$139$1_2$132
                                    428 ;src/scene.c:139: empty_window_status.status = 0x00;
      00011E F8 14                  429 	ldhl	sp,	#20
                                    430 ;	spillPairReg hl
                                    431 ;	spillPairReg hl
      000120 5D                     432 	ld	e,l
      000121 54                     433 	ld	d,h
                                    434 ;	spillPairReg hl
                                    435 ;	spillPairReg hl
      000122 23                     436 	inc	hl
      000123 36 00                  437 	ld	(hl), #0x00
                           000125   438 	C$scene.c$140$2_2$133	= .
                                    439 	.globl	C$scene.c$140$2_2$133
                                    440 ;src/scene.c:140: for (i = 0; i < 4; i++)
      000125 21r01r00               441 	ld	hl, #_i
      000128 36 00                  442 	ld	(hl), #0x00
      00012A F8 21                  443 	ldhl	sp,	#33
      00012C 7B                     444 	ld	a, e
      00012D 22                     445 	ld	(hl+), a
      00012E 7A                     446 	ld	a, d
      00012F 22                     447 	ld	(hl+), a
      000130 7B                     448 	ld	a, e
      000131 22                     449 	ld	(hl+), a
      000132 7A                     450 	ld	a, d
      000133 22                     451 	ld	(hl+), a
      000134 7B                     452 	ld	a, e
      000135 22                     453 	ld	(hl+), a
      000136 7A                     454 	ld	a, d
      000137 22                     455 	ld	(hl+), a
      000138 7B                     456 	ld	a, e
      000139 22                     457 	ld	(hl+), a
      00013A 72                     458 	ld	(hl), d
      00013B                        459 00111$:
                           00013B   460 	C$scene.c$143$3_2$134	= .
                                    461 	.globl	C$scene.c$143$3_2$134
                                    462 ;src/scene.c:143: collider = top_info[1].collider;
      00013B F8 16                  463 	ldhl	sp,	#22
      00013D 7D                     464 	ld	a, l
      00013E 54                     465 	ld	d, h
      00013F F8 29                  466 	ldhl	sp,	#41
      000141 22                     467 	ld	(hl+), a
      000142 7A                     468 	ld	a, d
      000143 32                     469 	ld	(hl-), a
      000144 2A                     470 	ld	a, (hl+)
      000145 5F                     471 	ld	e, a
      000146 56                     472 	ld	d, (hl)
      000147 C5                     473 	push	bc
      000148 21 05 00               474 	ld	hl, #0x0005
      00014B E5                     475 	push	hl
      00014C 21r68r05               476 	ld	hl, #(_top_info + 13)
      00014F E5                     477 	push	hl
      000150 D5                     478 	push	de
      000151 CDr00r00               479 	call	___memcpy
      000154 E8 06                  480 	add	sp, #6
      000156 C1                     481 	pop	bc
                           000157   482 	C$scene.c$144$3_2$134	= .
                                    483 	.globl	C$scene.c$144$3_2$134
                                    484 ;src/scene.c:144: collider.x += (3 + (i<<2)) << 3;
      000157 F8 29                  485 	ldhl	sp,#41
      000159 2A                     486 	ld	a, (hl+)
      00015A 5F                     487 	ld	e, a
      00015B 56                     488 	ld	d, (hl)
      00015C 1A                     489 	ld	a, (de)
      00015D 6F                     490 	ld	l, a
                                    491 ;	spillPairReg hl
                                    492 ;	spillPairReg hl
      00015E FAr01r00               493 	ld	a, (_i)
                                    494 ;	spillPairReg hl
                                    495 ;	spillPairReg hl
      000161 87                     496 	add	a, a
      000162 87                     497 	add	a, a
      000163 C6 03                  498 	add	a, #0x03
      000165 87                     499 	add	a, a
      000166 87                     500 	add	a, a
      000167 87                     501 	add	a, a
      000168 85                     502 	add	a, l
      000169 F8 29                  503 	ldhl	sp,	#41
      00016B F5                     504 	push	af
      00016C 2A                     505 	ld	a,	(hl+)
      00016D 66                     506 	ld	h, (hl)
      00016E 6F                     507 	ld	l, a
      00016F F1                     508 	pop	af
      000170 77                     509 	ld	(hl), a
                           000171   510 	C$scene.c$145$3_2$134	= .
                                    511 	.globl	C$scene.c$145$3_2$134
                                    512 ;src/scene.c:145: collider.y += 8;
      000171 F8 29                  513 	ldhl	sp,#41
      000173 2A                     514 	ld	a, (hl+)
      000174 5F                     515 	ld	e, a
      000175 56                     516 	ld	d, (hl)
      000176 6B                     517 	ld	l, e
      000177 62                     518 	ld	h, d
      000178 23                     519 	inc	hl
      000179 E5                     520 	push	hl
      00017A 7D                     521 	ld	a, l
      00017B F8 2D                  522 	ldhl	sp,	#45
      00017D 77                     523 	ld	(hl), a
      00017E E1                     524 	pop	hl
      00017F 7C                     525 	ld	a, h
      000180 F8 2C                  526 	ldhl	sp,	#44
      000182 32                     527 	ld	(hl-), a
      000183 2A                     528 	ld	a, (hl+)
      000184 5F                     529 	ld	e, a
      000185 3A                     530 	ld	a, (hl-)
      000186 57                     531 	ld	d, a
      000187 1A                     532 	ld	a, (de)
      000188 C6 08                  533 	add	a, #0x08
      00018A F5                     534 	push	af
      00018B 2A                     535 	ld	a,	(hl+)
      00018C 66                     536 	ld	h, (hl)
      00018D 6F                     537 	ld	l, a
      00018E F1                     538 	pop	af
      00018F 77                     539 	ld	(hl), a
                           000190   540 	C$scene.c$146$3_2$134	= .
                                    541 	.globl	C$scene.c$146$3_2$134
                                    542 ;src/scene.c:146: rect_list[0][0x07 & (i<<1 | 0x01)] = collider;
      000190 F8 29                  543 	ldhl	sp,	#41
      000192 2A                     544 	ld	a, (hl+)
      000193 5E                     545 	ld	e, (hl)
      000194 F8 2D                  546 	ldhl	sp,	#45
      000196 22                     547 	ld	(hl+), a
      000197 73                     548 	ld	(hl), e
      000198 FAr01r00               549 	ld	a, (#_i)
      00019B 87                     550 	add	a, a
      00019C CB C7                  551 	set	0, a
      00019E E6 07                  552 	and	a, #0x07
      0001A0 6F                     553 	ld	l, a
                                    554 ;	spillPairReg hl
                                    555 ;	spillPairReg hl
      0001A1 26 00                  556 	ld	h, #0x00
                                    557 ;	spillPairReg hl
                                    558 ;	spillPairReg hl
      0001A3 5D                     559 	ld	e, l
      0001A4 54                     560 	ld	d, h
      0001A5 29                     561 	add	hl, hl
      0001A6 29                     562 	add	hl, hl
      0001A7 19                     563 	add	hl, de
      0001A8 11r14r00               564 	ld	de, #_rect_list
      0001AB 19                     565 	add	hl, de
      0001AC 5D                     566 	ld	e, l
      0001AD 54                     567 	ld	d, h
      0001AE C5                     568 	push	bc
      0001AF 21 05 00               569 	ld	hl, #0x0005
      0001B2 E5                     570 	push	hl
      0001B3 F8 31                  571 	ldhl	sp,	#49
      0001B5 2A                     572 	ld	a, (hl+)
      0001B6 66                     573 	ld	h, (hl)
                                    574 ;	spillPairReg hl
                                    575 ;	spillPairReg hl
      0001B7 6F                     576 	ld	l, a
                                    577 ;	spillPairReg hl
                                    578 ;	spillPairReg hl
      0001B8 E5                     579 	push	hl
      0001B9 D5                     580 	push	de
      0001BA CDr00r00               581 	call	___memcpy
      0001BD E8 06                  582 	add	sp, #6
      0001BF C1                     583 	pop	bc
                           0001C0   584 	C$scene.c$149$3_2$134	= .
                                    585 	.globl	C$scene.c$149$3_2$134
                                    586 ;src/scene.c:149: collider = bot_info[1].collider;
      0001C0 F8 29                  587 	ldhl	sp,	#41
      0001C2 2A                     588 	ld	a, (hl+)
      0001C3 5F                     589 	ld	e, a
      0001C4 56                     590 	ld	d, (hl)
      0001C5 C5                     591 	push	bc
      0001C6 21 05 00               592 	ld	hl, #0x0005
      0001C9 E5                     593 	push	hl
      0001CA 21r32r05               594 	ld	hl, #(_bot_info + 13)
      0001CD E5                     595 	push	hl
      0001CE D5                     596 	push	de
      0001CF CDr00r00               597 	call	___memcpy
      0001D2 E8 06                  598 	add	sp, #6
      0001D4 C1                     599 	pop	bc
                           0001D5   600 	C$scene.c$150$3_2$134	= .
                                    601 	.globl	C$scene.c$150$3_2$134
                                    602 ;src/scene.c:150: collider.x += (3 + (i<<2)) << 3;
      0001D5 F8 29                  603 	ldhl	sp,#41
      0001D7 2A                     604 	ld	a, (hl+)
      0001D8 5F                     605 	ld	e, a
      0001D9 56                     606 	ld	d, (hl)
      0001DA 1A                     607 	ld	a, (de)
      0001DB 6F                     608 	ld	l, a
                                    609 ;	spillPairReg hl
                                    610 ;	spillPairReg hl
      0001DC FAr01r00               611 	ld	a, (_i)
                                    612 ;	spillPairReg hl
                                    613 ;	spillPairReg hl
      0001DF 87                     614 	add	a, a
      0001E0 87                     615 	add	a, a
      0001E1 C6 03                  616 	add	a, #0x03
      0001E3 87                     617 	add	a, a
      0001E4 87                     618 	add	a, a
      0001E5 87                     619 	add	a, a
      0001E6 85                     620 	add	a, l
      0001E7 F8 29                  621 	ldhl	sp,	#41
      0001E9 F5                     622 	push	af
      0001EA 2A                     623 	ld	a,	(hl+)
      0001EB 66                     624 	ld	h, (hl)
      0001EC 6F                     625 	ld	l, a
      0001ED F1                     626 	pop	af
      0001EE 77                     627 	ld	(hl), a
                           0001EF   628 	C$scene.c$151$3_2$134	= .
                                    629 	.globl	C$scene.c$151$3_2$134
                                    630 ;src/scene.c:151: collider.y += 8;
      0001EF F8 2B                  631 	ldhl	sp,#43
      0001F1 2A                     632 	ld	a, (hl+)
      0001F2 5F                     633 	ld	e, a
      0001F3 3A                     634 	ld	a, (hl-)
      0001F4 57                     635 	ld	d, a
      0001F5 1A                     636 	ld	a, (de)
      0001F6 C6 08                  637 	add	a, #0x08
      0001F8 F5                     638 	push	af
      0001F9 2A                     639 	ld	a,	(hl+)
      0001FA 66                     640 	ld	h, (hl)
      0001FB 6F                     641 	ld	l, a
      0001FC F1                     642 	pop	af
      0001FD 77                     643 	ld	(hl), a
                           0001FE   644 	C$scene.c$152$3_2$134	= .
                                    645 	.globl	C$scene.c$152$3_2$134
                                    646 ;src/scene.c:152: rect_list[0][0x07 & (i<<1)] = collider;
      0001FE F8 29                  647 	ldhl	sp,	#41
      000200 2A                     648 	ld	a, (hl+)
      000201 5E                     649 	ld	e, (hl)
      000202 F8 2D                  650 	ldhl	sp,	#45
      000204 22                     651 	ld	(hl+), a
      000205 73                     652 	ld	(hl), e
      000206 FAr01r00               653 	ld	a, (#_i)
      000209 87                     654 	add	a, a
      00020A 5F                     655 	ld	e, a
      00020B 07                     656 	rlca
      00020C 7B                     657 	ld	a, e
      00020D E6 07                  658 	and	a, #0x07
      00020F 6F                     659 	ld	l, a
                                    660 ;	spillPairReg hl
                                    661 ;	spillPairReg hl
      000210 26 00                  662 	ld	h, #0x00
                                    663 ;	spillPairReg hl
                                    664 ;	spillPairReg hl
      000212 5D                     665 	ld	e, l
      000213 54                     666 	ld	d, h
      000214 29                     667 	add	hl, hl
      000215 29                     668 	add	hl, hl
      000216 19                     669 	add	hl, de
      000217 11r14r00               670 	ld	de, #_rect_list
      00021A 19                     671 	add	hl, de
      00021B 5D                     672 	ld	e, l
      00021C 54                     673 	ld	d, h
      00021D C5                     674 	push	bc
      00021E 21 05 00               675 	ld	hl, #0x0005
      000221 E5                     676 	push	hl
      000222 F8 31                  677 	ldhl	sp,	#49
      000224 2A                     678 	ld	a, (hl+)
      000225 66                     679 	ld	h, (hl)
                                    680 ;	spillPairReg hl
                                    681 ;	spillPairReg hl
      000226 6F                     682 	ld	l, a
                                    683 ;	spillPairReg hl
                                    684 ;	spillPairReg hl
      000227 E5                     685 	push	hl
      000228 D5                     686 	push	de
      000229 CDr00r00               687 	call	___memcpy
      00022C E8 06                  688 	add	sp, #6
      00022E C1                     689 	pop	bc
                           00022F   690 	C$scene.c$155$3_2$134	= .
                                    691 	.globl	C$scene.c$155$3_2$134
                                    692 ;src/scene.c:155: map_components[i][0] = empty_window_status;
      00022F F8 21                  693 	ldhl	sp,	#33
      000231 2A                     694 	ld	a, (hl+)
      000232 5F                     695 	ld	e, a
      000233 56                     696 	ld	d, (hl)
      000234 21r01r00               697 	ld	hl, #_i
      000237 6E                     698 	ld	l, (hl)
                                    699 ;	spillPairReg hl
                                    700 ;	spillPairReg hl
      000238 26 00                  701 	ld	h, #0x00
                                    702 ;	spillPairReg hl
                                    703 ;	spillPairReg hl
      00023A 29                     704 	add	hl, hl
      00023B 29                     705 	add	hl, hl
      00023C 29                     706 	add	hl, hl
      00023D D5                     707 	push	de
      00023E 11rB4r00               708 	ld	de, #_map_components
      000241 19                     709 	add	hl, de
      000242 D1                     710 	pop	de
      000243 C5                     711 	push	bc
      000244 01 02 00               712 	ld	bc, #0x02
      000247 C5                     713 	push	bc
      000248 D5                     714 	push	de
      000249 E5                     715 	push	hl
      00024A CDr00r00               716 	call	___memcpy
      00024D E8 06                  717 	add	sp, #6
      00024F C1                     718 	pop	bc
                           000250   719 	C$scene.c$156$3_2$134	= .
                                    720 	.globl	C$scene.c$156$3_2$134
                                    721 ;src/scene.c:156: map_components[i][1] = empty_window_status;
      000250 F8 23                  722 	ldhl	sp,	#35
      000252 2A                     723 	ld	a, (hl+)
      000253 5F                     724 	ld	e, a
      000254 56                     725 	ld	d, (hl)
      000255 21r01r00               726 	ld	hl, #_i
      000258 6E                     727 	ld	l, (hl)
                                    728 ;	spillPairReg hl
                                    729 ;	spillPairReg hl
      000259 26 00                  730 	ld	h, #0x00
                                    731 ;	spillPairReg hl
                                    732 ;	spillPairReg hl
      00025B 29                     733 	add	hl, hl
      00025C 29                     734 	add	hl, hl
      00025D 29                     735 	add	hl, hl
      00025E D5                     736 	push	de
      00025F 11rB4r00               737 	ld	de, #_map_components
      000262 19                     738 	add	hl, de
      000263 23                     739 	inc	hl
      000264 23                     740 	inc	hl
      000265 D1                     741 	pop	de
      000266 C5                     742 	push	bc
      000267 01 02 00               743 	ld	bc, #0x02
      00026A C5                     744 	push	bc
      00026B D5                     745 	push	de
      00026C E5                     746 	push	hl
      00026D CDr00r00               747 	call	___memcpy
      000270 E8 06                  748 	add	sp, #6
      000272 C1                     749 	pop	bc
                           000273   750 	C$scene.c$157$3_2$134	= .
                                    751 	.globl	C$scene.c$157$3_2$134
                                    752 ;src/scene.c:157: map_components[i][2] = empty_window_status;
      000273 F8 25                  753 	ldhl	sp,	#37
      000275 2A                     754 	ld	a, (hl+)
      000276 5F                     755 	ld	e, a
      000277 56                     756 	ld	d, (hl)
      000278 21r01r00               757 	ld	hl, #_i
      00027B 6E                     758 	ld	l, (hl)
                                    759 ;	spillPairReg hl
                                    760 ;	spillPairReg hl
      00027C 26 00                  761 	ld	h, #0x00
                                    762 ;	spillPairReg hl
                                    763 ;	spillPairReg hl
      00027E 29                     764 	add	hl, hl
      00027F 29                     765 	add	hl, hl
      000280 29                     766 	add	hl, hl
      000281 D5                     767 	push	de
      000282 11rB4r00               768 	ld	de, #_map_components
      000285 19                     769 	add	hl, de
      000286 23                     770 	inc	hl
      000287 23                     771 	inc	hl
      000288 23                     772 	inc	hl
      000289 23                     773 	inc	hl
      00028A D1                     774 	pop	de
      00028B C5                     775 	push	bc
      00028C 01 02 00               776 	ld	bc, #0x02
      00028F C5                     777 	push	bc
      000290 D5                     778 	push	de
      000291 E5                     779 	push	hl
      000292 CDr00r00               780 	call	___memcpy
      000295 E8 06                  781 	add	sp, #6
      000297 C1                     782 	pop	bc
                           000298   783 	C$scene.c$158$3_2$134	= .
                                    784 	.globl	C$scene.c$158$3_2$134
                                    785 ;src/scene.c:158: map_components[i][3] = empty_window_status;
      000298 F8 27                  786 	ldhl	sp,	#39
      00029A 2A                     787 	ld	a, (hl+)
      00029B 5F                     788 	ld	e, a
      00029C 56                     789 	ld	d, (hl)
      00029D 21r01r00               790 	ld	hl, #_i
      0002A0 6E                     791 	ld	l, (hl)
                                    792 ;	spillPairReg hl
                                    793 ;	spillPairReg hl
      0002A1 26 00                  794 	ld	h, #0x00
                                    795 ;	spillPairReg hl
                                    796 ;	spillPairReg hl
      0002A3 29                     797 	add	hl, hl
      0002A4 29                     798 	add	hl, hl
      0002A5 29                     799 	add	hl, hl
      0002A6 D5                     800 	push	de
      0002A7 11rB4r00               801 	ld	de, #_map_components
      0002AA 19                     802 	add	hl, de
      0002AB 11 06 00               803 	ld	de, #0x0006
      0002AE 19                     804 	add	hl, de
      0002AF D1                     805 	pop	de
      0002B0 C5                     806 	push	bc
      0002B1 01 02 00               807 	ld	bc, #0x02
      0002B4 C5                     808 	push	bc
      0002B5 D5                     809 	push	de
      0002B6 E5                     810 	push	hl
      0002B7 CDr00r00               811 	call	___memcpy
      0002BA E8 06                  812 	add	sp, #6
      0002BC C1                     813 	pop	bc
                           0002BD   814 	C$scene.c$140$2_2$133	= .
                                    815 	.globl	C$scene.c$140$2_2$133
                                    816 ;src/scene.c:140: for (i = 0; i < 4; i++)
      0002BD 21r01r00               817 	ld	hl, #_i
      0002C0 34                     818 	inc	(hl)
      0002C1 7E                     819 	ld	a, (hl)
      0002C2 D6 04                  820 	sub	a, #0x04
      0002C4 DAr3Br01               821 	jp	C, 00111$
                           0002C7   822 	C$scene.c$162$1_2$132	= .
                                    823 	.globl	C$scene.c$162$1_2$132
                                    824 ;src/scene.c:162: rect_list[1][0x00] = ledge;
      0002C7 F8 1F                  825 	ldhl	sp,	#31
      0002C9 2A                     826 	ld	a, (hl+)
      0002CA 5F                     827 	ld	e, a
      0002CB 56                     828 	ld	d, (hl)
      0002CC C5                     829 	push	bc
      0002CD 21 05 00               830 	ld	hl, #0x0005
      0002D0 E5                     831 	push	hl
      0002D1 D5                     832 	push	de
      0002D2 11r3Cr00               833 	ld	de, #(_rect_list + 40)
      0002D5 D5                     834 	push	de
      0002D6 CDr00r00               835 	call	___memcpy
      0002D9 E8 06                  836 	add	sp, #6
      0002DB C1                     837 	pop	bc
                           0002DC   838 	C$scene.c$163$1_2$132	= .
                                    839 	.globl	C$scene.c$163$1_2$132
                                    840 ;src/scene.c:163: rect_list[1][0x01] = dumpster;
      0002DC F8 1B                  841 	ldhl	sp,	#27
      0002DE 2A                     842 	ld	a, (hl+)
      0002DF 5F                     843 	ld	e, a
      0002E0 56                     844 	ld	d, (hl)
      0002E1 C5                     845 	push	bc
      0002E2 21 05 00               846 	ld	hl, #0x0005
      0002E5 E5                     847 	push	hl
      0002E6 D5                     848 	push	de
      0002E7 11r41r00               849 	ld	de, #(_rect_list + 45)
      0002EA D5                     850 	push	de
      0002EB CDr00r00               851 	call	___memcpy
      0002EE E8 06                  852 	add	sp, #6
      0002F0 C1                     853 	pop	bc
                           0002F1   854 	C$scene.c$164$1_2$132	= .
                                    855 	.globl	C$scene.c$164$1_2$132
                                    856 ;src/scene.c:164: rect_list[1][0x02] = vending_machine;
      0002F1 F8 1D                  857 	ldhl	sp,	#29
      0002F3 2A                     858 	ld	a, (hl+)
      0002F4 5F                     859 	ld	e, a
      0002F5 56                     860 	ld	d, (hl)
      0002F6 C5                     861 	push	bc
      0002F7 21 05 00               862 	ld	hl, #0x0005
      0002FA E5                     863 	push	hl
      0002FB D5                     864 	push	de
      0002FC 11r46r00               865 	ld	de, #(_rect_list + 50)
      0002FF D5                     866 	push	de
      000300 CDr00r00               867 	call	___memcpy
      000303 E8 06                  868 	add	sp, #6
      000305 C1                     869 	pop	bc
                           000306   870 	C$scene.c$165$1_2$132	= .
                                    871 	.globl	C$scene.c$165$1_2$132
                                    872 ;src/scene.c:165: rect_list[1][0x03] = ground;
      000306 59                     873 	ld	e, c
      000307 50                     874 	ld	d, b
      000308 C5                     875 	push	bc
      000309 21 05 00               876 	ld	hl, #0x0005
      00030C E5                     877 	push	hl
      00030D D5                     878 	push	de
      00030E 11r4Br00               879 	ld	de, #(_rect_list + 55)
      000311 D5                     880 	push	de
      000312 CDr00r00               881 	call	___memcpy
      000315 E8 06                  882 	add	sp, #6
      000317 C1                     883 	pop	bc
                           000318   884 	C$scene.c$166$1_2$132	= .
                                    885 	.globl	C$scene.c$166$1_2$132
                                    886 ;src/scene.c:166: rect_list[1][0x04] = ground;
      000318 59                     887 	ld	e, c
      000319 50                     888 	ld	d, b
      00031A C5                     889 	push	bc
      00031B 21 05 00               890 	ld	hl, #0x0005
      00031E E5                     891 	push	hl
      00031F D5                     892 	push	de
      000320 11r50r00               893 	ld	de, #(_rect_list + 60)
      000323 D5                     894 	push	de
      000324 CDr00r00               895 	call	___memcpy
      000327 E8 06                  896 	add	sp, #6
      000329 C1                     897 	pop	bc
                           00032A   898 	C$scene.c$167$1_2$132	= .
                                    899 	.globl	C$scene.c$167$1_2$132
                                    900 ;src/scene.c:167: rect_list[1][0x05] = ground;
      00032A 59                     901 	ld	e, c
      00032B 50                     902 	ld	d, b
      00032C C5                     903 	push	bc
      00032D 21 05 00               904 	ld	hl, #0x0005
      000330 E5                     905 	push	hl
      000331 D5                     906 	push	de
      000332 11r55r00               907 	ld	de, #(_rect_list + 65)
      000335 D5                     908 	push	de
      000336 CDr00r00               909 	call	___memcpy
      000339 E8 06                  910 	add	sp, #6
      00033B C1                     911 	pop	bc
                           00033C   912 	C$scene.c$168$1_2$132	= .
                                    913 	.globl	C$scene.c$168$1_2$132
                                    914 ;src/scene.c:168: rect_list[1][0x06] = ground;
      00033C 59                     915 	ld	e, c
      00033D 50                     916 	ld	d, b
      00033E C5                     917 	push	bc
      00033F 21 05 00               918 	ld	hl, #0x0005
      000342 E5                     919 	push	hl
      000343 D5                     920 	push	de
      000344 11r5Ar00               921 	ld	de, #(_rect_list + 70)
      000347 D5                     922 	push	de
      000348 CDr00r00               923 	call	___memcpy
      00034B E8 06                  924 	add	sp, #6
      00034D C1                     925 	pop	bc
                           00034E   926 	C$scene.c$169$1_2$132	= .
                                    927 	.globl	C$scene.c$169$1_2$132
                                    928 ;src/scene.c:169: rect_list[1][0x07] = ground;
      00034E 59                     929 	ld	e, c
      00034F 50                     930 	ld	d, b
      000350 C5                     931 	push	bc
      000351 21 05 00               932 	ld	hl, #0x0005
      000354 E5                     933 	push	hl
      000355 D5                     934 	push	de
      000356 11r5Fr00               935 	ld	de, #(_rect_list + 75)
      000359 D5                     936 	push	de
      00035A CDr00r00               937 	call	___memcpy
      00035D E8 06                  938 	add	sp, #6
      00035F C1                     939 	pop	bc
                           000360   940 	C$scene.c$171$1_2$132	= .
                                    941 	.globl	C$scene.c$171$1_2$132
                                    942 ;src/scene.c:171: rect_list[2][0x00] = ground;
      000360 59                     943 	ld	e, c
      000361 50                     944 	ld	d, b
      000362 C5                     945 	push	bc
      000363 21 05 00               946 	ld	hl, #0x0005
      000366 E5                     947 	push	hl
      000367 D5                     948 	push	de
      000368 11r64r00               949 	ld	de, #(_rect_list + 80)
      00036B D5                     950 	push	de
      00036C CDr00r00               951 	call	___memcpy
      00036F E8 06                  952 	add	sp, #6
      000371 C1                     953 	pop	bc
                           000372   954 	C$scene.c$172$1_2$132	= .
                                    955 	.globl	C$scene.c$172$1_2$132
                                    956 ;src/scene.c:172: rect_list[2][0x01] = vending_machine;
      000372 F8 1D                  957 	ldhl	sp,	#29
      000374 2A                     958 	ld	a, (hl+)
      000375 5F                     959 	ld	e, a
      000376 56                     960 	ld	d, (hl)
      000377 C5                     961 	push	bc
      000378 21 05 00               962 	ld	hl, #0x0005
      00037B E5                     963 	push	hl
      00037C D5                     964 	push	de
      00037D 11r69r00               965 	ld	de, #(_rect_list + 85)
      000380 D5                     966 	push	de
      000381 CDr00r00               967 	call	___memcpy
      000384 E8 06                  968 	add	sp, #6
      000386 C1                     969 	pop	bc
                           000387   970 	C$scene.c$173$1_2$132	= .
                                    971 	.globl	C$scene.c$173$1_2$132
                                    972 ;src/scene.c:173: rect_list[2][0x02] = ground;
      000387 59                     973 	ld	e, c
      000388 50                     974 	ld	d, b
      000389 C5                     975 	push	bc
      00038A 21 05 00               976 	ld	hl, #0x0005
      00038D E5                     977 	push	hl
      00038E D5                     978 	push	de
      00038F 11r6Er00               979 	ld	de, #(_rect_list + 90)
      000392 D5                     980 	push	de
      000393 CDr00r00               981 	call	___memcpy
      000396 E8 06                  982 	add	sp, #6
      000398 C1                     983 	pop	bc
                           000399   984 	C$scene.c$174$1_2$132	= .
                                    985 	.globl	C$scene.c$174$1_2$132
                                    986 ;src/scene.c:174: rect_list[2][0x03] = ground;
      000399 59                     987 	ld	e, c
      00039A 50                     988 	ld	d, b
      00039B C5                     989 	push	bc
      00039C 21 05 00               990 	ld	hl, #0x0005
      00039F E5                     991 	push	hl
      0003A0 D5                     992 	push	de
      0003A1 11r73r00               993 	ld	de, #(_rect_list + 95)
      0003A4 D5                     994 	push	de
      0003A5 CDr00r00               995 	call	___memcpy
      0003A8 E8 06                  996 	add	sp, #6
      0003AA C1                     997 	pop	bc
                           0003AB   998 	C$scene.c$175$1_2$132	= .
                                    999 	.globl	C$scene.c$175$1_2$132
                                   1000 ;src/scene.c:175: rect_list[2][0x04] = ground;
      0003AB 59                    1001 	ld	e, c
      0003AC 50                    1002 	ld	d, b
      0003AD C5                    1003 	push	bc
      0003AE 21 05 00              1004 	ld	hl, #0x0005
      0003B1 E5                    1005 	push	hl
      0003B2 D5                    1006 	push	de
      0003B3 11r78r00              1007 	ld	de, #(_rect_list + 100)
      0003B6 D5                    1008 	push	de
      0003B7 CDr00r00              1009 	call	___memcpy
      0003BA E8 06                 1010 	add	sp, #6
      0003BC C1                    1011 	pop	bc
                           0003BD  1012 	C$scene.c$176$1_2$132	= .
                                   1013 	.globl	C$scene.c$176$1_2$132
                                   1014 ;src/scene.c:176: rect_list[2][0x05] = ground;
      0003BD 59                    1015 	ld	e, c
      0003BE 50                    1016 	ld	d, b
      0003BF C5                    1017 	push	bc
      0003C0 21 05 00              1018 	ld	hl, #0x0005
      0003C3 E5                    1019 	push	hl
      0003C4 D5                    1020 	push	de
      0003C5 11r7Dr00              1021 	ld	de, #(_rect_list + 105)
      0003C8 D5                    1022 	push	de
      0003C9 CDr00r00              1023 	call	___memcpy
      0003CC E8 06                 1024 	add	sp, #6
      0003CE C1                    1025 	pop	bc
                           0003CF  1026 	C$scene.c$177$1_2$132	= .
                                   1027 	.globl	C$scene.c$177$1_2$132
                                   1028 ;src/scene.c:177: rect_list[2][0x06] = ground;
      0003CF 59                    1029 	ld	e, c
      0003D0 50                    1030 	ld	d, b
      0003D1 C5                    1031 	push	bc
      0003D2 21 05 00              1032 	ld	hl, #0x0005
      0003D5 E5                    1033 	push	hl
      0003D6 D5                    1034 	push	de
      0003D7 11r82r00              1035 	ld	de, #(_rect_list + 110)
      0003DA D5                    1036 	push	de
      0003DB CDr00r00              1037 	call	___memcpy
      0003DE E8 06                 1038 	add	sp, #6
      0003E0 C1                    1039 	pop	bc
                           0003E1  1040 	C$scene.c$178$1_2$132	= .
                                   1041 	.globl	C$scene.c$178$1_2$132
                                   1042 ;src/scene.c:178: rect_list[2][0x07] = ground;
      0003E1 59                    1043 	ld	e, c
      0003E2 50                    1044 	ld	d, b
      0003E3 C5                    1045 	push	bc
      0003E4 21 05 00              1046 	ld	hl, #0x0005
      0003E7 E5                    1047 	push	hl
      0003E8 D5                    1048 	push	de
      0003E9 11r87r00              1049 	ld	de, #(_rect_list + 115)
      0003EC D5                    1050 	push	de
      0003ED CDr00r00              1051 	call	___memcpy
      0003F0 E8 06                 1052 	add	sp, #6
      0003F2 C1                    1053 	pop	bc
                           0003F3  1054 	C$scene.c$180$1_2$132	= .
                                   1055 	.globl	C$scene.c$180$1_2$132
                                   1056 ;src/scene.c:180: rect_list[3][0x00] = ground;
      0003F3 59                    1057 	ld	e, c
      0003F4 50                    1058 	ld	d, b
      0003F5 C5                    1059 	push	bc
      0003F6 21 05 00              1060 	ld	hl, #0x0005
      0003F9 E5                    1061 	push	hl
      0003FA D5                    1062 	push	de
      0003FB 11r8Cr00              1063 	ld	de, #(_rect_list + 120)
      0003FE D5                    1064 	push	de
      0003FF CDr00r00              1065 	call	___memcpy
      000402 E8 06                 1066 	add	sp, #6
      000404 C1                    1067 	pop	bc
                           000405  1068 	C$scene.c$181$1_2$132	= .
                                   1069 	.globl	C$scene.c$181$1_2$132
                                   1070 ;src/scene.c:181: rect_list[3][0x01] = ground;
      000405 59                    1071 	ld	e, c
      000406 50                    1072 	ld	d, b
      000407 C5                    1073 	push	bc
      000408 21 05 00              1074 	ld	hl, #0x0005
      00040B E5                    1075 	push	hl
      00040C D5                    1076 	push	de
      00040D 11r91r00              1077 	ld	de, #(_rect_list + 125)
      000410 D5                    1078 	push	de
      000411 CDr00r00              1079 	call	___memcpy
      000414 E8 06                 1080 	add	sp, #6
      000416 C1                    1081 	pop	bc
                           000417  1082 	C$scene.c$182$1_2$132	= .
                                   1083 	.globl	C$scene.c$182$1_2$132
                                   1084 ;src/scene.c:182: rect_list[3][0x02] = ground;
      000417 59                    1085 	ld	e, c
      000418 50                    1086 	ld	d, b
      000419 C5                    1087 	push	bc
      00041A 21 05 00              1088 	ld	hl, #0x0005
      00041D E5                    1089 	push	hl
      00041E D5                    1090 	push	de
      00041F 11r96r00              1091 	ld	de, #(_rect_list + 130)
      000422 D5                    1092 	push	de
      000423 CDr00r00              1093 	call	___memcpy
      000426 E8 06                 1094 	add	sp, #6
      000428 C1                    1095 	pop	bc
                           000429  1096 	C$scene.c$183$1_2$132	= .
                                   1097 	.globl	C$scene.c$183$1_2$132
                                   1098 ;src/scene.c:183: rect_list[3][0x03] = ground;
      000429 59                    1099 	ld	e, c
      00042A 50                    1100 	ld	d, b
      00042B C5                    1101 	push	bc
      00042C 21 05 00              1102 	ld	hl, #0x0005
      00042F E5                    1103 	push	hl
      000430 D5                    1104 	push	de
      000431 11r9Br00              1105 	ld	de, #(_rect_list + 135)
      000434 D5                    1106 	push	de
      000435 CDr00r00              1107 	call	___memcpy
      000438 E8 06                 1108 	add	sp, #6
      00043A C1                    1109 	pop	bc
                           00043B  1110 	C$scene.c$184$1_2$132	= .
                                   1111 	.globl	C$scene.c$184$1_2$132
                                   1112 ;src/scene.c:184: rect_list[3][0x04] = ground;
      00043B 59                    1113 	ld	e, c
      00043C 50                    1114 	ld	d, b
      00043D C5                    1115 	push	bc
      00043E 21 05 00              1116 	ld	hl, #0x0005
      000441 E5                    1117 	push	hl
      000442 D5                    1118 	push	de
      000443 11rA0r00              1119 	ld	de, #(_rect_list + 140)
      000446 D5                    1120 	push	de
      000447 CDr00r00              1121 	call	___memcpy
      00044A E8 06                 1122 	add	sp, #6
      00044C C1                    1123 	pop	bc
                           00044D  1124 	C$scene.c$185$1_2$132	= .
                                   1125 	.globl	C$scene.c$185$1_2$132
                                   1126 ;src/scene.c:185: rect_list[3][0x05] = ground;
      00044D 59                    1127 	ld	e, c
      00044E 50                    1128 	ld	d, b
      00044F C5                    1129 	push	bc
      000450 21 05 00              1130 	ld	hl, #0x0005
      000453 E5                    1131 	push	hl
      000454 D5                    1132 	push	de
      000455 11rA5r00              1133 	ld	de, #(_rect_list + 145)
      000458 D5                    1134 	push	de
      000459 CDr00r00              1135 	call	___memcpy
      00045C E8 06                 1136 	add	sp, #6
      00045E C1                    1137 	pop	bc
                           00045F  1138 	C$scene.c$186$1_2$132	= .
                                   1139 	.globl	C$scene.c$186$1_2$132
                                   1140 ;src/scene.c:186: rect_list[3][0x06] = ground;
      00045F 59                    1141 	ld	e, c
      000460 50                    1142 	ld	d, b
      000461 C5                    1143 	push	bc
      000462 21 05 00              1144 	ld	hl, #0x0005
      000465 E5                    1145 	push	hl
      000466 D5                    1146 	push	de
      000467 11rAAr00              1147 	ld	de, #(_rect_list + 150)
      00046A D5                    1148 	push	de
      00046B CDr00r00              1149 	call	___memcpy
      00046E E8 06                 1150 	add	sp, #6
      000470 C1                    1151 	pop	bc
                           000471  1152 	C$scene.c$187$1_2$132	= .
                                   1153 	.globl	C$scene.c$187$1_2$132
                                   1154 ;src/scene.c:187: rect_list[3][0x07] = ground;
      000471 11 05 00              1155 	ld	de, #0x0005
      000474 D5                    1156 	push	de
      000475 C5                    1157 	push	bc
      000476 11rAFr00              1158 	ld	de, #(_rect_list + 155)
      000479 D5                    1159 	push	de
      00047A CDr00r00              1160 	call	___memcpy
      00047D E8 06                 1161 	add	sp, #6
                           00047F  1162 	C$scene.c$189$1_2$132	= .
                                   1163 	.globl	C$scene.c$189$1_2$132
                                   1164 ;src/scene.c:189: window_components_on_current_floor[0] = 0x11;
      00047F 21r08r00              1165 	ld	hl, #_window_components_on_current_floor
      000482 36 11                 1166 	ld	(hl), #0x11
                           000484  1167 	C$scene.c$190$1_2$132	= .
                                   1168 	.globl	C$scene.c$190$1_2$132
                                   1169 ;src/scene.c:190: window_components_on_current_floor[1] = 0x11;
      000484 21r09r00              1170 	ld	hl, #(_window_components_on_current_floor + 1)
      000487 36 11                 1171 	ld	(hl), #0x11
                           000489  1172 	C$scene.c$191$1_2$132	= .
                                   1173 	.globl	C$scene.c$191$1_2$132
                                   1174 ;src/scene.c:191: window_components_on_current_floor[2] = 0x11;
      000489 21r0Ar00              1175 	ld	hl, #(_window_components_on_current_floor + 2)
      00048C 36 11                 1176 	ld	(hl), #0x11
                           00048E  1177 	C$scene.c$192$1_2$132	= .
                                   1178 	.globl	C$scene.c$192$1_2$132
                                   1179 ;src/scene.c:192: window_components_on_current_floor[3] = 0x11;
      00048E 21r0Br00              1180 	ld	hl, #(_window_components_on_current_floor + 3)
      000491 36 11                 1181 	ld	(hl), #0x11
                           000493  1182 	C$scene.c$194$1_2$132	= .
                                   1183 	.globl	C$scene.c$194$1_2$132
                                   1184 ;src/scene.c:194: r = 0x00;
      000493 21r07r00              1185 	ld	hl, #_r
      000496 36 00                 1186 	ld	(hl), #0x00
                           000498  1187 	C$scene.c$195$1_2$132	= .
                                   1188 	.globl	C$scene.c$195$1_2$132
                                   1189 ;src/scene.c:195: rand_init = false;
      000498 21r06r00              1190 	ld	hl, #_rand_init
      00049B 36 00                 1191 	ld	(hl), #0x00
                           00049D  1192 	C$scene.c$198$1_2$132	= .
                                   1193 	.globl	C$scene.c$198$1_2$132
                                   1194 ;src/scene.c:198: walker_byte = 0x00;
      00049D 21rD5r00              1195 	ld	hl, #_walker_byte
      0004A0 36 00                 1196 	ld	(hl), #0x00
                           0004A2  1197 	C$scene.c$199$1_2$132	= .
                                   1198 	.globl	C$scene.c$199$1_2$132
                                   1199 ;src/scene.c:199: malloc_i = 0;
      0004A2 21rD6r00              1200 	ld	hl, #_malloc_i
      0004A5 36 00                 1201 	ld	(hl), #0x00
                           0004A7  1202 	C$scene.c$202$1_2$132	= .
                                   1203 	.globl	C$scene.c$202$1_2$132
                                   1204 ;src/scene.c:202: set_sprite_data(29, 6, extra_sprites);
      0004A7 11r00r00              1205 	ld	de, #_extra_sprites
      0004AA D5                    1206 	push	de
      0004AB 21 1D 06              1207 	ld	hl, #0x61d
      0004AE E5                    1208 	push	hl
      0004AF CDr00r00              1209 	call	_set_sprite_data
      0004B2 E8 04                 1210 	add	sp, #4
                           0004B4  1211 	C$scene.c$203$1_2$132	= .
                                   1212 	.globl	C$scene.c$203$1_2$132
                                   1213 ;src/scene.c:203: clothes_position[0] = 56;
      0004B4 21r37r01              1214 	ld	hl, #_clothes_position
      0004B7 36 38                 1215 	ld	(hl), #0x38
                           0004B9  1216 	C$scene.c$204$1_2$132	= .
                                   1217 	.globl	C$scene.c$204$1_2$132
                                   1218 ;src/scene.c:204: clothes_position[1] = 136;
      0004B9 21r38r01              1219 	ld	hl, #(_clothes_position + 1)
      0004BC 36 88                 1220 	ld	(hl), #0x88
                           0004BE  1221 	C$scene.c$205$1_2$132	= .
                                   1222 	.globl	C$scene.c$205$1_2$132
                                   1223 ;src/scene.c:205: clothes_position[2] = 136;
      0004BE 21r39r01              1224 	ld	hl, #(_clothes_position + 2)
      0004C1 36 88                 1225 	ld	(hl), #0x88
                           0004C3  1226 	C$scene.c$206$1_2$132	= .
                                   1227 	.globl	C$scene.c$206$1_2$132
                                   1228 ;src/scene.c:206: clothes_position[3] = 136;
      0004C3 01r3Ar01              1229 	ld	bc, #_clothes_position + 3
      0004C6 3E 88                 1230 	ld	a, #0x88
      0004C8 02                    1231 	ld	(bc), a
                                   1232 ;C:/gbdk/include/gb/gb.h:1447: shadow_OAM[nb].tile=tile;
      0004C9 21r42r00              1233 	ld	hl, #(_shadow_OAM + 66)
      0004CC 36 1D                 1234 	ld	(hl), #0x1d
                                   1235 ;src/scene.c:208: move_sprite(16, 10, clothes_position[0] - camera_y);
      0004CE FAr37r01              1236 	ld	a, (#_clothes_position + 0)
      0004D1 21r0Cr00              1237 	ld	hl, #_camera_y
      0004D4 96                    1238 	sub	a, (hl)
      0004D5 5F                    1239 	ld	e, a
                                   1240 ;C:/gbdk/include/gb/gb.h:1520: OAM_item_t * itm = &shadow_OAM[nb];
      0004D6 21r40r00              1241 	ld	hl, #(_shadow_OAM + 64)
                                   1242 ;C:/gbdk/include/gb/gb.h:1521: itm->y=y, itm->x=x;
      0004D9 73                    1243 	ld	(hl), e
      0004DA 23                    1244 	inc	hl
      0004DB 36 0A                 1245 	ld	(hl), #0x0a
                                   1246 ;C:/gbdk/include/gb/gb.h:1447: shadow_OAM[nb].tile=tile;
      0004DD 21r46r00              1247 	ld	hl, #(_shadow_OAM + 70)
      0004E0 36 1D                 1248 	ld	(hl), #0x1d
                                   1249 ;src/scene.c:210: move_sprite(17, 13, clothes_position[1] - camera_y);
      0004E2 FAr38r01              1250 	ld	a, (#(_clothes_position + 1) + 0)
      0004E5 21r0Cr00              1251 	ld	hl, #_camera_y
      0004E8 96                    1252 	sub	a, (hl)
                                   1253 ;C:/gbdk/include/gb/gb.h:1520: OAM_item_t * itm = &shadow_OAM[nb];
                                   1254 ;C:/gbdk/include/gb/gb.h:1521: itm->y=y, itm->x=x;
      0004E9 21r44r00              1255 	ld	hl, #(_shadow_OAM + 68)
      0004EC 22                    1256 	ld	(hl+), a
      0004ED 36 0D                 1257 	ld	(hl), #0x0d
                                   1258 ;C:/gbdk/include/gb/gb.h:1447: shadow_OAM[nb].tile=tile;
      0004EF 21r4Ar00              1259 	ld	hl, #(_shadow_OAM + 74)
      0004F2 36 1D                 1260 	ld	(hl), #0x1d
                                   1261 ;src/scene.c:212: move_sprite(18, 67, clothes_position[2] - camera_y);
      0004F4 FAr39r01              1262 	ld	a, (#(_clothes_position + 2) + 0)
      0004F7 21r0Cr00              1263 	ld	hl, #_camera_y
      0004FA 96                    1264 	sub	a, (hl)
      0004FB 5F                    1265 	ld	e, a
                                   1266 ;C:/gbdk/include/gb/gb.h:1520: OAM_item_t * itm = &shadow_OAM[nb];
      0004FC 21r48r00              1267 	ld	hl, #(_shadow_OAM + 72)
                                   1268 ;C:/gbdk/include/gb/gb.h:1521: itm->y=y, itm->x=x;
      0004FF 7B                    1269 	ld	a, e
      000500 22                    1270 	ld	(hl+), a
      000501 36 43                 1271 	ld	(hl), #0x43
                                   1272 ;C:/gbdk/include/gb/gb.h:1447: shadow_OAM[nb].tile=tile;
      000503 21r4Er00              1273 	ld	hl, #(_shadow_OAM + 78)
      000506 36 1D                 1274 	ld	(hl), #0x1d
                                   1275 ;src/scene.c:214: move_sprite(19, 155, clothes_position[3] - camera_y);
      000508 0A                    1276 	ld	a, (bc)
      000509 21r0Cr00              1277 	ld	hl, #_camera_y
      00050C 96                    1278 	sub	a, (hl)
                                   1279 ;C:/gbdk/include/gb/gb.h:1520: OAM_item_t * itm = &shadow_OAM[nb];
                                   1280 ;C:/gbdk/include/gb/gb.h:1521: itm->y=y, itm->x=x;
      00050D 21r4Cr00              1281 	ld	hl, #(_shadow_OAM + 76)
      000510 22                    1282 	ld	(hl+), a
      000511 36 9B                 1283 	ld	(hl), #0x9b
                           000513  1284 	C$scene.c$216$1_2$132	= .
                                   1285 	.globl	C$scene.c$216$1_2$132
                                   1286 ;src/scene.c:216: weeds_frame_counter = 0;
      000513 21r3Dr01              1287 	ld	hl, #_weeds_frame_counter
      000516 36 00                 1288 	ld	(hl), #0x00
                           000518  1289 	C$scene.c$217$1_2$132	= .
                                   1290 	.globl	C$scene.c$217$1_2$132
                                   1291 ;src/scene.c:217: clothes_speed = 0b11100100;
      000518 21r3Br01              1292 	ld	hl, #_clothes_speed
      00051B 36 E4                 1293 	ld	(hl), #0xe4
                           00051D  1294 	C$scene.c$218$1_2$132	= .
                                   1295 	.globl	C$scene.c$218$1_2$132
                                   1296 ;src/scene.c:218: deactivate_weeds_flag = 0;
      00051D 21r3Cr01              1297 	ld	hl, #_deactivate_weeds_flag
      000520 36 00                 1298 	ld	(hl), #0x00
                           000522  1299 	C$scene.c$219$1_2$130	= .
                                   1300 	.globl	C$scene.c$219$1_2$130
                                   1301 ;src/scene.c:219: }
      000522 E8 2F                 1302 	add	sp, #47
                           000524  1303 	C$scene.c$219$1_2$130	= .
                                   1304 	.globl	C$scene.c$219$1_2$130
                           000524  1305 	XG$scene_init$0$0	= .
                                   1306 	.globl	XG$scene_init$0$0
      000524 C9                    1307 	ret
                           000525  1308 G$bot_info$0_0$0 == .
      000525                       1309 _bot_info:
      000525 05                    1310 	.db #0x05	; 5
      000526 02                    1311 	.db #0x02	; 2
      000527r00r00                 1312 	.dw _bot_map_00
      000529 00                    1313 	.db #0x00	; 0
      00052A 00                    1314 	.db #0x00	; 0
      00052B 00                    1315 	.db #0x00	; 0
      00052C 00                    1316 	.db #0x00	; 0
      00052D 02                    1317 	.db #0x02	; 2
      00052E 05                    1318 	.db #0x05	; 5
      00052F 02                    1319 	.db #0x02	; 2
      000530r00r00                 1320 	.dw _bot_map_01
      000532 01                    1321 	.db #0x01	; 1
      000533 34                    1322 	.db #0x34	; 52	'4'
      000534 1E                    1323 	.db #0x1e	; 30
      000535 13                    1324 	.db #0x13	; 19
      000536 01                    1325 	.db #0x01	; 1
      000537 05                    1326 	.db #0x05	; 5
      000538 02                    1327 	.db #0x02	; 2
      000539r00r00                 1328 	.dw _bot_map_02
      00053B 01                    1329 	.db #0x01	; 1
      00053C 36                    1330 	.db #0x36	; 54	'6'
      00053D 1E                    1331 	.db #0x1e	; 30
      00053E 15                    1332 	.db #0x15	; 21
      00053F 00                    1333 	.db #0x00	; 0
      000540 04                    1334 	.db #0x04	; 4
      000541 03                    1335 	.db #0x03	; 3
      000542r00r00                 1336 	.dw _bot_map_03
      000544 01                    1337 	.db #0x01	; 1
      000545 36                    1338 	.db #0x36	; 54	'6'
      000546 1E                    1339 	.db #0x1e	; 30
      000547 1B                    1340 	.db #0x1b	; 27
      000548 05                    1341 	.db #0x05	; 5
      000549 05                    1342 	.db #0x05	; 5
      00054A 02                    1343 	.db #0x02	; 2
      00054Br00r00                 1344 	.dw _bot_map_04
      00054D 01                    1345 	.db #0x01	; 1
      00054E 34                    1346 	.db #0x34	; 52	'4'
      00054F 1E                    1347 	.db #0x1e	; 30
      000550 13                    1348 	.db #0x13	; 19
      000551 01                    1349 	.db #0x01	; 1
      000552 05                    1350 	.db #0x05	; 5
      000553 02                    1351 	.db #0x02	; 2
      000554r00r00                 1352 	.dw _bot_map_05
      000556 01                    1353 	.db #0x01	; 1
      000557 34                    1354 	.db #0x34	; 52	'4'
      000558 1E                    1355 	.db #0x1e	; 30
      000559 13                    1356 	.db #0x13	; 19
      00055A 03                    1357 	.db #0x03	; 3
                           00055B  1358 G$top_info$0_0$0 == .
      00055B                       1359 _top_info:
      00055B 01                    1360 	.db #0x01	; 1
      00055C 01                    1361 	.db #0x01	; 1
      00055Dr00r00                 1362 	.dw _top_map_00
      00055F 00                    1363 	.db #0x00	; 0
      000560 00                    1364 	.db #0x00	; 0
      000561 00                    1365 	.db #0x00	; 0
      000562 00                    1366 	.db #0x00	; 0
      000563 02                    1367 	.db #0x02	; 2
      000564 01                    1368 	.db #0x01	; 1
      000565 01                    1369 	.db #0x01	; 1
      000566r00r00                 1370 	.dw _top_map_01
      000568 01                    1371 	.db #0x01	; 1
      000569 17                    1372 	.db #0x17	; 23
      00056A 1E                    1373 	.db #0x1e	; 30
      00056B 13                    1374 	.db #0x13	; 19
      00056C 01                    1375 	.db #0x01	; 1
      00056D 01                    1376 	.db #0x01	; 1
      00056E 01                    1377 	.db #0x01	; 1
      00056Fr00r00                 1378 	.dw _top_map_02
      000571 01                    1379 	.db #0x01	; 1
      000572 15                    1380 	.db #0x15	; 21
      000573 1E                    1381 	.db #0x1e	; 30
      000574 13                    1382 	.db #0x13	; 19
      000575 00                    1383 	.db #0x00	; 0
      000576 01                    1384 	.db #0x01	; 1
      000577 02                    1385 	.db #0x02	; 2
      000578r00r00                 1386 	.dw _top_map_03
      00057A FD                    1387 	.db #0xfd	; 253
      00057B 15                    1388 	.db #0x15	; 21
      00057C 24                    1389 	.db #0x24	; 36
      00057D 13                    1390 	.db #0x13	; 19
      00057E 03                    1391 	.db #0x03	; 3
      00057F 01                    1392 	.db #0x01	; 1
      000580 01                    1393 	.db #0x01	; 1
      000581r00r00                 1394 	.dw _top_map_04
      000583 01                    1395 	.db #0x01	; 1
      000584 15                    1396 	.db #0x15	; 21
      000585 1E                    1397 	.db #0x1e	; 30
      000586 13                    1398 	.db #0x13	; 19
      000587 04                    1399 	.db #0x04	; 4
                           000588  1400 G$traversable_bots$0_0$0 == .
      000588                       1401 _traversable_bots:
      000588 01                    1402 	.db #0x01	; 1
      000589 01                    1403 	.db #0x01	; 1
      00058A 05                    1404 	.db #0x05	; 5
      00058B 01                    1405 	.db #0x01	; 1
                           00058C  1406 G$traversable_tops$0_0$0 == .
      00058C                       1407 _traversable_tops:
      00058C 01                    1408 	.db #0x01	; 1
      00058D 03                    1409 	.db #0x03	; 3
      00058E 01                    1410 	.db #0x01	; 1
      00058F 01                    1411 	.db #0x01	; 1
                           000590  1412 G$bulky_bots$0_0$0 == .
      000590                       1413 _bulky_bots:
      000590 01                    1414 	.db #0x01	; 1
      000591 02                    1415 	.db #0x02	; 2
      000592 03                    1416 	.db #0x03	; 3
      000593 02                    1417 	.db #0x02	; 2
                           000594  1418 G$bulky_tops$0_0$0 == .
      000594                       1419 _bulky_tops:
      000594 00                    1420 	.db #0x00	; 0
      000595 02                    1421 	.db #0x02	; 2
      000596 04                    1422 	.db #0x04	; 4
      000597 02                    1423 	.db #0x02	; 2
                           000598  1424 G$all_tops$0_0$0 == .
      000598                       1425 _all_tops:
      000598 00                    1426 	.db #0x00	; 0
      000599 01                    1427 	.db #0x01	; 1
      00059A 02                    1428 	.db #0x02	; 2
      00059B 03                    1429 	.db #0x03	; 3
      00059C 04                    1430 	.db #0x04	; 4
      00059D 01                    1431 	.db #0x01	; 1
      00059E 02                    1432 	.db #0x02	; 2
      00059F 02                    1433 	.db #0x02	; 2
                           0005A0  1434 G$all_bots$0_0$0 == .
      0005A0                       1435 _all_bots:
      0005A0 00                    1436 	.db #0x00	; 0
      0005A1 01                    1437 	.db #0x01	; 1
      0005A2 02                    1438 	.db #0x02	; 2
      0005A3 03                    1439 	.db #0x03	; 3
      0005A4 01                    1440 	.db #0x01	; 1
      0005A5 05                    1441 	.db #0x05	; 5
      0005A6 02                    1442 	.db #0x02	; 2
      0005A7 02                    1443 	.db #0x02	; 2
                           0005A8  1444 G$possible_clothes$0_0$0 == .
      0005A8                       1445 _possible_clothes:
      0005A8 1F                    1446 	.db #0x1f	; 31
      0005A9 20                    1447 	.db #0x20	; 32
                           0005AA  1448 	G$compute_scene_frame$0$0	= .
                                   1449 	.globl	G$compute_scene_frame$0$0
                           0005AA  1450 	C$scene.c$221$1_2$163	= .
                                   1451 	.globl	C$scene.c$221$1_2$163
                                   1452 ;src/scene.c:221: void compute_scene_frame(void){
                                   1453 ;	---------------------------------
                                   1454 ; Function compute_scene_frame
                                   1455 ; ---------------------------------
      0005AA                       1456 _compute_scene_frame::
                           0005AA  1457 	C$scene.c$231$1_0$163	= .
                                   1458 	.globl	C$scene.c$231$1_0$163
                                   1459 ;src/scene.c:231: if((walker_byte & 0xCF) != 0xCF){
      0005AA FArD5r00              1460 	ld	a, (#_walker_byte)
      0005AD E6 CF                 1461 	and	a, #0xcf
      0005AF 4F                    1462 	ld	c, a
      0005B0 06 00                 1463 	ld	b, #0x00
      0005B2 79                    1464 	ld	a, c
      0005B3 D6 CF                 1465 	sub	a, #0xcf
      0005B5 B0                    1466 	or	a, b
      0005B6 28 0A                 1467 	jr	Z, 00104$
                           0005B8  1468 	C$scene.c$232$2_0$164	= .
                                   1469 	.globl	C$scene.c$232$2_0$164
                                   1470 ;src/scene.c:232: if(rand_init)next_map_gen_step();
      0005B8 21r06r00              1471 	ld	hl, #_rand_init
      0005BB CB 46                 1472 	bit	0, (hl)
      0005BD 28 03                 1473 	jr	Z, 00104$
      0005BF CDrA6r0B              1474 	call	_next_map_gen_step
      0005C2                       1475 00104$:
                           0005C2  1476 	C$scene.c$234$1_0$163	= .
                                   1477 	.globl	C$scene.c$234$1_0$163
                                   1478 ;src/scene.c:234: move_camera();
      0005C2 CDrC8r05              1479 	call	_move_camera
                           0005C5  1480 	C$scene.c$236$1_0$163	= .
                                   1481 	.globl	C$scene.c$236$1_0$163
                                   1482 ;src/scene.c:236: animate_weeds();
                           0005C5  1483 	C$scene.c$237$1_0$163	= .
                                   1484 	.globl	C$scene.c$237$1_0$163
                                   1485 ;src/scene.c:237: }
                           0005C5  1486 	C$scene.c$237$1_0$163	= .
                                   1487 	.globl	C$scene.c$237$1_0$163
                           0005C5  1488 	XG$compute_scene_frame$0$0	= .
                                   1489 	.globl	XG$compute_scene_frame$0$0
      0005C5 C3r4Fr07              1490 	jp	_animate_weeds
                           0005C8  1491 	G$move_camera$0$0	= .
                                   1492 	.globl	G$move_camera$0$0
                           0005C8  1493 	C$scene.c$239$1_0$166	= .
                                   1494 	.globl	C$scene.c$239$1_0$166
                                   1495 ;src/scene.c:239: void move_camera(void){
                                   1496 ;	---------------------------------
                                   1497 ; Function move_camera
                                   1498 ; ---------------------------------
      0005C8                       1499 _move_camera::
                           0005C8  1500 	C$scene.c$240$1_0$166	= .
                                   1501 	.globl	C$scene.c$240$1_0$166
                                   1502 ;src/scene.c:240: if(!game_started_flag) return;
      0005C8 21r13r00              1503 	ld	hl, #_game_started_flag
      0005CB CB 46                 1504 	bit	0, (hl)
      0005CD C8                    1505 	ret	Z
                           0005CE  1506 	C$scene.c$242$1_0$166	= .
                                   1507 	.globl	C$scene.c$242$1_0$166
                                   1508 ;src/scene.c:242: current_cam_frame++;
      0005CE 21r11r00              1509 	ld	hl, #_current_cam_frame
      0005D1 34                    1510 	inc	(hl)
                           0005D2  1511 	C$scene.c$243$1_0$166	= .
                                   1512 	.globl	C$scene.c$243$1_0$166
                                   1513 ;src/scene.c:243: accelerate_cam_flag++;
      0005D2 21r12r00              1514 	ld	hl, #_accelerate_cam_flag
      0005D5 34                    1515 	inc	(hl)
                           0005D6  1516 	C$scene.c$245$1_0$166	= .
                                   1517 	.globl	C$scene.c$245$1_0$166
                                   1518 ;src/scene.c:245: if(current_cam_frame >= (frames_to_move >> 3)){
      0005D6 21r10r00              1519 	ld	hl, #_frames_to_move
      0005D9 4E                    1520 	ld	c, (hl)
      0005DA CB 39                 1521 	srl	c
      0005DC CB 39                 1522 	srl	c
      0005DE CB 39                 1523 	srl	c
      0005E0 21r11r00              1524 	ld	hl, #_current_cam_frame
      0005E3 7E                    1525 	ld	a, (hl)
      0005E4 91                    1526 	sub	a, c
      0005E5 38 09                 1527 	jr	C, 00104$
                           0005E7  1528 	C$scene.c$246$2_0$167	= .
                                   1529 	.globl	C$scene.c$246$2_0$167
                                   1530 ;src/scene.c:246: current_cam_frame = 0;
      0005E7 36 00                 1531 	ld	(hl), #0x00
                           0005E9  1532 	C$scene.c$247$2_0$167	= .
                                   1533 	.globl	C$scene.c$247$2_0$167
                                   1534 ;src/scene.c:247: camera_y--;
      0005E9 21r0Cr00              1535 	ld	hl, #_camera_y
      0005EC 35                    1536 	dec	(hl)
                           0005ED  1537 	C$scene.c$248$2_0$167	= .
                                   1538 	.globl	C$scene.c$248$2_0$167
                                   1539 ;src/scene.c:248: set_camera();
      0005ED CDr01r06              1540 	call	_set_camera
      0005F0                       1541 00104$:
                           0005F0  1542 	C$scene.c$251$1_0$166	= .
                                   1543 	.globl	C$scene.c$251$1_0$166
                                   1544 ;src/scene.c:251: move_sprites_down();
      0005F0 CDr60r06              1545 	call	_move_sprites_down
                           0005F3  1546 	C$scene.c$253$1_0$166	= .
                                   1547 	.globl	C$scene.c$253$1_0$166
                                   1548 ;src/scene.c:253: if(accelerate_cam_flag == 0xFF && frames_to_move > 16U){
      0005F3 FAr12r00              1549 	ld	a, (#_accelerate_cam_flag)
      0005F6 3C                    1550 	inc	a
      0005F7 C0                    1551 	ret	NZ
      0005F8 3E 10                 1552 	ld	a, #0x10
      0005FA 21r10r00              1553 	ld	hl, #_frames_to_move
      0005FD 96                    1554 	sub	a, (hl)
      0005FE D0                    1555 	ret	NC
                           0005FF  1556 	C$scene.c$254$2_0$168	= .
                                   1557 	.globl	C$scene.c$254$2_0$168
                                   1558 ;src/scene.c:254: frames_to_move--;
      0005FF 35                    1559 	dec	(hl)
                           000600  1560 	C$scene.c$256$1_0$166	= .
                                   1561 	.globl	C$scene.c$256$1_0$166
                                   1562 ;src/scene.c:256: }
                           000600  1563 	C$scene.c$256$1_0$166	= .
                                   1564 	.globl	C$scene.c$256$1_0$166
                           000600  1565 	XG$move_camera$0$0	= .
                                   1566 	.globl	XG$move_camera$0$0
      000600 C9                    1567 	ret
                           000601  1568 	G$set_camera$0$0	= .
                                   1569 	.globl	G$set_camera$0$0
                           000601  1570 	C$scene.c$258$1_0$170	= .
                                   1571 	.globl	C$scene.c$258$1_0$170
                                   1572 ;src/scene.c:258: void set_camera(void){
                                   1573 ;	---------------------------------
                                   1574 ; Function set_camera
                                   1575 ; ---------------------------------
      000601                       1576 _set_camera::
                                   1577 ;src/scene.c:259: move_bkg(8, camera_y);
      000601 21r0Cr00              1578 	ld	hl, #_camera_y
      000604 4E                    1579 	ld	c, (hl)
                                   1580 ;C:/gbdk/include/gb/gb.h:1080: SCX_REG=x, SCY_REG=y;
      000605 3E 08                 1581 	ld	a, #0x08
      000607 E0r00                 1582 	ldh	(_SCX_REG + 0), a
      000609 79                    1583 	ld	a, c
      00060A E0r00                 1584 	ldh	(_SCY_REG + 0), a
                           00060C  1585 	C$scene.c$261$1_0$170	= .
                                   1586 	.globl	C$scene.c$261$1_0$170
                                   1587 ;src/scene.c:261: camera_y_clamped = (((camera_y-1) >> 3) & 0x1F) >> 3;
      00060C 4E                    1588 	ld	c, (hl)
      00060D 06 00                 1589 	ld	b, #0x00
      00060F 0B                    1590 	dec	bc
      000610 CB 28                 1591 	sra	b
      000612 CB 19                 1592 	rr	c
      000614 CB 28                 1593 	sra	b
      000616 CB 19                 1594 	rr	c
      000618 CB 28                 1595 	sra	b
      00061A CB 19                 1596 	rr	c
      00061C 79                    1597 	ld	a, c
      00061D E6 1F                 1598 	and	a, #0x1f
      00061F 4F                    1599 	ld	c, a
      000620 06 00                 1600 	ld	b, #0x00
      000622 CB 28                 1601 	sra	b
      000624 CB 19                 1602 	rr	c
      000626 CB 28                 1603 	sra	b
      000628 CB 19                 1604 	rr	c
      00062A CB 28                 1605 	sra	b
      00062C CB 19                 1606 	rr	c
      00062E 21r0Er00              1607 	ld	hl, #_camera_y_clamped
      000631 71                    1608 	ld	(hl), c
                           000632  1609 	C$scene.c$262$1_0$170	= .
                                   1610 	.globl	C$scene.c$262$1_0$170
                                   1611 ;src/scene.c:262: old_camera_y_clamped = (((old_camera_y) >> 3) & 0x1F) >> 3;
      000632 FAr0Dr00              1612 	ld	a, (#_old_camera_y)
      000635 CB 37                 1613 	swap	a
      000637 07                    1614 	rlca
      000638 E6 1F                 1615 	and	a, #0x1f
      00063A 4F                    1616 	ld	c, a
      00063B 06 00                 1617 	ld	b, #0x00
      00063D CB 28                 1618 	sra	b
      00063F CB 19                 1619 	rr	c
      000641 CB 28                 1620 	sra	b
      000643 CB 19                 1621 	rr	c
      000645 CB 28                 1622 	sra	b
      000647 CB 19                 1623 	rr	c
      000649 21r0Fr00              1624 	ld	hl, #_old_camera_y_clamped
      00064C 71                    1625 	ld	(hl), c
                           00064D  1626 	C$scene.c$263$1_0$170	= .
                                   1627 	.globl	C$scene.c$263$1_0$170
                                   1628 ;src/scene.c:263: if(camera_y_clamped != old_camera_y_clamped){
      00064D FAr0Er00              1629 	ld	a, (#_camera_y_clamped)
      000650 21r0Fr00              1630 	ld	hl, #_old_camera_y_clamped
      000653 96                    1631 	sub	a, (hl)
      000654 C8                    1632 	ret	Z
                           000655  1633 	C$scene.c$264$2_0$171	= .
                                   1634 	.globl	C$scene.c$264$2_0$171
                                   1635 ;src/scene.c:264: gen_new_floor();
      000655 CDrBEr07              1636 	call	_gen_new_floor
                           000658  1637 	C$scene.c$265$2_0$171	= .
                                   1638 	.globl	C$scene.c$265$2_0$171
                                   1639 ;src/scene.c:265: old_camera_y = camera_y-1;
      000658 FAr0Cr00              1640 	ld	a, (#_camera_y)
      00065B 3D                    1641 	dec	a
      00065C EAr0Dr00              1642 	ld	(#_old_camera_y),a
                           00065F  1643 	C$scene.c$267$1_0$170	= .
                                   1644 	.globl	C$scene.c$267$1_0$170
                                   1645 ;src/scene.c:267: }
                           00065F  1646 	C$scene.c$267$1_0$170	= .
                                   1647 	.globl	C$scene.c$267$1_0$170
                           00065F  1648 	XG$set_camera$0$0	= .
                                   1649 	.globl	XG$set_camera$0$0
      00065F C9                    1650 	ret
                           000660  1651 	G$move_sprites_down$0$0	= .
                                   1652 	.globl	G$move_sprites_down$0$0
                           000660  1653 	C$scene.c$269$1_0$177	= .
                                   1654 	.globl	C$scene.c$269$1_0$177
                                   1655 ;src/scene.c:269: void move_sprites_down(void){
                                   1656 ;	---------------------------------
                                   1657 ; Function move_sprites_down
                                   1658 ; ---------------------------------
      000660                       1659 _move_sprites_down::
                           000660  1660 	C$scene.c$271$2_0$177	= .
                                   1661 	.globl	C$scene.c$271$2_0$177
                                   1662 ;src/scene.c:271: for(i=0; i<4; i++){
      000660 21r01r00              1663 	ld	hl, #_i
      000663 36 00                 1664 	ld	(hl), #0x00
      000665                       1665 00114$:
                           000665  1666 	C$scene.c$273$3_0$178	= .
                                   1667 	.globl	C$scene.c$273$3_0$178
                                   1668 ;src/scene.c:273: if(((deactivate_weeds_flag >> (i << 1)) & 0x03)){continue;}
      000665 FAr01r00              1669 	ld	a, (#_i)
      000668 87                    1670 	add	a, a
      000669 47                    1671 	ld	b, a
      00066A 21r3Cr01              1672 	ld	hl, #_deactivate_weeds_flag
      00066D 4E                    1673 	ld	c, (hl)
      00066E 04                    1674 	inc	b
      00066F 18 02                 1675 	jr	00148$
      000671                       1676 00147$:
      000671 CB 39                 1677 	srl	c
      000673                       1678 00148$:
      000673 05                    1679 	dec	b
      000674 20 FB                 1680 	jr	NZ, 00147$
      000676 79                    1681 	ld	a, c
      000677 E6 03                 1682 	and	a, #0x03
      000679 C2r44r07              1683 	jp	NZ,00110$
                                   1684 ;src/scene.c:274: if(get_sprite_tile(16 + i) > 32){
      00067C FAr01r00              1685 	ld	a, (#_i)
      00067F C6 10                 1686 	add	a, #0x10
      000681 4F                    1687 	ld	c, a
                                   1688 ;C:/gbdk/include/gb/gb.h:1458: return shadow_OAM[nb].tile;
      000682 26 00                 1689 	ld	h, #0x00
                                   1690 ;	spillPairReg hl
                                   1691 ;	spillPairReg hl
      000684 69                    1692 	ld	l, c
      000685 29                    1693 	add	hl, hl
      000686 29                    1694 	add	hl, hl
      000687 11r00r00              1695 	ld	de, #_shadow_OAM
      00068A 19                    1696 	add	hl, de
      00068B 23                    1697 	inc	hl
      00068C 23                    1698 	inc	hl
      00068D 4E                    1699 	ld	c, (hl)
                           00068E  1700 	C$scene.c$274$5_0$184	= .
                                   1701 	.globl	C$scene.c$274$5_0$184
                                   1702 ;src/scene.c:274: if(get_sprite_tile(16 + i) > 32){
      00068E 3E 20                 1703 	ld	a, #0x20
      000690 91                    1704 	sub	a, c
      000691 30 40                 1705 	jr	NC, 00106$
                           000693  1706 	C$scene.c$275$4_0$180	= .
                                   1707 	.globl	C$scene.c$275$4_0$180
                                   1708 ;src/scene.c:275: clothes_position[0 + i] += ((clothes_speed >> (i<<1)) & 0x03) << 1;
      000693 3Er37                 1709 	ld	a, #<(_clothes_position)
      000695 21r01r00              1710 	ld	hl, #_i
      000698 86                    1711 	add	a, (hl)
      000699 4F                    1712 	ld	c, a
      00069A 3Es01                 1713 	ld	a, #>(_clothes_position)
      00069C CE 00                 1714 	adc	a, #0x00
      00069E 47                    1715 	ld	b, a
      00069F 0A                    1716 	ld	a, (bc)
      0006A0 5F                    1717 	ld	e, a
      0006A1 7E                    1718 	ld	a, (hl)
      0006A2 87                    1719 	add	a, a
      0006A3 F5                    1720 	push	af
      0006A4 21r3Br01              1721 	ld	hl, #_clothes_speed
      0006A7 56                    1722 	ld	d, (hl)
      0006A8 F1                    1723 	pop	af
      0006A9 3C                    1724 	inc	a
      0006AA 18 02                 1725 	jr	00152$
      0006AC                       1726 00151$:
      0006AC CB 3A                 1727 	srl	d
      0006AE                       1728 00152$:
      0006AE 3D                    1729 	dec	a
      0006AF 20 FB                 1730 	jr	NZ, 00151$
      0006B1 7A                    1731 	ld	a, d
      0006B2 E6 03                 1732 	and	a, #0x03
      0006B4 87                    1733 	add	a, a
      0006B5 83                    1734 	add	a, e
      0006B6 02                    1735 	ld	(bc), a
                           0006B7  1736 	C$scene.c$276$4_0$180	= .
                                   1737 	.globl	C$scene.c$276$4_0$180
                                   1738 ;src/scene.c:276: if((weeds_frame_counter >> 1) & 0x01){
      0006B7 FAr3Dr01              1739 	ld	a, (#_weeds_frame_counter)
      0006BA 0F                    1740 	rrca
      0006BB E6 01                 1741 	and	a,#0x01
      0006BD 28 14                 1742 	jr	Z, 00106$
                           0006BF  1743 	C$scene.c$277$5_0$181	= .
                                   1744 	.globl	C$scene.c$277$5_0$181
                                   1745 ;src/scene.c:277: shadow_OAM[16 + i].y = 160; //hide the sprite without modyfying the x coord
      0006BF 21r01r00              1746 	ld	hl, #_i
      0006C2 4E                    1747 	ld	c, (hl)
      0006C3 06 00                 1748 	ld	b, #0x00
      0006C5 21 10 00              1749 	ld	hl, #0x0010
      0006C8 09                    1750 	add	hl, bc
      0006C9 29                    1751 	add	hl, hl
      0006CA 29                    1752 	add	hl, hl
      0006CB 11r00r00              1753 	ld	de, #_shadow_OAM
      0006CE 19                    1754 	add	hl, de
      0006CF 36 A0                 1755 	ld	(hl), #0xa0
                           0006D1  1756 	C$scene.c$278$5_0$181	= .
                                   1757 	.globl	C$scene.c$278$5_0$181
                                   1758 ;src/scene.c:278: continue;
      0006D1 18 71                 1759 	jr	00110$
      0006D3                       1760 00106$:
                           0006D3  1761 	C$scene.c$282$3_0$178	= .
                                   1762 	.globl	C$scene.c$282$3_0$178
                                   1763 ;src/scene.c:282: shadow_OAM[16 + i].y = clothes_position[0 + i] - camera_y;
      0006D3 01r00r00              1764 	ld	bc, #_shadow_OAM+0
      0006D6 21r01r00              1765 	ld	hl, #_i
      0006D9 5E                    1766 	ld	e, (hl)
      0006DA 16 00                 1767 	ld	d, #0x00
      0006DC 21 10 00              1768 	ld	hl, #0x0010
      0006DF 19                    1769 	add	hl, de
      0006E0 29                    1770 	add	hl, hl
      0006E1 29                    1771 	add	hl, hl
      0006E2 09                    1772 	add	hl, bc
      0006E3 4D                    1773 	ld	c, l
      0006E4 44                    1774 	ld	b, h
      0006E5 3Er37                 1775 	ld	a, #<(_clothes_position)
      0006E7 21r01r00              1776 	ld	hl, #_i
      0006EA 86                    1777 	add	a, (hl)
      0006EB 5F                    1778 	ld	e, a
      0006EC 3Es01                 1779 	ld	a, #>(_clothes_position)
      0006EE CE 00                 1780 	adc	a, #0x00
      0006F0 57                    1781 	ld	d, a
      0006F1 1A                    1782 	ld	a, (de)
      0006F2 21r0Cr00              1783 	ld	hl, #_camera_y
      0006F5 96                    1784 	sub	a, (hl)
      0006F6 02                    1785 	ld	(bc), a
                           0006F7  1786 	C$scene.c$283$3_0$178	= .
                                   1787 	.globl	C$scene.c$283$3_0$178
                                   1788 ;src/scene.c:283: if((uint8_t)(clothes_position[0 + i] - camera_y) >= 152 && (uint8_t)(clothes_position[0 + i] - camera_y) < 170){
      0006F7 3Er37                 1789 	ld	a, #<(_clothes_position)
      0006F9 21r01r00              1790 	ld	hl, #_i
      0006FC 86                    1791 	add	a, (hl)
      0006FD 4F                    1792 	ld	c, a
      0006FE 3Es01                 1793 	ld	a, #>(_clothes_position)
      000700 CE 00                 1794 	adc	a, #0x00
      000702 47                    1795 	ld	b, a
      000703 0A                    1796 	ld	a, (bc)
      000704 21r0Cr00              1797 	ld	hl, #_camera_y
      000707 96                    1798 	sub	a, (hl)
      000708 FE 98                 1799 	cp	a, #0x98
      00070A 38 38                 1800 	jr	C, 00110$
      00070C D6 AA                 1801 	sub	a, #0xaa
      00070E 30 34                 1802 	jr	NC, 00110$
                           000710  1803 	C$scene.c$284$4_0$182	= .
                                   1804 	.globl	C$scene.c$284$4_0$182
                                   1805 ;src/scene.c:284: deactivate_weeds_flag |= 0b00000001 << (i<<1);
      000710 21r01r00              1806 	ld	hl, #_i
      000713 4E                    1807 	ld	c, (hl)
      000714 79                    1808 	ld	a, c
      000715 87                    1809 	add	a, a
      000716 5F                    1810 	ld	e, a
      000717 43                    1811 	ld	b, e
      000718 3E 01                 1812 	ld	a, #0x01
      00071A 04                    1813 	inc	b
      00071B 18 01                 1814 	jr	00154$
      00071D                       1815 00153$:
      00071D 87                    1816 	add	a, a
      00071E                       1817 00154$:
      00071E 05                    1818 	dec	b
      00071F 20 FC                 1819 	jr	NZ,00153$
      000721 21r3Cr01              1820 	ld	hl, #_deactivate_weeds_flag
      000724 B6                    1821 	or	a, (hl)
      000725 77                    1822 	ld	(hl), a
                           000726  1823 	C$scene.c$285$4_0$182	= .
                                   1824 	.globl	C$scene.c$285$4_0$182
                                   1825 ;src/scene.c:285: clothes_speed &= ~(0b00000011 << (i<<1));
      000726 3E 03                 1826 	ld	a, #0x03
      000728 1C                    1827 	inc	e
      000729 18 01                 1828 	jr	00156$
      00072B                       1829 00155$:
      00072B 87                    1830 	add	a, a
      00072C                       1831 00156$:
      00072C 1D                    1832 	dec	e
      00072D 20 FC                 1833 	jr	NZ,00155$
      00072F 2F                    1834 	cpl
      000730 21r3Br01              1835 	ld	hl, #_clothes_speed
      000733 A6                    1836 	and	a, (hl)
      000734 77                    1837 	ld	(hl), a
                                   1838 ;src/scene.c:286: hide_sprite(16+i);
      000735 79                    1839 	ld	a, c
      000736 C6 10                 1840 	add	a, #0x10
      000738 4F                    1841 	ld	c, a
                                   1842 ;C:/gbdk/include/gb/gb.h:1546: shadow_OAM[nb].y = 0;
      000739 26 00                 1843 	ld	h, #0x00
                                   1844 ;	spillPairReg hl
                                   1845 ;	spillPairReg hl
      00073B 69                    1846 	ld	l, c
      00073C 29                    1847 	add	hl, hl
      00073D 29                    1848 	add	hl, hl
      00073E 11r00r00              1849 	ld	de, #_shadow_OAM
      000741 19                    1850 	add	hl, de
      000742 36 00                 1851 	ld	(hl), #0x00
                           000744  1852 	C$scene.c$286$2_0$177	= .
                                   1853 	.globl	C$scene.c$286$2_0$177
                                   1854 ;src/scene.c:286: hide_sprite(16+i);
      000744                       1855 00110$:
                           000744  1856 	C$scene.c$271$2_0$177	= .
                                   1857 	.globl	C$scene.c$271$2_0$177
                                   1858 ;src/scene.c:271: for(i=0; i<4; i++){
      000744 21r01r00              1859 	ld	hl, #_i
      000747 34                    1860 	inc	(hl)
      000748 7E                    1861 	ld	a, (hl)
      000749 D6 04                 1862 	sub	a, #0x04
      00074B DAr65r06              1863 	jp	C, 00114$
                           00074E  1864 	C$scene.c$289$2_0$177	= .
                                   1865 	.globl	C$scene.c$289$2_0$177
                                   1866 ;src/scene.c:289: }
                           00074E  1867 	C$scene.c$289$2_0$177	= .
                                   1868 	.globl	C$scene.c$289$2_0$177
                           00074E  1869 	XG$move_sprites_down$0$0	= .
                                   1870 	.globl	XG$move_sprites_down$0$0
      00074E C9                    1871 	ret
                           00074F  1872 	G$animate_weeds$0$0	= .
                                   1873 	.globl	G$animate_weeds$0$0
                           00074F  1874 	C$scene.c$291$2_0$190	= .
                                   1875 	.globl	C$scene.c$291$2_0$190
                                   1876 ;src/scene.c:291: void animate_weeds(void){
                                   1877 ;	---------------------------------
                                   1878 ; Function animate_weeds
                                   1879 ; ---------------------------------
      00074F                       1880 _animate_weeds::
                           00074F  1881 	C$scene.c$292$1_0$190	= .
                                   1882 	.globl	C$scene.c$292$1_0$190
                                   1883 ;src/scene.c:292: weeds_frame_counter++;
      00074F 21r3Dr01              1884 	ld	hl, #_weeds_frame_counter
      000752 34                    1885 	inc	(hl)
                           000753  1886 	C$scene.c$293$1_0$190	= .
                                   1887 	.globl	C$scene.c$293$1_0$190
                                   1888 ;src/scene.c:293: if(deactivate_weeds_flag != 0x00 || is_generated){
      000753 FAr3Cr01              1889 	ld	a, (#_deactivate_weeds_flag)
      000756 B7                    1890 	or	a, a
      000757 C0                    1891 	ret	NZ
      000758 21r3Er01              1892 	ld	hl, #_is_generated
      00075B CB 46                 1893 	bit	0, (hl)
                           00075D  1894 	C$scene.c$294$2_0$191	= .
                                   1895 	.globl	C$scene.c$294$2_0$191
                                   1896 ;src/scene.c:294: return;
      00075D C0                    1897 	ret	NZ
                           00075E  1898 	C$scene.c$296$1_0$190	= .
                                   1899 	.globl	C$scene.c$296$1_0$190
                                   1900 ;src/scene.c:296: if(weeds_frame_counter >= 15){
      00075E 21r3Dr01              1901 	ld	hl, #_weeds_frame_counter
      000761 7E                    1902 	ld	a, (hl)
      000762 D6 0F                 1903 	sub	a, #0x0f
      000764 D8                    1904 	ret	C
                           000765  1905 	C$scene.c$297$2_0$192	= .
                                   1906 	.globl	C$scene.c$297$2_0$192
                                   1907 ;src/scene.c:297: weeds_frame_counter = 0;
      000765 36 00                 1908 	ld	(hl), #0x00
                           000767  1909 	C$scene.c$299$2_0$192	= .
                                   1910 	.globl	C$scene.c$299$2_0$192
                                   1911 ;src/scene.c:299: clothes_speed = ((clothes_speed + 0b00000001) & 0b00000011)
      000767 21r3Br01              1912 	ld	hl, #_clothes_speed
      00076A 46                    1913 	ld	b, (hl)
      00076B 78                    1914 	ld	a, b
      00076C 3C                    1915 	inc	a
      00076D E6 03                 1916 	and	a, #0x03
      00076F 4F                    1917 	ld	c, a
                           000770  1918 	C$scene.c$300$2_0$192	= .
                                   1919 	.globl	C$scene.c$300$2_0$192
                                   1920 ;src/scene.c:300: | ((clothes_speed + 0b00000100) & 0b00001100)
      000770 78                    1921 	ld	a, b
      000771 3C                    1922 	inc	a
      000772 3C                    1923 	inc	a
      000773 3C                    1924 	inc	a
      000774 3C                    1925 	inc	a
      000775 E6 0C                 1926 	and	a, #0x0c
      000777 B1                    1927 	or	a, c
      000778 4F                    1928 	ld	c, a
                           000779  1929 	C$scene.c$301$2_0$192	= .
                                   1930 	.globl	C$scene.c$301$2_0$192
                                   1931 ;src/scene.c:301: | ((clothes_speed + 0b00010000) & 0b00110000)
      000779 78                    1932 	ld	a, b
      00077A C6 10                 1933 	add	a, #0x10
      00077C E6 30                 1934 	and	a, #0x30
      00077E B1                    1935 	or	a, c
      00077F 4F                    1936 	ld	c, a
                           000780  1937 	C$scene.c$302$2_0$192	= .
                                   1938 	.globl	C$scene.c$302$2_0$192
                                   1939 ;src/scene.c:302: | ((clothes_speed + 0b01000000) & 0b11000000);
      000780 78                    1940 	ld	a, b
      000781 C6 40                 1941 	add	a, #0x40
      000783 E6 C0                 1942 	and	a, #0xc0
      000785 B1                    1943 	or	a, c
      000786 77                    1944 	ld	(hl), a
                                   1945 ;src/scene.c:304: set_sprite_tile(16, 29 + ((clothes_speed >> 7) & 0x01));
      000787 7E                    1946 	ld	a, (hl)
      000788 07                    1947 	rlca
      000789 E6 01                 1948 	and	a, #0x01
      00078B C6 1D                 1949 	add	a, #0x1d
      00078D 4F                    1950 	ld	c, a
                                   1951 ;C:/gbdk/include/gb/gb.h:1447: shadow_OAM[nb].tile=tile;
      00078E 21r42r00              1952 	ld	hl, #(_shadow_OAM + 66)
      000791 71                    1953 	ld	(hl), c
                                   1954 ;src/scene.c:305: set_sprite_tile(17, 29 + ((clothes_speed >> 5) & 0x01));
      000792 FAr3Br01              1955 	ld	a, (#_clothes_speed)
      000795 07                    1956 	rlca
      000796 07                    1957 	rlca
      000797 07                    1958 	rlca
      000798 E6 01                 1959 	and	a, #0x01
      00079A C6 1D                 1960 	add	a, #0x1d
      00079C 4F                    1961 	ld	c, a
                                   1962 ;C:/gbdk/include/gb/gb.h:1447: shadow_OAM[nb].tile=tile;
      00079D 21r46r00              1963 	ld	hl, #(_shadow_OAM + 70)
      0007A0 71                    1964 	ld	(hl), c
                                   1965 ;src/scene.c:306: set_sprite_tile(18, 29 + ((clothes_speed >> 3) & 0x01));
      0007A1 FAr3Br01              1966 	ld	a, (#_clothes_speed)
      0007A4 0F                    1967 	rrca
      0007A5 0F                    1968 	rrca
      0007A6 0F                    1969 	rrca
      0007A7 E6 01                 1970 	and	a, #0x01
      0007A9 C6 1D                 1971 	add	a, #0x1d
      0007AB 4F                    1972 	ld	c, a
                                   1973 ;C:/gbdk/include/gb/gb.h:1447: shadow_OAM[nb].tile=tile;
      0007AC 21r4Ar00              1974 	ld	hl, #(_shadow_OAM + 74)
      0007AF 71                    1975 	ld	(hl), c
                                   1976 ;src/scene.c:307: set_sprite_tile(19, 29 + ((clothes_speed >> 1) & 0x01));
      0007B0 FAr3Br01              1977 	ld	a, (#_clothes_speed)
      0007B3 0F                    1978 	rrca
      0007B4 E6 01                 1979 	and	a, #0x01
      0007B6 C6 1D                 1980 	add	a, #0x1d
      0007B8 4F                    1981 	ld	c, a
                                   1982 ;C:/gbdk/include/gb/gb.h:1447: shadow_OAM[nb].tile=tile;
      0007B9 21r4Er00              1983 	ld	hl, #(_shadow_OAM + 78)
      0007BC 71                    1984 	ld	(hl), c
                           0007BD  1985 	C$scene.c$307$1_0$190	= .
                                   1986 	.globl	C$scene.c$307$1_0$190
                                   1987 ;src/scene.c:307: set_sprite_tile(19, 29 + ((clothes_speed >> 1) & 0x01));
                           0007BD  1988 	C$scene.c$309$1_0$190	= .
                                   1989 	.globl	C$scene.c$309$1_0$190
                                   1990 ;src/scene.c:309: }
                           0007BD  1991 	C$scene.c$309$1_0$190	= .
                                   1992 	.globl	C$scene.c$309$1_0$190
                           0007BD  1993 	XG$animate_weeds$0$0	= .
                                   1994 	.globl	XG$animate_weeds$0$0
      0007BD C9                    1995 	ret
                           0007BE  1996 	G$gen_new_floor$0$0	= .
                                   1997 	.globl	G$gen_new_floor$0$0
                           0007BE  1998 	C$scene.c$311$1_0$206	= .
                                   1999 	.globl	C$scene.c$311$1_0$206
                                   2000 ;src/scene.c:311: void gen_new_floor(void){
                                   2001 ;	---------------------------------
                                   2002 ; Function gen_new_floor
                                   2003 ; ---------------------------------
      0007BE                       2004 _gen_new_floor::
      0007BE E8 ED                 2005 	add	sp, #-19
                           0007C0  2006 	C$scene.c$312$1_0$206	= .
                                   2007 	.globl	C$scene.c$312$1_0$206
                                   2008 ;src/scene.c:312: if(!rand_init) {
      0007C0 21r06r00              2009 	ld	hl, #_rand_init
      0007C3 CB 46                 2010 	bit	0, (hl)
      0007C5 20 10                 2011 	jr	NZ, 00103$
                           0007C7  2012 	C$scene.c$313$2_0$207	= .
                                   2013 	.globl	C$scene.c$313$2_0$207
                                   2014 ;src/scene.c:313: initrand(r);
      0007C7 21r07r00              2015 	ld	hl, #_r
      0007CA 4E                    2016 	ld	c, (hl)
      0007CB 06 00                 2017 	ld	b, #0x00
      0007CD C5                    2018 	push	bc
      0007CE CDr00r00              2019 	call	_initrand
      0007D1 E1                    2020 	pop	hl
                           0007D2  2021 	C$scene.c$314$2_0$207	= .
                                   2022 	.globl	C$scene.c$314$2_0$207
                                   2023 ;src/scene.c:314: rand_init = true;
      0007D2 21r06r00              2024 	ld	hl, #_rand_init
      0007D5 36 01                 2025 	ld	(hl), #0x01
                           0007D7  2026 	C$scene.c$319$1_0$206	= .
                                   2027 	.globl	C$scene.c$319$1_0$206
                                   2028 ;src/scene.c:319: while((walker_byte & 0xCF) != 0xCF){
      0007D7                       2029 00103$:
      0007D7 FArD5r00              2030 	ld	a, (#_walker_byte)
      0007DA E6 CF                 2031 	and	a, #0xcf
      0007DC 4F                    2032 	ld	c, a
      0007DD 06 00                 2033 	ld	b, #0x00
      0007DF 79                    2034 	ld	a, c
      0007E0 D6 CF                 2035 	sub	a, #0xcf
      0007E2 B0                    2036 	or	a, b
      0007E3 28 05                 2037 	jr	Z, 00105$
                           0007E5  2038 	C$scene.c$321$2_0$208	= .
                                   2039 	.globl	C$scene.c$321$2_0$208
                                   2040 ;src/scene.c:321: next_map_gen_step();
      0007E5 CDrA6r0B              2041 	call	_next_map_gen_step
      0007E8 18 ED                 2042 	jr	00103$
      0007EA                       2043 00105$:
                           0007EA  2044 	C$scene.c$324$1_0$206	= .
                                   2045 	.globl	C$scene.c$324$1_0$206
                                   2046 ;src/scene.c:324: walker_byte &= 0x30;
      0007EA 21rD5r00              2047 	ld	hl, #_walker_byte
      0007ED 7E                    2048 	ld	a, (hl)
      0007EE E6 30                 2049 	and	a, #0x30
      0007F0 77                    2050 	ld	(hl), a
                           0007F1  2051 	C$scene.c$325$1_0$206	= .
                                   2052 	.globl	C$scene.c$325$1_0$206
                                   2053 ;src/scene.c:325: malloc_i = 0;
      0007F1 21rD6r00              2054 	ld	hl, #_malloc_i
      0007F4 36 00                 2055 	ld	(hl), #0x00
                           0007F6  2056 	C$scene.c$327$1_0$206	= .
                                   2057 	.globl	C$scene.c$327$1_0$206
                                   2058 ;src/scene.c:327: if(!is_generated){
      0007F6 21r3Er01              2059 	ld	hl, #_is_generated
      0007F9 CB 46                 2060 	bit	0, (hl)
      0007FB 20 27                 2061 	jr	NZ, 00109$
                           0007FD  2062 	C$scene.c$328$2_0$209	= .
                                   2063 	.globl	C$scene.c$328$2_0$209
                                   2064 ;src/scene.c:328: set_bkg_tiles(map_pos_x, camera_y_clamped << 3, 20, base_floor_map_height, floor_map);
      0007FD 01r00r00              2065 	ld	bc, #_base_floor_map+0
      000800 21r0Er00              2066 	ld	hl, #_camera_y_clamped
      000803 7E                    2067 	ld	a, (hl)
      000804 87                    2068 	add	a, a
      000805 87                    2069 	add	a, a
      000806 87                    2070 	add	a, a
      000807 C5                    2071 	push	bc
      000808 26 08                 2072 	ld	h, #0x08
                                   2073 ;	spillPairReg hl
                                   2074 ;	spillPairReg hl
      00080A E5                    2075 	push	hl
      00080B 33                    2076 	inc	sp
      00080C 26 14                 2077 	ld	h, #0x14
                                   2078 ;	spillPairReg hl
                                   2079 ;	spillPairReg hl
      00080E E5                    2080 	push	hl
      00080F 33                    2081 	inc	sp
      000810 67                    2082 	ld	h, a
      000811 2E 01                 2083 	ld	l, #0x01
      000813 E5                    2084 	push	hl
      000814 CDr00r00              2085 	call	_set_bkg_tiles
      000817 E8 06                 2086 	add	sp, #6
                           000819  2087 	C$scene.c$329$2_0$209	= .
                                   2088 	.globl	C$scene.c$329$2_0$209
                                   2089 ;src/scene.c:329: if(camera_y_clamped == 0) is_generated = true;    
      000819 FAr0Er00              2090 	ld	a, (#_camera_y_clamped)
      00081C B7                    2091 	or	a, a
      00081D 20 05                 2092 	jr	NZ, 00109$
      00081F 21r3Er01              2093 	ld	hl, #_is_generated
      000822 36 01                 2094 	ld	(hl), #0x01
      000824                       2095 00109$:
                           000824  2096 	C$scene.c$332$1_1$210	= .
                                   2097 	.globl	C$scene.c$332$1_1$210
                                   2098 ;src/scene.c:332: uint8_t y_draw = (camera_y_clamped << 3);
      000824 FAr0Er00              2099 	ld	a, (#_camera_y_clamped)
      000827 87                    2100 	add	a, a
      000828 87                    2101 	add	a, a
      000829 87                    2102 	add	a, a
                           00082A  2103 	C$scene.c$334$1_1$210	= .
                                   2104 	.globl	C$scene.c$334$1_1$210
                                   2105 ;src/scene.c:334: set_bkg_tiles(3, y_draw + 1, 16, 6, window_map);
      00082A 3C                    2106 	inc	a
      00082B F8 07                 2107 	ldhl	sp,	#7
      00082D 77                    2108 	ld	(hl), a
      00082E 11rD7r00              2109 	ld	de, #_window_map
      000831 D5                    2110 	push	de
      000832 11 10 06              2111 	ld	de, #0x610
      000835 D5                    2112 	push	de
      000836 66                    2113 	ld	h, (hl)
      000837 2E 03                 2114 	ld	l, #0x03
      000839 E5                    2115 	push	hl
      00083A CDr00r00              2116 	call	_set_bkg_tiles
      00083D E8 06                 2117 	add	sp, #6
                           00083F  2118 	C$scene.c$338$2_2$212	= .
                                   2119 	.globl	C$scene.c$338$2_2$212
                                   2120 ;src/scene.c:338: for ( i = 0; i < 4; i++)
      00083F 21r01r00              2121 	ld	hl, #_i
      000842 36 00                 2122 	ld	(hl), #0x00
      000844 F8 05                 2123 	ldhl	sp,	#5
      000846 7D                    2124 	ld	a, l
      000847 54                    2125 	ld	d, h
      000848 F8 08                 2126 	ldhl	sp,	#8
      00084A 22                    2127 	ld	(hl+), a
      00084B 72                    2128 	ld	(hl), d
      00084C                       2129 00113$:
                           00084C  2130 	C$scene.c$342$3_2$213	= .
                                   2131 	.globl	C$scene.c$342$3_2$213
                                   2132 ;src/scene.c:342: collider = top_info[(UINT8)(window_components_on_current_floor[i] >> 4)].collider;
      00084C 3Er08                 2133 	ld	a, #<(_window_components_on_current_floor)
      00084E 21r01r00              2134 	ld	hl, #_i
      000851 86                    2135 	add	a, (hl)
      000852 4F                    2136 	ld	c, a
      000853 3Es00                 2137 	ld	a, #>(_window_components_on_current_floor)
      000855 CE 00                 2138 	adc	a, #0x00
      000857 47                    2139 	ld	b, a
      000858 0A                    2140 	ld	a, (bc)
      000859 CB 37                 2141 	swap	a
      00085B E6 0F                 2142 	and	a, #0x0f
      00085D 4F                    2143 	ld	c, a
      00085E 06 00                 2144 	ld	b, #0x00
      000860 69                    2145 	ld	l, c
      000861 60                    2146 	ld	h, b
      000862 29                    2147 	add	hl, hl
      000863 29                    2148 	add	hl, hl
      000864 29                    2149 	add	hl, hl
      000865 09                    2150 	add	hl, bc
      000866 11r5Br05              2151 	ld	de, #_top_info
      000869 19                    2152 	add	hl, de
      00086A 01 04 00              2153 	ld	bc, #0x0004
      00086D 09                    2154 	add	hl, bc
      00086E 5D                    2155 	ld	e, l
      00086F 54                    2156 	ld	d, h
      000870 F8 00                 2157 	ldhl	sp,	#0
                                   2158 ;	spillPairReg hl
                                   2159 ;	spillPairReg hl
                                   2160 ;	spillPairReg hl
                                   2161 ;	spillPairReg hl
      000872 E5                    2162 	push	hl
      000873 01 05 00              2163 	ld	bc, #0x05
      000876 C5                    2164 	push	bc
      000877 D5                    2165 	push	de
      000878 E5                    2166 	push	hl
      000879 CDr00r00              2167 	call	___memcpy
      00087C E8 06                 2168 	add	sp, #6
      00087E C1                    2169 	pop	bc
                           00087F  2170 	C$scene.c$343$3_2$213	= .
                                   2171 	.globl	C$scene.c$343$3_2$213
                                   2172 ;src/scene.c:343: collider.x += (3 + (i<<2)) << 3;
      00087F 0A                    2173 	ld	a, (bc)
      000880 5F                    2174 	ld	e, a
      000881 FAr01r00              2175 	ld	a, (#_i)
      000884 87                    2176 	add	a, a
      000885 87                    2177 	add	a, a
      000886 C6 03                 2178 	add	a, #0x03
      000888 87                    2179 	add	a, a
      000889 87                    2180 	add	a, a
      00088A 87                    2181 	add	a, a
      00088B 83                    2182 	add	a, e
      00088C 02                    2183 	ld	(bc), a
                           00088D  2184 	C$scene.c$344$3_2$213	= .
                                   2185 	.globl	C$scene.c$344$3_2$213
                                   2186 ;src/scene.c:344: collider.y += (1 + y_draw) << 3;
      00088D 69                    2187 	ld	l, c
      00088E 60                    2188 	ld	h, b
      00088F 23                    2189 	inc	hl
      000890 E5                    2190 	push	hl
      000891 7D                    2191 	ld	a, l
      000892 F8 0C                 2192 	ldhl	sp,	#12
      000894 77                    2193 	ld	(hl), a
      000895 E1                    2194 	pop	hl
      000896 7C                    2195 	ld	a, h
      000897 F8 0B                 2196 	ldhl	sp,	#11
      000899 32                    2197 	ld	(hl-), a
      00089A 2A                    2198 	ld	a, (hl+)
      00089B 5F                    2199 	ld	e, a
      00089C 56                    2200 	ld	d, (hl)
      00089D 1A                    2201 	ld	a, (de)
      00089E F5                    2202 	push	af
      00089F F8 09                 2203 	ldhl	sp,	#9
      0008A1 7E                    2204 	ld	a, (hl)
      0008A2 87                    2205 	add	a, a
      0008A3 87                    2206 	add	a, a
      0008A4 87                    2207 	add	a, a
      0008A5 F8 0E                 2208 	ldhl	sp,	#14
      0008A7 77                    2209 	ld	(hl), a
      0008A8 F1                    2210 	pop	af
      0008A9 86                    2211 	add	a, (hl)
      0008AA 2B                    2212 	dec	hl
      0008AB 2B                    2213 	dec	hl
      0008AC F5                    2214 	push	af
      0008AD 2A                    2215 	ld	a,	(hl+)
      0008AE 66                    2216 	ld	h, (hl)
      0008AF 6F                    2217 	ld	l, a
      0008B0 F1                    2218 	pop	af
      0008B1 77                    2219 	ld	(hl), a
                           0008B2  2220 	C$scene.c$345$3_2$213	= .
                                   2221 	.globl	C$scene.c$345$3_2$213
                                   2222 ;src/scene.c:345: rect_list[camera_y_clamped][0x07 & (i<<1 | 0x01)] = collider;
      0008B2 79                    2223 	ld	a, c
      0008B3 58                    2224 	ld	e, b
      0008B4 F8 0D                 2225 	ldhl	sp,	#13
      0008B6 22                    2226 	ld	(hl+), a
      0008B7 73                    2227 	ld	(hl), e
      0008B8 21r0Er00              2228 	ld	hl, #_camera_y_clamped
      0008BB 5E                    2229 	ld	e, (hl)
      0008BC 16 00                 2230 	ld	d, #0x00
      0008BE 6B                    2231 	ld	l, e
      0008BF 62                    2232 	ld	h, d
      0008C0 29                    2233 	add	hl, hl
      0008C1 29                    2234 	add	hl, hl
      0008C2 19                    2235 	add	hl, de
      0008C3 29                    2236 	add	hl, hl
      0008C4 29                    2237 	add	hl, hl
      0008C5 29                    2238 	add	hl, hl
      0008C6 E5                    2239 	push	hl
      0008C7 7D                    2240 	ld	a, l
      0008C8 F8 13                 2241 	ldhl	sp,	#19
      0008CA 77                    2242 	ld	(hl), a
      0008CB E1                    2243 	pop	hl
      0008CC 7C                    2244 	ld	a, h
      0008CD F8 12                 2245 	ldhl	sp,	#18
      0008CF 77                    2246 	ld	(hl), a
      0008D0 11r14r00              2247 	ld	de, #_rect_list
      0008D3 3A                    2248 	ld	a, (hl-)
      0008D4 6E                    2249 	ld	l, (hl)
      0008D5 67                    2250 	ld	h, a
      0008D6 19                    2251 	add	hl, de
      0008D7 E5                    2252 	push	hl
      0008D8 7D                    2253 	ld	a, l
      0008D9 F8 11                 2254 	ldhl	sp,	#17
      0008DB 77                    2255 	ld	(hl), a
      0008DC E1                    2256 	pop	hl
      0008DD 7C                    2257 	ld	a, h
      0008DE F8 10                 2258 	ldhl	sp,	#16
      0008E0 77                    2259 	ld	(hl), a
      0008E1 FAr01r00              2260 	ld	a, (#_i)
      0008E4 87                    2261 	add	a, a
      0008E5 CB C7                 2262 	set	0, a
      0008E7 E6 07                 2263 	and	a, #0x07
      0008E9 6F                    2264 	ld	l, a
                                   2265 ;	spillPairReg hl
                                   2266 ;	spillPairReg hl
      0008EA 26 00                 2267 	ld	h, #0x00
                                   2268 ;	spillPairReg hl
                                   2269 ;	spillPairReg hl
      0008EC 5D                    2270 	ld	e, l
      0008ED 54                    2271 	ld	d, h
      0008EE 29                    2272 	add	hl, hl
      0008EF 29                    2273 	add	hl, hl
      0008F0 19                    2274 	add	hl, de
      0008F1 E5                    2275 	push	hl
      0008F2 7D                    2276 	ld	a, l
      0008F3 F8 13                 2277 	ldhl	sp,	#19
      0008F5 77                    2278 	ld	(hl), a
      0008F6 E1                    2279 	pop	hl
      0008F7 7C                    2280 	ld	a, h
      0008F8 F8 12                 2281 	ldhl	sp,	#18
      0008FA 77                    2282 	ld	(hl), a
      0008FB F8 0F                 2283 	ldhl	sp,#15
      0008FD 2A                    2284 	ld	a, (hl+)
      0008FE 5F                    2285 	ld	e, a
      0008FF 2A                    2286 	ld	a, (hl+)
      000900 57                    2287 	ld	d, a
      000901 2A                    2288 	ld	a,	(hl+)
      000902 66                    2289 	ld	h, (hl)
      000903 6F                    2290 	ld	l, a
      000904 19                    2291 	add	hl, de
      000905 5D                    2292 	ld	e, l
      000906 54                    2293 	ld	d, h
      000907 C5                    2294 	push	bc
      000908 21 05 00              2295 	ld	hl, #0x0005
      00090B E5                    2296 	push	hl
      00090C F8 11                 2297 	ldhl	sp,	#17
      00090E 2A                    2298 	ld	a, (hl+)
      00090F 66                    2299 	ld	h, (hl)
                                   2300 ;	spillPairReg hl
                                   2301 ;	spillPairReg hl
      000910 6F                    2302 	ld	l, a
                                   2303 ;	spillPairReg hl
                                   2304 ;	spillPairReg hl
      000911 E5                    2305 	push	hl
      000912 D5                    2306 	push	de
      000913 CDr00r00              2307 	call	___memcpy
      000916 E8 06                 2308 	add	sp, #6
      000918 C1                    2309 	pop	bc
                           000919  2310 	C$scene.c$348$3_2$213	= .
                                   2311 	.globl	C$scene.c$348$3_2$213
                                   2312 ;src/scene.c:348: collider = bot_info[window_components_on_current_floor[i] & 0x0F].collider;
      000919 3Er08                 2313 	ld	a, #<(_window_components_on_current_floor)
      00091B 21r01r00              2314 	ld	hl, #_i
      00091E 86                    2315 	add	a, (hl)
      00091F 5F                    2316 	ld	e, a
      000920 3Es00                 2317 	ld	a, #>(_window_components_on_current_floor)
      000922 CE 00                 2318 	adc	a, #0x00
      000924 57                    2319 	ld	d, a
      000925 1A                    2320 	ld	a, (de)
      000926 E6 0F                 2321 	and	a, #0x0f
      000928 6F                    2322 	ld	l, a
                                   2323 ;	spillPairReg hl
                                   2324 ;	spillPairReg hl
      000929 26 00                 2325 	ld	h, #0x00
                                   2326 ;	spillPairReg hl
                                   2327 ;	spillPairReg hl
      00092B 5D                    2328 	ld	e, l
      00092C 54                    2329 	ld	d, h
      00092D 29                    2330 	add	hl, hl
      00092E 29                    2331 	add	hl, hl
      00092F 29                    2332 	add	hl, hl
      000930 19                    2333 	add	hl, de
      000931 11r25r05              2334 	ld	de, #_bot_info
      000934 19                    2335 	add	hl, de
      000935 23                    2336 	inc	hl
      000936 23                    2337 	inc	hl
      000937 23                    2338 	inc	hl
      000938 23                    2339 	inc	hl
      000939 59                    2340 	ld	e, c
      00093A 50                    2341 	ld	d, b
      00093B C5                    2342 	push	bc
      00093C 01 05 00              2343 	ld	bc, #0x05
      00093F C5                    2344 	push	bc
      000940 E5                    2345 	push	hl
      000941 D5                    2346 	push	de
      000942 CDr00r00              2347 	call	___memcpy
      000945 E8 06                 2348 	add	sp, #6
      000947 C1                    2349 	pop	bc
                           000948  2350 	C$scene.c$349$3_2$213	= .
                                   2351 	.globl	C$scene.c$349$3_2$213
                                   2352 ;src/scene.c:349: collider.x += (3 + (i<<2)) << 3;
      000948 0A                    2353 	ld	a, (bc)
      000949 5F                    2354 	ld	e, a
      00094A FAr01r00              2355 	ld	a, (#_i)
      00094D 87                    2356 	add	a, a
      00094E 87                    2357 	add	a, a
      00094F C6 03                 2358 	add	a, #0x03
      000951 87                    2359 	add	a, a
      000952 87                    2360 	add	a, a
      000953 87                    2361 	add	a, a
      000954 83                    2362 	add	a, e
      000955 02                    2363 	ld	(bc), a
                           000956  2364 	C$scene.c$350$3_2$213	= .
                                   2365 	.globl	C$scene.c$350$3_2$213
                                   2366 ;src/scene.c:350: collider.y += (1 + y_draw) << 3;
      000956 F8 0A                 2367 	ldhl	sp,#10
      000958 2A                    2368 	ld	a, (hl+)
      000959 5F                    2369 	ld	e, a
      00095A 2A                    2370 	ld	a, (hl+)
      00095B 57                    2371 	ld	d, a
      00095C 1A                    2372 	ld	a, (de)
      00095D 86                    2373 	add	a, (hl)
      00095E 2B                    2374 	dec	hl
      00095F 2B                    2375 	dec	hl
      000960 F5                    2376 	push	af
      000961 2A                    2377 	ld	a,	(hl+)
      000962 66                    2378 	ld	h, (hl)
      000963 6F                    2379 	ld	l, a
      000964 F1                    2380 	pop	af
      000965 77                    2381 	ld	(hl), a
                           000966  2382 	C$scene.c$351$3_2$213	= .
                                   2383 	.globl	C$scene.c$351$3_2$213
                                   2384 ;src/scene.c:351: rect_list[camera_y_clamped][0x07 & (i<<1)] = collider;
      000966 F8 11                 2385 	ldhl	sp,	#17
      000968 79                    2386 	ld	a, c
      000969 22                    2387 	ld	(hl+), a
      00096A 70                    2388 	ld	(hl), b
      00096B 21r0Er00              2389 	ld	hl, #_camera_y_clamped
      00096E 4E                    2390 	ld	c, (hl)
      00096F 06 00                 2391 	ld	b, #0x00
      000971 69                    2392 	ld	l, c
      000972 60                    2393 	ld	h, b
      000973 29                    2394 	add	hl, hl
      000974 29                    2395 	add	hl, hl
      000975 09                    2396 	add	hl, bc
      000976 29                    2397 	add	hl, hl
      000977 29                    2398 	add	hl, hl
      000978 29                    2399 	add	hl, hl
      000979 01r14r00              2400 	ld	bc,#_rect_list
      00097C 09                    2401 	add	hl,bc
      00097D 4D                    2402 	ld	c, l
      00097E 44                    2403 	ld	b, h
      00097F FAr01r00              2404 	ld	a, (#_i)
      000982 87                    2405 	add	a, a
      000983 F5                    2406 	push	af
      000984 07                    2407 	rlca
      000985 F1                    2408 	pop	af
      000986 E6 07                 2409 	and	a, #0x07
      000988 6F                    2410 	ld	l, a
                                   2411 ;	spillPairReg hl
                                   2412 ;	spillPairReg hl
      000989 26 00                 2413 	ld	h, #0x00
                                   2414 ;	spillPairReg hl
                                   2415 ;	spillPairReg hl
      00098B 5D                    2416 	ld	e, l
      00098C 54                    2417 	ld	d, h
      00098D 29                    2418 	add	hl, hl
      00098E 29                    2419 	add	hl, hl
      00098F 19                    2420 	add	hl, de
      000990 09                    2421 	add	hl, bc
      000991 4D                    2422 	ld	c, l
      000992 44                    2423 	ld	b, h
      000993 11 05 00              2424 	ld	de, #0x0005
      000996 D5                    2425 	push	de
      000997 F8 13                 2426 	ldhl	sp,	#19
      000999 2A                    2427 	ld	a, (hl+)
      00099A 5F                    2428 	ld	e, a
      00099B 56                    2429 	ld	d, (hl)
      00099C D5                    2430 	push	de
      00099D C5                    2431 	push	bc
      00099E CDr00r00              2432 	call	___memcpy
      0009A1 E8 06                 2433 	add	sp, #6
                           0009A3  2434 	C$scene.c$355$3_2$213	= .
                                   2435 	.globl	C$scene.c$355$3_2$213
                                   2436 ;src/scene.c:355: temp_window.components = window_components_on_current_floor[i];
      0009A3 F8 05                 2437 	ldhl	sp,	#5
      0009A5 4D                    2438 	ld	c, l
      0009A6 44                    2439 	ld	b, h
      0009A7 3Er08                 2440 	ld	a, #<(_window_components_on_current_floor)
      0009A9 21r01r00              2441 	ld	hl, #_i
      0009AC 86                    2442 	add	a, (hl)
      0009AD 5F                    2443 	ld	e, a
      0009AE 3Es00                 2444 	ld	a, #>(_window_components_on_current_floor)
      0009B0 CE 00                 2445 	adc	a, #0x00
      0009B2 57                    2446 	ld	d, a
      0009B3 1A                    2447 	ld	a, (de)
      0009B4 02                    2448 	ld	(bc), a
                           0009B5  2449 	C$scene.c$356$3_2$213	= .
                                   2450 	.globl	C$scene.c$356$3_2$213
                                   2451 ;src/scene.c:356: temp_window.status = 0x00;
      0009B5 F8 08                 2452 	ldhl	sp,	#8
      0009B7 2A                    2453 	ld	a, (hl+)
      0009B8 4F                    2454 	ld	c, a
      0009B9 46                    2455 	ld	b, (hl)
      0009BA 03                    2456 	inc	bc
      0009BB AF                    2457 	xor	a, a
      0009BC 02                    2458 	ld	(bc), a
                           0009BD  2459 	C$scene.c$359$3_2$213	= .
                                   2460 	.globl	C$scene.c$359$3_2$213
                                   2461 ;src/scene.c:359: if((window_components_on_current_floor[i] & 0x0F) == 0x05){
      0009BD 3Er08                 2462 	ld	a, #<(_window_components_on_current_floor)
      0009BF 21r01r00              2463 	ld	hl, #_i
      0009C2 86                    2464 	add	a, (hl)
      0009C3 4F                    2465 	ld	c, a
      0009C4 3Es00                 2466 	ld	a, #>(_window_components_on_current_floor)
      0009C6 CE 00                 2467 	adc	a, #0x00
      0009C8 47                    2468 	ld	b, a
      0009C9 0A                    2469 	ld	a, (bc)
      0009CA E6 0F                 2470 	and	a, #0x0f
      0009CC 4F                    2471 	ld	c, a
      0009CD 06 00                 2472 	ld	b, #0x00
      0009CF 79                    2473 	ld	a, c
      0009D0 D6 05                 2474 	sub	a, #0x05
      0009D2 B0                    2475 	or	a, b
      0009D3 20 0A                 2476 	jr	NZ, 00111$
                           0009D5  2477 	C$scene.c$360$4_2$214	= .
                                   2478 	.globl	C$scene.c$360$4_2$214
                                   2479 ;src/scene.c:360: add_clothes_to_rag(&temp_window);
      0009D5 F8 08                 2480 	ldhl	sp,	#8
      0009D7 2A                    2481 	ld	a, (hl+)
      0009D8 4F                    2482 	ld	c, a
      0009D9 46                    2483 	ld	b, (hl)
      0009DA C5                    2484 	push	bc
      0009DB CDr15r0A              2485 	call	_add_clothes_to_rag
      0009DE E1                    2486 	pop	hl
      0009DF                       2487 00111$:
                           0009DF  2488 	C$scene.c$362$3_2$213	= .
                                   2489 	.globl	C$scene.c$362$3_2$213
                                   2490 ;src/scene.c:362: map_components[camera_y_clamped][i] = temp_window;
      0009DF F8 08                 2491 	ldhl	sp,	#8
      0009E1 2A                    2492 	ld	a, (hl+)
      0009E2 4F                    2493 	ld	c, a
      0009E3 46                    2494 	ld	b, (hl)
      0009E4 21r0Er00              2495 	ld	hl, #_camera_y_clamped
      0009E7 6E                    2496 	ld	l, (hl)
                                   2497 ;	spillPairReg hl
                                   2498 ;	spillPairReg hl
      0009E8 26 00                 2499 	ld	h, #0x00
                                   2500 ;	spillPairReg hl
                                   2501 ;	spillPairReg hl
      0009EA 29                    2502 	add	hl, hl
      0009EB 29                    2503 	add	hl, hl
      0009EC 29                    2504 	add	hl, hl
      0009ED 7D                    2505 	ld	a, l
      0009EE C6rB4                 2506 	add	a, #<(_map_components)
      0009F0 5F                    2507 	ld	e, a
      0009F1 7C                    2508 	ld	a, h
      0009F2 CEs00                 2509 	adc	a, #>(_map_components)
      0009F4 57                    2510 	ld	d, a
      0009F5 FAr01r00              2511 	ld	a, (#_i)
      0009F8 87                    2512 	add	a, a
      0009F9 6F                    2513 	ld	l, a
      0009FA 26 00                 2514 	ld	h, #0x00
      0009FC 19                    2515 	add	hl, de
      0009FD 11 02 00              2516 	ld	de, #0x0002
      000A00 D5                    2517 	push	de
      000A01 C5                    2518 	push	bc
      000A02 E5                    2519 	push	hl
      000A03 CDr00r00              2520 	call	___memcpy
      000A06 E8 06                 2521 	add	sp, #6
                           000A08  2522 	C$scene.c$338$2_2$212	= .
                                   2523 	.globl	C$scene.c$338$2_2$212
                                   2524 ;src/scene.c:338: for ( i = 0; i < 4; i++)
      000A08 21r01r00              2525 	ld	hl, #_i
      000A0B 34                    2526 	inc	(hl)
      000A0C 7E                    2527 	ld	a, (hl)
      000A0D D6 04                 2528 	sub	a, #0x04
      000A0F DAr4Cr08              2529 	jp	C, 00113$
                           000A12  2530 	C$scene.c$364$2_2$206	= .
                                   2531 	.globl	C$scene.c$364$2_2$206
                                   2532 ;src/scene.c:364: }
      000A12 E8 13                 2533 	add	sp, #19
                           000A14  2534 	C$scene.c$364$2_2$206	= .
                                   2535 	.globl	C$scene.c$364$2_2$206
                           000A14  2536 	XG$gen_new_floor$0$0	= .
                                   2537 	.globl	XG$gen_new_floor$0$0
      000A14 C9                    2538 	ret
                           000A15  2539 	G$add_clothes_to_rag$0$0	= .
                                   2540 	.globl	G$add_clothes_to_rag$0$0
                           000A15  2541 	C$scene.c$366$2_2$216	= .
                                   2542 	.globl	C$scene.c$366$2_2$216
                                   2543 ;src/scene.c:366: void add_clothes_to_rag(window_status* temp_window){
                                   2544 ;	---------------------------------
                                   2545 ; Function add_clothes_to_rag
                                   2546 ; ---------------------------------
      000A15                       2547 _add_clothes_to_rag::
      000A15 E8 FB                 2548 	add	sp, #-5
                           000A17  2549 	C$scene.c$367$1_0$216	= .
                                   2550 	.globl	C$scene.c$367$1_0$216
                                   2551 ;src/scene.c:367: uint8_t temp_rand = rand();
      000A17 CDr00r00              2552 	call	_rand
      000A1A F8 00                 2553 	ldhl	sp,	#0
      000A1C 73                    2554 	ld	(hl), e
                           000A1D  2555 	C$scene.c$368$1_0$216	= .
                                   2556 	.globl	C$scene.c$368$1_0$216
                                   2557 ;src/scene.c:368: uint8_t particle_x = ((3 + (i<<2)) << 3) + 8u;
      000A1D FAr01r00              2558 	ld	a, (#_i)
      000A20 87                    2559 	add	a, a
      000A21 87                    2560 	add	a, a
      000A22 C6 03                 2561 	add	a, #0x03
      000A24 87                    2562 	add	a, a
      000A25 87                    2563 	add	a, a
      000A26 87                    2564 	add	a, a
      000A27 C6 08                 2565 	add	a, #0x08
      000A29 F8 01                 2566 	ldhl	sp,	#1
      000A2B 77                    2567 	ld	(hl), a
                           000A2C  2568 	C$scene.c$369$1_0$216	= .
                                   2569 	.globl	C$scene.c$369$1_0$216
                                   2570 ;src/scene.c:369: uint8_t particle_y = (((camera_y_clamped << 3) + 5) << 3) + 17u;
      000A2C FAr0Er00              2571 	ld	a, (#_camera_y_clamped)
      000A2F 87                    2572 	add	a, a
      000A30 87                    2573 	add	a, a
      000A31 87                    2574 	add	a, a
      000A32 C6 05                 2575 	add	a, #0x05
      000A34 87                    2576 	add	a, a
      000A35 87                    2577 	add	a, a
      000A36 87                    2578 	add	a, a
      000A37 C6 11                 2579 	add	a, #0x11
      000A39 F8 02                 2580 	ldhl	sp,	#2
                           000A3B  2581 	C$scene.c$371$1_0$216	= .
                                   2582 	.globl	C$scene.c$371$1_0$216
                                   2583 ;src/scene.c:371: uint8_t rack_status = 0x00;
                           000A3B  2584 	C$scene.c$372$1_0$216	= .
                                   2585 	.globl	C$scene.c$372$1_0$216
                                   2586 ;src/scene.c:372: if((temp_rand >> 1) & 0x01){
      000A3B 32                    2587 	ld	(hl-), a
      000A3C 2B                    2588 	dec	hl
      000A3D 1E 00                 2589 	ld	e, #0x00
      000A3F 7E                    2590 	ld	a, (hl)
      000A40 0F                    2591 	rrca
      000A41 E6 01                 2592 	and	a,#0x01
      000A43 CArE1r0A              2593 	jp	Z, 00105$
                           000A46  2594 	C$scene.c$374$3_0$218	= .
                                   2595 	.globl	C$scene.c$374$3_0$218
                                   2596 ;src/scene.c:374: for(object_sprite = 0; object_sprite < 4; object_sprite++){
      000A46 F8 03                 2597 	ldhl	sp,	#3
      000A48 36 00                 2598 	ld	(hl), #0x00
      000A4A 0E 00                 2599 	ld	c, #0x00
      000A4C                       2600 00117$:
                           000A4C  2601 	C$scene.c$375$4_0$219	= .
                                   2602 	.globl	C$scene.c$375$4_0$219
                                   2603 ;src/scene.c:375: if((deactivate_weeds_flag >> (object_sprite << 1)) & 0x03){
      000A4C 79                    2604 	ld	a, c
      000A4D 87                    2605 	add	a, a
      000A4E F5                    2606 	push	af
      000A4F 21r3Cr01              2607 	ld	hl, #_deactivate_weeds_flag
      000A52 46                    2608 	ld	b, (hl)
      000A53 F1                    2609 	pop	af
      000A54 3C                    2610 	inc	a
      000A55 18 02                 2611 	jr	00159$
      000A57                       2612 00158$:
      000A57 CB 38                 2613 	srl	b
      000A59                       2614 00159$:
      000A59 3D                    2615 	dec	a
      000A5A 20 FB                 2616 	jr	NZ, 00158$
      000A5C 78                    2617 	ld	a, b
      000A5D E6 03                 2618 	and	a, #0x03
      000A5F 28 76                 2619 	jr	Z, 00118$
                           000A61  2620 	C$scene.c$377$5_0$220	= .
                                   2621 	.globl	C$scene.c$377$5_0$220
                                   2622 ;src/scene.c:377: deactivate_weeds_flag ^= 0b00000001 << (object_sprite << 1);
      000A61 F8 03                 2623 	ldhl	sp,	#3
      000A63 5E                    2624 	ld	e, (hl)
      000A64 7B                    2625 	ld	a, e
      000A65 87                    2626 	add	a, a
      000A66 47                    2627 	ld	b, a
      000A67 3E 01                 2628 	ld	a, #0x01
      000A69 04                    2629 	inc	b
      000A6A 18 01                 2630 	jr	00162$
      000A6C                       2631 00161$:
      000A6C 87                    2632 	add	a, a
      000A6D                       2633 00162$:
      000A6D 05                    2634 	dec	b
      000A6E 20 FC                 2635 	jr	NZ,00161$
      000A70 21r3Cr01              2636 	ld	hl, #_deactivate_weeds_flag
      000A73 AE                    2637 	xor	a, (hl)
      000A74 77                    2638 	ld	(hl), a
                                   2639 ;src/scene.c:378: set_sprite_tile(16 + object_sprite, possible_clothes[(temp_rand & 0x01)]);
      000A75 F8 00                 2640 	ldhl	sp,	#0
      000A77 7E                    2641 	ld	a, (hl)
      000A78 E6 01                 2642 	and	a, #0x01
      000A7A 4F                    2643 	ld	c, a
      000A7B 06 00                 2644 	ld	b, #0x00
      000A7D 21rA8r05              2645 	ld	hl, #_possible_clothes
      000A80 09                    2646 	add	hl, bc
      000A81 4E                    2647 	ld	c, (hl)
      000A82 7B                    2648 	ld	a, e
      000A83 C6 10                 2649 	add	a, #0x10
      000A85 F8 04                 2650 	ldhl	sp,	#4
      000A87 77                    2651 	ld	(hl), a
                                   2652 ;C:/gbdk/include/gb/gb.h:1447: shadow_OAM[nb].tile=tile;
      000A88 6E                    2653 	ld	l, (hl)
                                   2654 ;	spillPairReg hl
                                   2655 ;	spillPairReg hl
      000A89 26 00                 2656 	ld	h, #0x00
                                   2657 ;	spillPairReg hl
                                   2658 ;	spillPairReg hl
      000A8B 29                    2659 	add	hl, hl
      000A8C 29                    2660 	add	hl, hl
      000A8D 11r00r00              2661 	ld	de, #_shadow_OAM
      000A90 19                    2662 	add	hl, de
      000A91 23                    2663 	inc	hl
      000A92 23                    2664 	inc	hl
      000A93 71                    2665 	ld	(hl), c
                           000A94  2666 	C$scene.c$379$5_0$220	= .
                                   2667 	.globl	C$scene.c$379$5_0$220
                                   2668 ;src/scene.c:379: clothes_position[object_sprite] = particle_y;
      000A94 01r37r01              2669 	ld	bc, #_clothes_position+0
      000A97 F8 03                 2670 	ldhl	sp,	#3
      000A99 6E                    2671 	ld	l, (hl)
      000A9A 26 00                 2672 	ld	h, #0x00
      000A9C 09                    2673 	add	hl, bc
      000A9D 4D                    2674 	ld	c, l
      000A9E 44                    2675 	ld	b, h
      000A9F F8 02                 2676 	ldhl	sp,	#2
      000AA1 7E                    2677 	ld	a, (hl)
      000AA2 02                    2678 	ld	(bc), a
                                   2679 ;src/scene.c:380: move_sprite(16 + object_sprite, particle_x, particle_y - camera_y);
      000AA3 7E                    2680 	ld	a, (hl)
      000AA4 21r0Cr00              2681 	ld	hl, #_camera_y
      000AA7 96                    2682 	sub	a, (hl)
      000AA8 4F                    2683 	ld	c, a
      000AA9 F8 04                 2684 	ldhl	sp,	#4
                                   2685 ;C:/gbdk/include/gb/gb.h:1520: OAM_item_t * itm = &shadow_OAM[nb];
      000AAB 6E                    2686 	ld	l, (hl)
                                   2687 ;	spillPairReg hl
                                   2688 ;	spillPairReg hl
      000AAC 26 00                 2689 	ld	h, #0x00
                                   2690 ;	spillPairReg hl
                                   2691 ;	spillPairReg hl
      000AAE 29                    2692 	add	hl, hl
      000AAF 29                    2693 	add	hl, hl
      000AB0 11r00r00              2694 	ld	de, #_shadow_OAM
      000AB3 19                    2695 	add	hl, de
                                   2696 ;C:/gbdk/include/gb/gb.h:1521: itm->y=y, itm->x=x;
      000AB4 79                    2697 	ld	a, c
      000AB5 22                    2698 	ld	(hl+), a
      000AB6 4D                    2699 	ld	c, l
      000AB7 44                    2700 	ld	b, h
      000AB8 F8 01                 2701 	ldhl	sp,	#1
      000ABA 7E                    2702 	ld	a, (hl)
      000ABB 02                    2703 	ld	(bc), a
                           000ABC  2704 	C$scene.c$381$5_0$220	= .
                                   2705 	.globl	C$scene.c$381$5_0$220
                                   2706 ;src/scene.c:381: clothes_speed &= ~(0b00000011 << (i<<1));
      000ABC FAr01r00              2707 	ld	a, (#_i)
      000ABF 87                    2708 	add	a, a
      000AC0 47                    2709 	ld	b, a
      000AC1 3E 03                 2710 	ld	a, #0x03
      000AC3 04                    2711 	inc	b
      000AC4 18 01                 2712 	jr	00164$
      000AC6                       2713 00163$:
      000AC6 87                    2714 	add	a, a
      000AC7                       2715 00164$:
      000AC7 05                    2716 	dec	b
      000AC8 20 FC                 2717 	jr	NZ,00163$
      000ACA 2F                    2718 	cpl
      000ACB 21r3Br01              2719 	ld	hl, #_clothes_speed
      000ACE A6                    2720 	and	a, (hl)
      000ACF 77                    2721 	ld	(hl), a
                           000AD0  2722 	C$scene.c$384$5_0$220	= .
                                   2723 	.globl	C$scene.c$384$5_0$220
                                   2724 ;src/scene.c:384: rack_status |= object_sprite;
      000AD0 F8 03                 2725 	ldhl	sp,	#3
      000AD2 5E                    2726 	ld	e, (hl)
      000AD3 CB DB                 2727 	set	3, e
                           000AD5  2728 	C$scene.c$385$5_0$220	= .
                                   2729 	.globl	C$scene.c$385$5_0$220
                                   2730 ;src/scene.c:385: break;
      000AD5 18 0A                 2731 	jr	00105$
      000AD7                       2732 00118$:
                           000AD7  2733 	C$scene.c$374$3_0$218	= .
                                   2734 	.globl	C$scene.c$374$3_0$218
                                   2735 ;src/scene.c:374: for(object_sprite = 0; object_sprite < 4; object_sprite++){
      000AD7 0C                    2736 	inc	c
      000AD8 F8 03                 2737 	ldhl	sp,	#3
      000ADA 71                    2738 	ld	(hl), c
      000ADB 79                    2739 	ld	a, c
      000ADC D6 04                 2740 	sub	a, #0x04
      000ADE DAr4Cr0A              2741 	jp	C, 00117$
      000AE1                       2742 00105$:
                           000AE1  2743 	C$scene.c$390$1_0$216	= .
                                   2744 	.globl	C$scene.c$390$1_0$216
                                   2745 ;src/scene.c:390: particle_x += 8;
      000AE1 F8 01                 2746 	ldhl	sp,	#1
      000AE3 2A                    2747 	ld	a, (hl+)
      000AE4 23                    2748 	inc	hl
      000AE5 C6 08                 2749 	add	a, #0x08
      000AE7 77                    2750 	ld	(hl), a
                           000AE8  2751 	C$scene.c$391$1_0$216	= .
                                   2752 	.globl	C$scene.c$391$1_0$216
                                   2753 ;src/scene.c:391: if((temp_rand >> 3) & 0x01){
      000AE8 F8 00                 2754 	ldhl	sp,	#0
      000AEA 7E                    2755 	ld	a, (hl)
      000AEB 0F                    2756 	rrca
      000AEC 0F                    2757 	rrca
      000AED 0F                    2758 	rrca
      000AEE E6 01                 2759 	and	a,#0x01
      000AF0 CAr98r0B              2760 	jp	Z, 00112$
                           000AF3  2761 	C$scene.c$393$3_0$222	= .
                                   2762 	.globl	C$scene.c$393$3_0$222
                                   2763 ;src/scene.c:393: for(object_sprite = 0; object_sprite < 4; object_sprite++){
      000AF3 F8 04                 2764 	ldhl	sp,	#4
      000AF5 36 00                 2765 	ld	(hl), #0x00
      000AF7 0E 00                 2766 	ld	c, #0x00
      000AF9                       2767 00119$:
                           000AF9  2768 	C$scene.c$394$4_0$223	= .
                                   2769 	.globl	C$scene.c$394$4_0$223
                                   2770 ;src/scene.c:394: if((deactivate_weeds_flag >> (object_sprite << 1)) & 0x03){
      000AF9 79                    2771 	ld	a, c
      000AFA 87                    2772 	add	a, a
      000AFB 57                    2773 	ld	d, a
      000AFC 21r3Cr01              2774 	ld	hl, #_deactivate_weeds_flag
      000AFF 46                    2775 	ld	b, (hl)
      000B00 14                    2776 	inc	d
      000B01 18 02                 2777 	jr	00166$
      000B03                       2778 00165$:
      000B03 CB 38                 2779 	srl	b
      000B05                       2780 00166$:
      000B05 15                    2781 	dec	d
      000B06 20 FB                 2782 	jr	NZ, 00165$
      000B08 78                    2783 	ld	a, b
      000B09 E6 03                 2784 	and	a, #0x03
      000B0B CAr8Er0B              2785 	jp	Z,00120$
                           000B0E  2786 	C$scene.c$396$5_0$224	= .
                                   2787 	.globl	C$scene.c$396$5_0$224
                                   2788 ;src/scene.c:396: deactivate_weeds_flag ^= 0b00000001 << (object_sprite << 1);
      000B0E F8 04                 2789 	ldhl	sp,	#4
      000B10 56                    2790 	ld	d, (hl)
      000B11 7A                    2791 	ld	a, d
      000B12 87                    2792 	add	a, a
      000B13 47                    2793 	ld	b, a
      000B14 3E 01                 2794 	ld	a, #0x01
      000B16 04                    2795 	inc	b
      000B17 18 01                 2796 	jr	00169$
      000B19                       2797 00168$:
      000B19 87                    2798 	add	a, a
      000B1A                       2799 00169$:
      000B1A 05                    2800 	dec	b
      000B1B 20 FC                 2801 	jr	NZ,00168$
      000B1D 21r3Cr01              2802 	ld	hl, #_deactivate_weeds_flag
      000B20 AE                    2803 	xor	a, (hl)
      000B21 77                    2804 	ld	(hl), a
                                   2805 ;src/scene.c:397: set_sprite_tile(16 + object_sprite, possible_clothes[((temp_rand>>2) & 0x01)]);
      000B22 F8 00                 2806 	ldhl	sp,	#0
      000B24 7E                    2807 	ld	a, (hl)
      000B25 0F                    2808 	rrca
      000B26 0F                    2809 	rrca
      000B27 E6 01                 2810 	and	a, #0x01
      000B29 4F                    2811 	ld	c, a
      000B2A 21rA8r05              2812 	ld	hl, #_possible_clothes
      000B2D 06 00                 2813 	ld	b, #0x00
      000B2F 09                    2814 	add	hl, bc
      000B30 4E                    2815 	ld	c, (hl)
      000B31 7A                    2816 	ld	a, d
      000B32 C6 10                 2817 	add	a, #0x10
      000B34 F8 01                 2818 	ldhl	sp,	#1
      000B36 77                    2819 	ld	(hl), a
                                   2820 ;C:/gbdk/include/gb/gb.h:1447: shadow_OAM[nb].tile=tile;
      000B37 6E                    2821 	ld	l, (hl)
                                   2822 ;	spillPairReg hl
                                   2823 ;	spillPairReg hl
      000B38 26 00                 2824 	ld	h, #0x00
                                   2825 ;	spillPairReg hl
                                   2826 ;	spillPairReg hl
      000B3A 29                    2827 	add	hl, hl
      000B3B 29                    2828 	add	hl, hl
      000B3C D5                    2829 	push	de
      000B3D 11r00r00              2830 	ld	de, #_shadow_OAM
      000B40 19                    2831 	add	hl, de
      000B41 23                    2832 	inc	hl
      000B42 23                    2833 	inc	hl
      000B43 D1                    2834 	pop	de
      000B44 71                    2835 	ld	(hl), c
                           000B45  2836 	C$scene.c$398$5_0$224	= .
                                   2837 	.globl	C$scene.c$398$5_0$224
                                   2838 ;src/scene.c:398: clothes_position[object_sprite] = particle_y;
      000B45 01r37r01              2839 	ld	bc, #_clothes_position+0
      000B48 F8 04                 2840 	ldhl	sp,	#4
      000B4A 6E                    2841 	ld	l, (hl)
      000B4B 26 00                 2842 	ld	h, #0x00
      000B4D 09                    2843 	add	hl, bc
      000B4E 4D                    2844 	ld	c, l
      000B4F 44                    2845 	ld	b, h
      000B50 F8 02                 2846 	ldhl	sp,	#2
      000B52 7E                    2847 	ld	a, (hl)
      000B53 02                    2848 	ld	(bc), a
                                   2849 ;src/scene.c:399: move_sprite(16 + object_sprite, particle_x, particle_y - camera_y);
      000B54 7E                    2850 	ld	a, (hl)
      000B55 21r0Cr00              2851 	ld	hl, #_camera_y
      000B58 96                    2852 	sub	a, (hl)
      000B59 57                    2853 	ld	d, a
      000B5A F8 01                 2854 	ldhl	sp,	#1
                                   2855 ;C:/gbdk/include/gb/gb.h:1520: OAM_item_t * itm = &shadow_OAM[nb];
      000B5C 6E                    2856 	ld	l, (hl)
                                   2857 ;	spillPairReg hl
                                   2858 ;	spillPairReg hl
      000B5D 26 00                 2859 	ld	h, #0x00
                                   2860 ;	spillPairReg hl
                                   2861 ;	spillPairReg hl
      000B5F 29                    2862 	add	hl, hl
      000B60 29                    2863 	add	hl, hl
      000B61 01r00r00              2864 	ld	bc, #_shadow_OAM
      000B64 09                    2865 	add	hl, bc
                                   2866 ;C:/gbdk/include/gb/gb.h:1521: itm->y=y, itm->x=x;
      000B65 7A                    2867 	ld	a, d
      000B66 22                    2868 	ld	(hl+), a
      000B67 4D                    2869 	ld	c, l
      000B68 44                    2870 	ld	b, h
      000B69 F8 03                 2871 	ldhl	sp,	#3
      000B6B 7E                    2872 	ld	a, (hl)
      000B6C 02                    2873 	ld	(bc), a
                           000B6D  2874 	C$scene.c$400$5_0$224	= .
                                   2875 	.globl	C$scene.c$400$5_0$224
                                   2876 ;src/scene.c:400: clothes_speed &= ~(0b00000011 << (i<<1));
      000B6D FAr01r00              2877 	ld	a, (#_i)
      000B70 87                    2878 	add	a, a
      000B71 47                    2879 	ld	b, a
      000B72 3E 03                 2880 	ld	a, #0x03
      000B74 04                    2881 	inc	b
      000B75 18 01                 2882 	jr	00171$
      000B77                       2883 00170$:
      000B77 87                    2884 	add	a, a
      000B78                       2885 00171$:
      000B78 05                    2886 	dec	b
      000B79 20 FC                 2887 	jr	NZ,00170$
      000B7B 2F                    2888 	cpl
      000B7C 21r3Br01              2889 	ld	hl, #_clothes_speed
      000B7F A6                    2890 	and	a, (hl)
      000B80 77                    2891 	ld	(hl), a
                           000B81  2892 	C$scene.c$402$5_0$224	= .
                                   2893 	.globl	C$scene.c$402$5_0$224
                                   2894 ;src/scene.c:402: rack_status |= 0b00000100;
      000B81 CB D3                 2895 	set	2, e
                           000B83  2896 	C$scene.c$403$5_0$224	= .
                                   2897 	.globl	C$scene.c$403$5_0$224
                                   2898 ;src/scene.c:403: if((rack_status & 0b00001000) == 0x00){
      000B83 CB 5B                 2899 	bit	3, e
      000B85 20 11                 2900 	jr	NZ, 00112$
                           000B87  2901 	C$scene.c$404$6_0$225	= .
                                   2902 	.globl	C$scene.c$404$6_0$225
                                   2903 ;src/scene.c:404: rack_status |= object_sprite;
      000B87 7B                    2904 	ld	a, e
      000B88 F8 04                 2905 	ldhl	sp,	#4
      000B8A B6                    2906 	or	a, (hl)
      000B8B 5F                    2907 	ld	e, a
                           000B8C  2908 	C$scene.c$406$5_0$224	= .
                                   2909 	.globl	C$scene.c$406$5_0$224
                                   2910 ;src/scene.c:406: break;
      000B8C 18 0A                 2911 	jr	00112$
      000B8E                       2912 00120$:
                           000B8E  2913 	C$scene.c$393$3_0$222	= .
                                   2914 	.globl	C$scene.c$393$3_0$222
                                   2915 ;src/scene.c:393: for(object_sprite = 0; object_sprite < 4; object_sprite++){
      000B8E 0C                    2916 	inc	c
      000B8F F8 04                 2917 	ldhl	sp,	#4
      000B91 71                    2918 	ld	(hl), c
      000B92 79                    2919 	ld	a, c
      000B93 D6 04                 2920 	sub	a, #0x04
      000B95 DArF9r0A              2921 	jp	C, 00119$
      000B98                       2922 00112$:
                           000B98  2923 	C$scene.c$419$1_0$216	= .
                                   2924 	.globl	C$scene.c$419$1_0$216
                                   2925 ;src/scene.c:419: temp_window->status = (temp_window->status & 0xF0) | rack_status; 
      000B98 F8 07                 2926 	ldhl	sp,	#7
      000B9A 2A                    2927 	ld	a, (hl+)
      000B9B 4F                    2928 	ld	c, a
      000B9C 46                    2929 	ld	b, (hl)
      000B9D 03                    2930 	inc	bc
      000B9E 0A                    2931 	ld	a, (bc)
      000B9F E6 F0                 2932 	and	a, #0xf0
      000BA1 B3                    2933 	or	a, e
      000BA2 02                    2934 	ld	(bc), a
                           000BA3  2935 	C$scene.c$420$1_0$216	= .
                                   2936 	.globl	C$scene.c$420$1_0$216
                                   2937 ;src/scene.c:420: }
      000BA3 E8 05                 2938 	add	sp, #5
                           000BA5  2939 	C$scene.c$420$1_0$216	= .
                                   2940 	.globl	C$scene.c$420$1_0$216
                           000BA5  2941 	XG$add_clothes_to_rag$0$0	= .
                                   2942 	.globl	XG$add_clothes_to_rag$0$0
      000BA5 C9                    2943 	ret
                           000BA6  2944 	G$next_map_gen_step$0$0	= .
                                   2945 	.globl	G$next_map_gen_step$0$0
                           000BA6  2946 	C$scene.c$422$1_0$239	= .
                                   2947 	.globl	C$scene.c$422$1_0$239
                                   2948 ;src/scene.c:422: void next_map_gen_step(void){
                                   2949 ;	---------------------------------
                                   2950 ; Function next_map_gen_step
                                   2951 ; ---------------------------------
      000BA6                       2952 _next_map_gen_step::
                           000BA6  2953 	C$scene.c$429$1_0$239	= .
                                   2954 	.globl	C$scene.c$429$1_0$239
                                   2955 ;src/scene.c:429: if((walker_byte & 0x40) != 0x40){
      000BA6 21rD5r00              2956 	ld	hl, #_walker_byte
      000BA9 4E                    2957 	ld	c, (hl)
      000BAA 06 00                 2958 	ld	b, #0x00
      000BAC 79                    2959 	ld	a, c
      000BAD E6 40                 2960 	and	a, #0x40
      000BAF 5F                    2961 	ld	e, a
      000BB0 16 00                 2962 	ld	d, #0x00
      000BB2 7B                    2963 	ld	a, e
      000BB3 D6 40                 2964 	sub	a, #0x40
      000BB5 B2                    2965 	or	a, d
                           000BB6  2966 	C$scene.c$431$2_0$240	= .
                                   2967 	.globl	C$scene.c$431$2_0$240
                                   2968 ;src/scene.c:431: update_walker();
      000BB6 C2rCCr0B              2969 	jp	NZ,_update_walker
                           000BB9  2970 	C$scene.c$432$1_0$239	= .
                                   2971 	.globl	C$scene.c$432$1_0$239
                                   2972 ;src/scene.c:432: } else if((walker_byte & 0x4F) != 0x4F){
      000BB9 79                    2973 	ld	a, c
      000BBA E6 4F                 2974 	and	a, #0x4f
      000BBC 4F                    2975 	ld	c, a
      000BBD 06 00                 2976 	ld	b, #0x00
      000BBF 79                    2977 	ld	a, c
      000BC0 D6 4F                 2978 	sub	a, #0x4f
      000BC2 B0                    2979 	or	a, b
                           000BC3  2980 	C$scene.c$434$2_0$241	= .
                                   2981 	.globl	C$scene.c$434$2_0$241
                                   2982 ;src/scene.c:434: fill_window();
      000BC3 C2r7Cr0D              2983 	jp	NZ,_fill_window
                           000BC6  2984 	C$scene.c$437$2_0$242	= .
                                   2985 	.globl	C$scene.c$437$2_0$242
                                   2986 ;src/scene.c:437: mend_incorrect_windows();
      000BC6 CDrEDr0D              2987 	call	_mend_incorrect_windows
                           000BC9  2988 	C$scene.c$439$2_0$242	= .
                                   2989 	.globl	C$scene.c$439$2_0$242
                                   2990 ;src/scene.c:439: fill_memory();
                           000BC9  2991 	C$scene.c$441$1_0$239	= .
                                   2992 	.globl	C$scene.c$441$1_0$239
                                   2993 ;src/scene.c:441: }
                           000BC9  2994 	C$scene.c$441$1_0$239	= .
                                   2995 	.globl	C$scene.c$441$1_0$239
                           000BC9  2996 	XG$next_map_gen_step$0$0	= .
                                   2997 	.globl	XG$next_map_gen_step$0$0
      000BC9 C3r49r0E              2998 	jp	_fill_memory
                           000BCC  2999 	G$update_walker$0$0	= .
                                   3000 	.globl	G$update_walker$0$0
                           000BCC  3001 	C$scene.c$443$1_0$244	= .
                                   3002 	.globl	C$scene.c$443$1_0$244
                                   3003 ;src/scene.c:443: void update_walker(void){
                                   3004 ;	---------------------------------
                                   3005 ; Function update_walker
                                   3006 ; ---------------------------------
      000BCC                       3007 _update_walker::
      000BCC E8 FC                 3008 	add	sp, #-4
                           000BCE  3009 	C$scene.c$445$1_0$244	= .
                                   3010 	.globl	C$scene.c$445$1_0$244
                                   3011 ;src/scene.c:445: if(!(walker_byte & 0x0F)){
      000BCE FArD5r00              3012 	ld	a, (#_walker_byte)
      000BD1 E6 0F                 3013 	and	a, #0x0f
      000BD3 20 4D                 3014 	jr	NZ, 00118$
                           000BD5  3015 	C$scene.c$446$2_0$245	= .
                                   3016 	.globl	C$scene.c$446$2_0$245
                                   3017 ;src/scene.c:446: walker_byte |= (0x01 << (CURRENT_WINDOW & 0x03));
      000BD5 21rD5r00              3018 	ld	hl, #_walker_byte
      000BD8 7E                    3019 	ld	a, (hl)
      000BD9 CB 37                 3020 	swap	a
      000BDB E6 03                 3021 	and	a, #0x3
      000BDD 47                    3022 	ld	b, a
      000BDE 3E 01                 3023 	ld	a, #0x01
      000BE0 04                    3024 	inc	b
      000BE1 18 01                 3025 	jr	00160$
      000BE3                       3026 00159$:
      000BE3 87                    3027 	add	a, a
      000BE4                       3028 00160$:
      000BE4 05                    3029 	dec	b
      000BE5 20 FC                 3030 	jr	NZ,00159$
      000BE7 B6                    3031 	or	a, (hl)
                           000BE8  3032 	C$scene.c$447$2_0$245	= .
                                   3033 	.globl	C$scene.c$447$2_0$245
                                   3034 ;src/scene.c:447: window_components_on_current_floor[CURRENT_WINDOW & 0x03] = (traversable_bots[rand() & 0x03]) | ((bulky_tops[rand() & 0x03]) << 4);
      000BE8 77                    3035 	ld	(hl), a
      000BE9 CB 37                 3036 	swap	a
      000BEB E6 03                 3037 	and	a, #0x3
      000BED 4F                    3038 	ld	c, a
      000BEE 06 00                 3039 	ld	b, #0x00
      000BF0 21r08r00              3040 	ld	hl, #_window_components_on_current_floor
      000BF3 09                    3041 	add	hl, bc
      000BF4 E5                    3042 	push	hl
      000BF5 CDr00r00              3043 	call	_rand
      000BF8 7B                    3044 	ld	a, e
      000BF9 C1                    3045 	pop	bc
      000BFA E6 03                 3046 	and	a, #0x03
      000BFC 5F                    3047 	ld	e, a
      000BFD 16 00                 3048 	ld	d, #0x00
      000BFF 21r88r05              3049 	ld	hl, #_traversable_bots
      000C02 19                    3050 	add	hl, de
      000C03 5E                    3051 	ld	e, (hl)
      000C04 C5                    3052 	push	bc
      000C05 D5                    3053 	push	de
      000C06 CDr00r00              3054 	call	_rand
      000C09 6B                    3055 	ld	l, e
                                   3056 ;	spillPairReg hl
                                   3057 ;	spillPairReg hl
      000C0A D1                    3058 	pop	de
      000C0B C1                    3059 	pop	bc
                                   3060 ;	spillPairReg hl
                                   3061 ;	spillPairReg hl
      000C0C 7D                    3062 	ld	a, l
      000C0D E6 03                 3063 	and	a, #0x03
      000C0F 16 00                 3064 	ld	d, #0x00
      000C11 C6r94                 3065 	add	a, #<(_bulky_tops)
      000C13 6F                    3066 	ld	l, a
                                   3067 ;	spillPairReg hl
                                   3068 ;	spillPairReg hl
      000C14 7A                    3069 	ld	a, d
      000C15 CEs05                 3070 	adc	a, #>(_bulky_tops)
      000C17 67                    3071 	ld	h, a
                                   3072 ;	spillPairReg hl
                                   3073 ;	spillPairReg hl
      000C18 7E                    3074 	ld	a, (hl)
      000C19 CB 37                 3075 	swap	a
      000C1B E6 F0                 3076 	and	a, #0xf0
      000C1D B3                    3077 	or	a, e
      000C1E 02                    3078 	ld	(bc), a
      000C1F C3r79r0D              3079 	jp	00120$
      000C22                       3080 00118$:
                           000C22  3081 	C$scene.c$451$1_0$244	= .
                                   3082 	.globl	C$scene.c$451$1_0$244
                                   3083 ;src/scene.c:451: else if(((CURRENT_WINDOW & 0x01) && ((VISITED_WINDOWS & 0x05) == 0x05)) || (!(CURRENT_WINDOW & 0x01) && ((VISITED_WINDOWS & 0x0A) == 0x0A))){
      000C22 21rD5r00              3084 	ld	hl, #_walker_byte
      000C25 7E                    3085 	ld	a, (hl)
      000C26 CB 37                 3086 	swap	a
      000C28 E6 01                 3087 	and	a, #0x01
      000C2A 5F                    3088 	ld	e, a
      000C2B 4E                    3089 	ld	c, (hl)
      000C2C 7B                    3090 	ld	a, e
      000C2D B7                    3091 	or	a, a
      000C2E 28 0A                 3092 	jr	Z, 00116$
      000C30 79                    3093 	ld	a, c
      000C31 E6 05                 3094 	and	a, #0x05
                                   3095 ;	spillPairReg hl
                                   3096 ;	spillPairReg hl
      000C33 2E 00                 3097 	ld	l, #0x00
      000C35 D6 05                 3098 	sub	a, #0x05
      000C37 B5                    3099 	or	a, l
      000C38 28 10                 3100 	jr	Z, 00111$
      000C3A                       3101 00116$:
      000C3A 7B                    3102 	ld	a, e
      000C3B B7                    3103 	or	a, a
      000C3C 20 41                 3104 	jr	NZ, 00112$
      000C3E 79                    3105 	ld	a, c
      000C3F E6 0A                 3106 	and	a, #0x0a
      000C41 4F                    3107 	ld	c, a
      000C42 06 00                 3108 	ld	b, #0x00
      000C44 79                    3109 	ld	a, c
      000C45 D6 0A                 3110 	sub	a, #0x0a
      000C47 B0                    3111 	or	a, b
      000C48 20 35                 3112 	jr	NZ, 00112$
      000C4A                       3113 00111$:
                           000C4A  3114 	C$scene.c$452$2_0$246	= .
                                   3115 	.globl	C$scene.c$452$2_0$246
                                   3116 ;src/scene.c:452: walker_byte |= 0x40;
      000C4A 21rD5r00              3117 	ld	hl, #_walker_byte
      000C4D 7E                    3118 	ld	a, (hl)
      000C4E F6 40                 3119 	or	a, #0x40
                           000C50  3120 	C$scene.c$453$2_0$246	= .
                                   3121 	.globl	C$scene.c$453$2_0$246
                                   3122 ;src/scene.c:453: window_components_on_current_floor[CURRENT_WINDOW & 0x03] = (window_components_on_current_floor[CURRENT_WINDOW & 0x03] & 0x0F) | (uint8_t)((traversable_tops[(rand() & 0x03)]) << 4);   
      000C50 77                    3123 	ld	(hl), a
      000C51 CB 37                 3124 	swap	a
      000C53 E6 03                 3125 	and	a, #0x3
      000C55 4F                    3126 	ld	c, a
      000C56 06 00                 3127 	ld	b, #0x00
      000C58 21r08r00              3128 	ld	hl, #_window_components_on_current_floor
      000C5B 09                    3129 	add	hl, bc
      000C5C 4D                    3130 	ld	c, l
      000C5D 44                    3131 	ld	b, h
      000C5E 0A                    3132 	ld	a, (bc)
      000C5F E6 0F                 3133 	and	a, #0x0f
      000C61 F8 03                 3134 	ldhl	sp,	#3
      000C63 77                    3135 	ld	(hl), a
      000C64 C5                    3136 	push	bc
      000C65 CDr00r00              3137 	call	_rand
      000C68 7B                    3138 	ld	a, e
      000C69 C1                    3139 	pop	bc
      000C6A E6 03                 3140 	and	a, #0x03
      000C6C 5F                    3141 	ld	e, a
      000C6D 16 00                 3142 	ld	d, #0x00
      000C6F 21r8Cr05              3143 	ld	hl, #_traversable_tops
      000C72 19                    3144 	add	hl, de
      000C73 7E                    3145 	ld	a, (hl)
      000C74 CB 37                 3146 	swap	a
      000C76 E6 F0                 3147 	and	a, #0xf0
      000C78 F8 03                 3148 	ldhl	sp,	#3
      000C7A B6                    3149 	or	a, (hl)
      000C7B 02                    3150 	ld	(bc), a
      000C7C C3r79r0D              3151 	jp	00120$
      000C7F                       3152 00112$:
                           000C7F  3153 	C$scene.c$457$1_0$244	= .
                                   3154 	.globl	C$scene.c$457$1_0$244
                                   3155 ;src/scene.c:457: else if(TURNING_PROB < (UBYTE)rand()){
      000C7F CDr00r00              3156 	call	_rand
      000C82 3E AF                 3157 	ld	a, #0xaf
      000C84 93                    3158 	sub	a, e
      000C85 30 35                 3159 	jr	NC, 00109$
                           000C87  3160 	C$scene.c$459$2_0$247	= .
                                   3161 	.globl	C$scene.c$459$2_0$247
                                   3162 ;src/scene.c:459: walker_byte |= 0x40;
      000C87 21rD5r00              3163 	ld	hl, #_walker_byte
      000C8A 7E                    3164 	ld	a, (hl)
      000C8B F6 40                 3165 	or	a, #0x40
                           000C8D  3166 	C$scene.c$460$2_0$247	= .
                                   3167 	.globl	C$scene.c$460$2_0$247
                                   3168 ;src/scene.c:460: window_components_on_current_floor[CURRENT_WINDOW & 0x03] = (window_components_on_current_floor[CURRENT_WINDOW & 0x03] & 0x0F) | (uint8_t)((traversable_tops[(rand() & 0x03)]) << 4);
      000C8D 77                    3169 	ld	(hl), a
      000C8E CB 37                 3170 	swap	a
      000C90 E6 03                 3171 	and	a, #0x3
      000C92 4F                    3172 	ld	c, a
      000C93 06 00                 3173 	ld	b, #0x00
      000C95 21r08r00              3174 	ld	hl, #_window_components_on_current_floor
      000C98 09                    3175 	add	hl, bc
      000C99 4D                    3176 	ld	c, l
      000C9A 44                    3177 	ld	b, h
      000C9B 0A                    3178 	ld	a, (bc)
      000C9C E6 0F                 3179 	and	a, #0x0f
      000C9E F8 03                 3180 	ldhl	sp,	#3
      000CA0 77                    3181 	ld	(hl), a
      000CA1 C5                    3182 	push	bc
      000CA2 CDr00r00              3183 	call	_rand
      000CA5 7B                    3184 	ld	a, e
      000CA6 C1                    3185 	pop	bc
      000CA7 E6 03                 3186 	and	a, #0x03
      000CA9 5F                    3187 	ld	e, a
      000CAA 16 00                 3188 	ld	d, #0x00
      000CAC 21r8Cr05              3189 	ld	hl, #_traversable_tops
      000CAF 19                    3190 	add	hl, de
      000CB0 7E                    3191 	ld	a, (hl)
      000CB1 CB 37                 3192 	swap	a
      000CB3 E6 F0                 3193 	and	a, #0xf0
      000CB5 F8 03                 3194 	ldhl	sp,	#3
      000CB7 B6                    3195 	or	a, (hl)
      000CB8 02                    3196 	ld	(bc), a
      000CB9 C3r79r0D              3197 	jp	00120$
      000CBC                       3198 00109$:
                           000CBC  3199 	C$scene.c$464$2_0$248	= .
                                   3200 	.globl	C$scene.c$464$2_0$248
                                   3201 ;src/scene.c:464: if((rand() & 0x01) && !((VISITED_WINDOWS >> ((CURRENT_WINDOW + 1) & 0x03)) & 0x01)) { //if we want to go right and right is empty
      000CBC CDr00r00              3202 	call	_rand
                           000CBF  3203 	C$scene.c$445$1_0$244	= .
                                   3204 	.globl	C$scene.c$445$1_0$244
                                   3205 ;src/scene.c:445: if(!(walker_byte & 0x0F)){
                           000CBF  3206 	C$scene.c$446$1_0$244	= .
                                   3207 	.globl	C$scene.c$446$1_0$244
                                   3208 ;src/scene.c:446: walker_byte |= (0x01 << (CURRENT_WINDOW & 0x03));
      000CBF FArD5r00              3209 	ld	a, (#_walker_byte)
      000CC2 4F                    3210 	ld	c,a
      000CC3 CB 37                 3211 	swap	a
      000CC5 E6 0F                 3212 	and	a, #0x0f
      000CC7 F8 00                 3213 	ldhl	sp,	#0
      000CC9 77                    3214 	ld	(hl), a
                           000CCA  3215 	C$scene.c$469$1_0$244	= .
                                   3216 	.globl	C$scene.c$469$1_0$244
                                   3217 ;src/scene.c:469: walker_byte = (walker_byte & 0xCF) | (((CURRENT_WINDOW - 1) & 0x03) << 4);
      000CCA 2A                    3218 	ld	a, (hl+)
                           000CCB  3219 	C$scene.c$466$1_0$244	= .
                                   3220 	.globl	C$scene.c$466$1_0$244
                                   3221 ;src/scene.c:466: walker_byte = (walker_byte & 0xCF) | (((CURRENT_WINDOW + 1) & 0x03) << 4);
      000CCB 22                    3222 	ld	(hl+), a
      000CCC 79                    3223 	ld	a, c
      000CCD E6 CF                 3224 	and	a, #0xcf
      000CCF 32                    3225 	ld	(hl-), a
      000CD0 2A                    3226 	ld	a, (hl+)
      000CD1 3C                    3227 	inc	a
      000CD2 CB 37                 3228 	swap	a
      000CD4 E6 30                 3229 	and	a, #0x30
      000CD6 B6                    3230 	or	a, (hl)
      000CD7 23                    3231 	inc	hl
      000CD8 77                    3232 	ld	(hl), a
                           000CD9  3233 	C$scene.c$464$2_0$248	= .
                                   3234 	.globl	C$scene.c$464$2_0$248
                                   3235 ;src/scene.c:464: if((rand() & 0x01) && !((VISITED_WINDOWS >> ((CURRENT_WINDOW + 1) & 0x03)) & 0x01)) { //if we want to go right and right is empty
      000CD9 CB 43                 3236 	bit	0, e
      000CDB 28 1F                 3237 	jr	Z, 00105$
      000CDD F8 00                 3238 	ldhl	sp,	#0
      000CDF 7E                    3239 	ld	a, (hl)
      000CE0 3C                    3240 	inc	a
      000CE1 E6 03                 3241 	and	a, #0x03
      000CE3 4F                    3242 	ld	c, a
      000CE4 21rD5r00              3243 	ld	hl, #_walker_byte
      000CE7 46                    3244 	ld	b, (hl)
      000CE8 0C                    3245 	inc	c
      000CE9 18 02                 3246 	jr	00166$
      000CEB                       3247 00165$:
      000CEB CB 38                 3248 	srl	b
      000CED                       3249 00166$:
      000CED 0D                    3250 	dec	c
      000CEE 20 FB                 3251 	jr	NZ, 00165$
      000CF0 CB 40                 3252 	bit	0, b
      000CF2 20 08                 3253 	jr	NZ, 00105$
                           000CF4  3254 	C$scene.c$466$3_0$249	= .
                                   3255 	.globl	C$scene.c$466$3_0$249
                                   3256 ;src/scene.c:466: walker_byte = (walker_byte & 0xCF) | (((CURRENT_WINDOW + 1) & 0x03) << 4);
      000CF4 F8 03                 3257 	ldhl	sp,	#3
      000CF6 7E                    3258 	ld	a, (hl)
      000CF7 EArD5r00              3259 	ld	(#_walker_byte),a
      000CFA 18 31                 3260 	jr	00106$
      000CFC                       3261 00105$:
                           000CFC  3262 	C$scene.c$467$2_0$248	= .
                                   3263 	.globl	C$scene.c$467$2_0$248
                                   3264 ;src/scene.c:467: } else if (!((VISITED_WINDOWS >> ((CURRENT_WINDOW - 1) & 0x03)) & 0x01)){ //if left is empty
      000CFC F8 00                 3265 	ldhl	sp,	#0
      000CFE 7E                    3266 	ld	a, (hl)
      000CFF 3D                    3267 	dec	a
      000D00 E6 03                 3268 	and	a, #0x03
      000D02 4F                    3269 	ld	c, a
      000D03 21rD5r00              3270 	ld	hl, #_walker_byte
      000D06 46                    3271 	ld	b, (hl)
      000D07 0C                    3272 	inc	c
      000D08 18 02                 3273 	jr	00170$
      000D0A                       3274 00169$:
      000D0A CB 38                 3275 	srl	b
      000D0C                       3276 00170$:
      000D0C 0D                    3277 	dec	c
      000D0D 20 FB                 3278 	jr	NZ, 00169$
      000D0F CB 40                 3279 	bit	0, b
      000D11 20 14                 3280 	jr	NZ, 00102$
                           000D13  3281 	C$scene.c$469$3_0$250	= .
                                   3282 	.globl	C$scene.c$469$3_0$250
                                   3283 ;src/scene.c:469: walker_byte = (walker_byte & 0xCF) | (((CURRENT_WINDOW - 1) & 0x03) << 4);
      000D13 F8 01                 3284 	ldhl	sp,	#1
      000D15 2A                    3285 	ld	a, (hl+)
      000D16 23                    3286 	inc	hl
      000D17 3D                    3287 	dec	a
      000D18 E6 03                 3288 	and	a, #0x03
      000D1A 77                    3289 	ld	(hl), a
      000D1B CB 37                 3290 	swap	a
      000D1D E6 F0                 3291 	and	a, #0xf0
      000D1F 32                    3292 	ld	(hl-), a
      000D20 2A                    3293 	ld	a, (hl+)
      000D21 B6                    3294 	or	a, (hl)
      000D22 EArD5r00              3295 	ld	(#_walker_byte),a
      000D25 18 06                 3296 	jr	00106$
      000D27                       3297 00102$:
                           000D27  3298 	C$scene.c$472$3_0$251	= .
                                   3299 	.globl	C$scene.c$472$3_0$251
                                   3300 ;src/scene.c:472: walker_byte = (walker_byte & 0xCF) | (((CURRENT_WINDOW + 1) & 0x03) << 4);
      000D27 F8 03                 3301 	ldhl	sp,	#3
      000D29 7E                    3302 	ld	a, (hl)
      000D2A EArD5r00              3303 	ld	(#_walker_byte),a
      000D2D                       3304 00106$:
                           000D2D  3305 	C$scene.c$474$2_0$248	= .
                                   3306 	.globl	C$scene.c$474$2_0$248
                                   3307 ;src/scene.c:474: walker_byte |= (0x01 << CURRENT_WINDOW);
      000D2D 21rD5r00              3308 	ld	hl, #_walker_byte
      000D30 7E                    3309 	ld	a, (hl)
      000D31 CB 37                 3310 	swap	a
      000D33 E6 0F                 3311 	and	a, #0x0f
      000D35 47                    3312 	ld	b, a
      000D36 3E 01                 3313 	ld	a, #0x01
      000D38 04                    3314 	inc	b
      000D39 18 01                 3315 	jr	00174$
      000D3B                       3316 00173$:
      000D3B 87                    3317 	add	a, a
      000D3C                       3318 00174$:
      000D3C 05                    3319 	dec	b
      000D3D 20 FC                 3320 	jr	NZ,00173$
      000D3F B6                    3321 	or	a, (hl)
                           000D40  3322 	C$scene.c$475$2_0$248	= .
                                   3323 	.globl	C$scene.c$475$2_0$248
                                   3324 ;src/scene.c:475: window_components_on_current_floor[CURRENT_WINDOW & 0x03] = (bulky_bots[rand() & 0x03]) | ((bulky_tops[rand() & 0x03]) << 4);
      000D40 77                    3325 	ld	(hl), a
      000D41 CB 37                 3326 	swap	a
      000D43 E6 03                 3327 	and	a, #0x3
      000D45 0E 00                 3328 	ld	c, #0x00
      000D47 C6r08                 3329 	add	a, #<(_window_components_on_current_floor)
      000D49 5F                    3330 	ld	e, a
      000D4A 79                    3331 	ld	a, c
      000D4B CEs00                 3332 	adc	a, #>(_window_components_on_current_floor)
      000D4D 57                    3333 	ld	d, a
      000D4E D5                    3334 	push	de
      000D4F CDr00r00              3335 	call	_rand
      000D52 7B                    3336 	ld	a, e
      000D53 D1                    3337 	pop	de
      000D54 E6 03                 3338 	and	a, #0x03
      000D56 6F                    3339 	ld	l, a
                                   3340 ;	spillPairReg hl
                                   3341 ;	spillPairReg hl
      000D57 26 00                 3342 	ld	h, #0x00
                                   3343 ;	spillPairReg hl
                                   3344 ;	spillPairReg hl
      000D59 01r90r05              3345 	ld	bc, #_bulky_bots
      000D5C 09                    3346 	add	hl, bc
      000D5D 7E                    3347 	ld	a, (hl)
      000D5E F8 03                 3348 	ldhl	sp,	#3
      000D60 77                    3349 	ld	(hl), a
      000D61 D5                    3350 	push	de
      000D62 CDr00r00              3351 	call	_rand
      000D65 7B                    3352 	ld	a, e
      000D66 D1                    3353 	pop	de
      000D67 E6 03                 3354 	and	a, #0x03
      000D69 6F                    3355 	ld	l, a
                                   3356 ;	spillPairReg hl
                                   3357 ;	spillPairReg hl
      000D6A 26 00                 3358 	ld	h, #0x00
                                   3359 ;	spillPairReg hl
                                   3360 ;	spillPairReg hl
      000D6C 01r94r05              3361 	ld	bc, #_bulky_tops
      000D6F 09                    3362 	add	hl, bc
      000D70 7E                    3363 	ld	a, (hl)
      000D71 CB 37                 3364 	swap	a
      000D73 E6 F0                 3365 	and	a, #0xf0
      000D75 F8 03                 3366 	ldhl	sp,	#3
      000D77 B6                    3367 	or	a, (hl)
      000D78 12                    3368 	ld	(de), a
      000D79                       3369 00120$:
                           000D79  3370 	C$scene.c$477$1_0$244	= .
                                   3371 	.globl	C$scene.c$477$1_0$244
                                   3372 ;src/scene.c:477: }
      000D79 E8 04                 3373 	add	sp, #4
                           000D7B  3374 	C$scene.c$477$1_0$244	= .
                                   3375 	.globl	C$scene.c$477$1_0$244
                           000D7B  3376 	XG$update_walker$0$0	= .
                                   3377 	.globl	XG$update_walker$0$0
      000D7B C9                    3378 	ret
                           000D7C  3379 	G$fill_window$0$0	= .
                                   3380 	.globl	G$fill_window$0$0
                           000D7C  3381 	C$scene.c$479$1_0$254	= .
                                   3382 	.globl	C$scene.c$479$1_0$254
                                   3383 ;src/scene.c:479: void fill_window(void){
                                   3384 ;	---------------------------------
                                   3385 ; Function fill_window
                                   3386 ; ---------------------------------
      000D7C                       3387 _fill_window::
      000D7C 3B                    3388 	dec	sp
                           000D7D  3389 	C$scene.c$481$2_0$254	= .
                                   3390 	.globl	C$scene.c$481$2_0$254
                                   3391 ;src/scene.c:481: for ( i = 0; i < 4; i++){
      000D7D 21r01r00              3392 	ld	hl, #_i
      000D80 36 00                 3393 	ld	(hl), #0x00
      000D82                       3394 00105$:
                           000D82  3395 	C$scene.c$482$3_0$255	= .
                                   3396 	.globl	C$scene.c$482$3_0$255
                                   3397 ;src/scene.c:482: if((VISITED_WINDOWS >> i) & 0x01) {
      000D82 FAr01r00              3398 	ld	a, (#_i)
      000D85 F5                    3399 	push	af
      000D86 21rD5r00              3400 	ld	hl, #_walker_byte
      000D89 4E                    3401 	ld	c, (hl)
      000D8A F1                    3402 	pop	af
      000D8B 3C                    3403 	inc	a
      000D8C 18 02                 3404 	jr	00119$
      000D8E                       3405 00118$:
      000D8E CB 39                 3406 	srl	c
      000D90                       3407 00119$:
      000D90 3D                    3408 	dec	a
      000D91 20 FB                 3409 	jr	NZ, 00118$
      000D93 CB 41                 3410 	bit	0, c
      000D95 20 4B                 3411 	jr	NZ, 00103$
                           000D97  3412 	C$scene.c$485$3_0$255	= .
                                   3413 	.globl	C$scene.c$485$3_0$255
                                   3414 ;src/scene.c:485: window_components_on_current_floor[i] = (all_bots[rand() & 0x07]) | ((all_tops[rand() & 0x07]) << 4);
      000D97 01r08r00              3415 	ld	bc, #_window_components_on_current_floor+0
      000D9A 79                    3416 	ld	a, c
      000D9B 21r01r00              3417 	ld	hl, #_i
      000D9E 86                    3418 	add	a, (hl)
      000D9F 4F                    3419 	ld	c, a
      000DA0 30 01                 3420 	jr	NC, 00122$
      000DA2 04                    3421 	inc	b
      000DA3                       3422 00122$:
      000DA3 C5                    3423 	push	bc
      000DA4 CDr00r00              3424 	call	_rand
      000DA7 7B                    3425 	ld	a, e
      000DA8 C1                    3426 	pop	bc
      000DA9 E6 07                 3427 	and	a, #0x07
      000DAB 6F                    3428 	ld	l, a
                                   3429 ;	spillPairReg hl
                                   3430 ;	spillPairReg hl
      000DAC 26 00                 3431 	ld	h, #0x00
                                   3432 ;	spillPairReg hl
                                   3433 ;	spillPairReg hl
      000DAE 11rA0r05              3434 	ld	de, #_all_bots
      000DB1 19                    3435 	add	hl, de
      000DB2 7E                    3436 	ld	a, (hl)
      000DB3 F8 00                 3437 	ldhl	sp,	#0
      000DB5 77                    3438 	ld	(hl), a
      000DB6 C5                    3439 	push	bc
      000DB7 CDr00r00              3440 	call	_rand
      000DBA 7B                    3441 	ld	a, e
      000DBB C1                    3442 	pop	bc
      000DBC E6 07                 3443 	and	a, #0x07
      000DBE 6F                    3444 	ld	l, a
                                   3445 ;	spillPairReg hl
                                   3446 ;	spillPairReg hl
      000DBF 26 00                 3447 	ld	h, #0x00
                                   3448 ;	spillPairReg hl
                                   3449 ;	spillPairReg hl
      000DC1 11r98r05              3450 	ld	de, #_all_tops
      000DC4 19                    3451 	add	hl, de
      000DC5 7E                    3452 	ld	a, (hl)
      000DC6 CB 37                 3453 	swap	a
      000DC8 E6 F0                 3454 	and	a, #0xf0
      000DCA F8 00                 3455 	ldhl	sp,	#0
      000DCC B6                    3456 	or	a, (hl)
      000DCD 02                    3457 	ld	(bc), a
                           000DCE  3458 	C$scene.c$486$3_0$255	= .
                                   3459 	.globl	C$scene.c$486$3_0$255
                                   3460 ;src/scene.c:486: walker_byte |= (0x01 << i);
      000DCE 21r01r00              3461 	ld	hl, #_i
      000DD1 4E                    3462 	ld	c, (hl)
      000DD2 3E 01                 3463 	ld	a, #0x01
      000DD4 0C                    3464 	inc	c
      000DD5 18 01                 3465 	jr	00124$
      000DD7                       3466 00123$:
      000DD7 87                    3467 	add	a, a
      000DD8                       3468 00124$:
      000DD8 0D                    3469 	dec	c
      000DD9 20 FC                 3470 	jr	NZ,00123$
      000DDB 21rD5r00              3471 	ld	hl, #_walker_byte
      000DDE B6                    3472 	or	a, (hl)
      000DDF 77                    3473 	ld	(hl), a
                           000DE0  3474 	C$scene.c$487$3_0$255	= .
                                   3475 	.globl	C$scene.c$487$3_0$255
                                   3476 ;src/scene.c:487: return;
      000DE0 18 09                 3477 	jr	00106$
      000DE2                       3478 00103$:
                           000DE2  3479 	C$scene.c$481$2_0$254	= .
                                   3480 	.globl	C$scene.c$481$2_0$254
                                   3481 ;src/scene.c:481: for ( i = 0; i < 4; i++){
      000DE2 21r01r00              3482 	ld	hl, #_i
      000DE5 34                    3483 	inc	(hl)
      000DE6 7E                    3484 	ld	a, (hl)
      000DE7 D6 04                 3485 	sub	a, #0x04
      000DE9 38 97                 3486 	jr	C, 00105$
      000DEB                       3487 00106$:
                           000DEB  3488 	C$scene.c$489$2_0$254	= .
                                   3489 	.globl	C$scene.c$489$2_0$254
                                   3490 ;src/scene.c:489: }
      000DEB 33                    3491 	inc	sp
                           000DEC  3492 	C$scene.c$489$2_0$254	= .
                                   3493 	.globl	C$scene.c$489$2_0$254
                           000DEC  3494 	XG$fill_window$0$0	= .
                                   3495 	.globl	XG$fill_window$0$0
      000DEC C9                    3496 	ret
                           000DED  3497 	G$mend_incorrect_windows$0$0	= .
                                   3498 	.globl	G$mend_incorrect_windows$0$0
                           000DED  3499 	C$scene.c$491$2_0$258	= .
                                   3500 	.globl	C$scene.c$491$2_0$258
                                   3501 ;src/scene.c:491: void mend_incorrect_windows(void){
                                   3502 ;	---------------------------------
                                   3503 ; Function mend_incorrect_windows
                                   3504 ; ---------------------------------
      000DED                       3505 _mend_incorrect_windows::
      000DED 3B                    3506 	dec	sp
                           000DEE  3507 	C$scene.c$492$1_0$258	= .
                                   3508 	.globl	C$scene.c$492$1_0$258
                                   3509 ;src/scene.c:492: if(malloc_i == 4){
      000DEE FArD6r00              3510 	ld	a, (#_malloc_i)
      000DF1 D6 04                 3511 	sub	a, #0x04
      000DF3 28 52                 3512 	jr	Z, 00108$
                           000DF5  3513 	C$scene.c$493$2_0$259	= .
                                   3514 	.globl	C$scene.c$493$2_0$259
                                   3515 ;src/scene.c:493: return;
      000DF5 18 00                 3516 	jr	00102$
      000DF7                       3517 00102$:
                           000DF7  3518 	C$scene.c$496$1_0$258	= .
                                   3519 	.globl	C$scene.c$496$1_0$258
                                   3520 ;src/scene.c:496: if(window_components_on_current_floor[malloc_i] == 0x45){
      000DF7 01r08r00              3521 	ld	bc, #_window_components_on_current_floor+0
      000DFA 79                    3522 	ld	a, c
      000DFB 21rD6r00              3523 	ld	hl, #_malloc_i
      000DFE 86                    3524 	add	a, (hl)
      000DFF 4F                    3525 	ld	c, a
      000E00 30 01                 3526 	jr	NC, 00132$
      000E02 04                    3527 	inc	b
      000E03                       3528 00132$:
      000E03 0A                    3529 	ld	a, (bc)
      000E04 F8 00                 3530 	ldhl	sp,	#0
      000E06 77                    3531 	ld	(hl), a
      000E07 D6 45                 3532 	sub	a, #0x45
      000E09 20 05                 3533 	jr	NZ, 00104$
                           000E0B  3534 	C$scene.c$497$2_0$260	= .
                                   3535 	.globl	C$scene.c$497$2_0$260
                                   3536 ;src/scene.c:497: window_components_on_current_floor[malloc_i] = 0x05; //no shingles above a cloth rack
      000E0B 3E 05                 3537 	ld	a, #0x05
      000E0D 02                    3538 	ld	(bc), a
                           000E0E  3539 	C$scene.c$498$2_0$260	= .
                                   3540 	.globl	C$scene.c$498$2_0$260
                                   3541 ;src/scene.c:498: return;
      000E0E 18 37                 3542 	jr	00108$
      000E10                       3543 00104$:
                           000E10  3544 	C$scene.c$500$1_0$258	= .
                                   3545 	.globl	C$scene.c$500$1_0$258
                                   3546 ;src/scene.c:500: if((window_components_on_current_floor[malloc_i] & 0x0F) == 0x03 && (map_components[camera_y_clamped][malloc_i].components & 0xF0) == 0x30){
      000E10 F8 00                 3547 	ldhl	sp,	#0
      000E12 7E                    3548 	ld	a, (hl)
      000E13 E6 0F                 3549 	and	a, #0x0f
      000E15 5F                    3550 	ld	e, a
      000E16 16 00                 3551 	ld	d, #0x00
      000E18 7B                    3552 	ld	a, e
      000E19 D6 03                 3553 	sub	a, #0x03
      000E1B B2                    3554 	or	a, d
      000E1C 20 29                 3555 	jr	NZ, 00108$
      000E1E 11rB4r00              3556 	ld	de, #_map_components+0
      000E21 21r0Er00              3557 	ld	hl, #_camera_y_clamped
      000E24 6E                    3558 	ld	l, (hl)
                                   3559 ;	spillPairReg hl
                                   3560 ;	spillPairReg hl
      000E25 26 00                 3561 	ld	h, #0x00
                                   3562 ;	spillPairReg hl
                                   3563 ;	spillPairReg hl
      000E27 29                    3564 	add	hl, hl
      000E28 29                    3565 	add	hl, hl
      000E29 29                    3566 	add	hl, hl
      000E2A 19                    3567 	add	hl, de
      000E2B 5D                    3568 	ld	e, l
      000E2C 54                    3569 	ld	d, h
      000E2D FArD6r00              3570 	ld	a, (#_malloc_i)
      000E30 87                    3571 	add	a, a
      000E31 6F                    3572 	ld	l, a
      000E32 26 00                 3573 	ld	h, #0x00
      000E34 19                    3574 	add	hl, de
      000E35 7E                    3575 	ld	a, (hl)
      000E36 E6 F0                 3576 	and	a, #0xf0
      000E38 5F                    3577 	ld	e, a
      000E39 16 00                 3578 	ld	d, #0x00
      000E3B 7B                    3579 	ld	a, e
      000E3C D6 30                 3580 	sub	a, #0x30
      000E3E B2                    3581 	or	a, d
      000E3F 20 06                 3582 	jr	NZ, 00108$
                           000E41  3583 	C$scene.c$501$2_0$261	= .
                                   3584 	.globl	C$scene.c$501$2_0$261
                                   3585 ;src/scene.c:501: window_components_on_current_floor[malloc_i] &= 0xF0; //no spikes above an awning
      000E41 F8 00                 3586 	ldhl	sp,	#0
      000E43 7E                    3587 	ld	a, (hl)
      000E44 E6 F0                 3588 	and	a, #0xf0
      000E46 02                    3589 	ld	(bc), a
                           000E47  3590 	C$scene.c$503$2_0$261	= .
                                   3591 	.globl	C$scene.c$503$2_0$261
                                   3592 ;src/scene.c:503: return;
      000E47                       3593 00108$:
                           000E47  3594 	C$scene.c$505$1_0$258	= .
                                   3595 	.globl	C$scene.c$505$1_0$258
                                   3596 ;src/scene.c:505: }
      000E47 33                    3597 	inc	sp
                           000E48  3598 	C$scene.c$505$1_0$258	= .
                                   3599 	.globl	C$scene.c$505$1_0$258
                           000E48  3600 	XG$mend_incorrect_windows$0$0	= .
                                   3601 	.globl	XG$mend_incorrect_windows$0$0
      000E48 C9                    3602 	ret
                           000E49  3603 	G$fill_memory$0$0	= .
                                   3604 	.globl	G$fill_memory$0$0
                           000E49  3605 	C$scene.c$507$1_0$263	= .
                                   3606 	.globl	C$scene.c$507$1_0$263
                                   3607 ;src/scene.c:507: void fill_memory(void){
                                   3608 ;	---------------------------------
                                   3609 ; Function fill_memory
                                   3610 ; ---------------------------------
      000E49                       3611 _fill_memory::
      000E49 E8 FD                 3612 	add	sp, #-3
                           000E4B  3613 	C$scene.c$509$1_0$263	= .
                                   3614 	.globl	C$scene.c$509$1_0$263
                                   3615 ;src/scene.c:509: if(malloc_i == 4){
      000E4B FArD6r00              3616 	ld	a, (#_malloc_i)
      000E4E D6 04                 3617 	sub	a, #0x04
      000E50 20 0A                 3618 	jr	NZ, 00102$
                           000E52  3619 	C$scene.c$510$2_0$264	= .
                                   3620 	.globl	C$scene.c$510$2_0$264
                                   3621 ;src/scene.c:510: walker_byte |= 0x80;
      000E52 21rD5r00              3622 	ld	hl, #_walker_byte
      000E55 7E                    3623 	ld	a, (hl)
      000E56 F6 80                 3624 	or	a, #0x80
      000E58 77                    3625 	ld	(hl), a
                           000E59  3626 	C$scene.c$511$2_0$264	= .
                                   3627 	.globl	C$scene.c$511$2_0$264
                                   3628 ;src/scene.c:511: return;
      000E59 C3r0Fr0F              3629 	jp	00103$
      000E5C                       3630 00102$:
                           000E5C  3631 	C$scene.c$514$1_0$263	= .
                                   3632 	.globl	C$scene.c$514$1_0$263
                                   3633 ;src/scene.c:514: memcpy_rect((malloc_i << 2) + 16, base, 4, 12);
      000E5C 21rD6r00              3634 	ld	hl, #_malloc_i
      000E5F 7E                    3635 	ld	a, (hl)
      000E60 87                    3636 	add	a, a
      000E61 87                    3637 	add	a, a
      000E62 C6 10                 3638 	add	a, #0x10
      000E64 26 0C                 3639 	ld	h, #0x0c
                                   3640 ;	spillPairReg hl
                                   3641 ;	spillPairReg hl
      000E66 E5                    3642 	push	hl
      000E67 33                    3643 	inc	sp
      000E68 26 04                 3644 	ld	h, #0x04
                                   3645 ;	spillPairReg hl
                                   3646 ;	spillPairReg hl
      000E6A E5                    3647 	push	hl
      000E6B 33                    3648 	inc	sp
      000E6C 11r00r00              3649 	ld	de, #_base
      000E6F D5                    3650 	push	de
      000E70 F5                    3651 	push	af
      000E71 33                    3652 	inc	sp
      000E72 CDr12r0F              3653 	call	_memcpy_rect
      000E75 E8 05                 3654 	add	sp, #5
                           000E77  3655 	C$scene.c$515$1_0$263	= .
                                   3656 	.globl	C$scene.c$515$1_0$263
                                   3657 ;src/scene.c:515: memcpy_rect(malloc_i << 2, top_info[(UINT8)(window_components_on_current_floor[malloc_i] >> 4)].map, 4, (top_info[(UINT8)(window_components_on_current_floor[malloc_i] >> 4)].h)<<2);
      000E77 3Er08                 3658 	ld	a, #<(_window_components_on_current_floor)
      000E79 21rD6r00              3659 	ld	hl, #_malloc_i
      000E7C 86                    3660 	add	a, (hl)
      000E7D 4F                    3661 	ld	c, a
      000E7E 3Es00                 3662 	ld	a, #>(_window_components_on_current_floor)
      000E80 CE 00                 3663 	adc	a, #0x00
      000E82 47                    3664 	ld	b, a
      000E83 0A                    3665 	ld	a, (bc)
      000E84 CB 37                 3666 	swap	a
      000E86 E6 0F                 3667 	and	a, #0x0f
      000E88 4F                    3668 	ld	c, a
      000E89 06 00                 3669 	ld	b, #0x00
      000E8B 69                    3670 	ld	l, c
      000E8C 60                    3671 	ld	h, b
      000E8D 29                    3672 	add	hl, hl
      000E8E 29                    3673 	add	hl, hl
      000E8F 29                    3674 	add	hl, hl
      000E90 09                    3675 	add	hl, bc
      000E91 11r5Br05              3676 	ld	de, #_top_info
      000E94 19                    3677 	add	hl, de
      000E95 4D                    3678 	ld	c, l
      000E96 44                    3679 	ld	b, h
      000E97 23                    3680 	inc	hl
      000E98 23                    3681 	inc	hl
      000E99 03                    3682 	inc	bc
      000E9A 0A                    3683 	ld	a, (bc)
      000E9B 87                    3684 	add	a, a
      000E9C 87                    3685 	add	a, a
      000E9D 4E                    3686 	ld	c, (hl)
      000E9E 23                    3687 	inc	hl
      000E9F 46                    3688 	ld	b, (hl)
      000EA0 21rD6r00              3689 	ld	hl, #_malloc_i
      000EA3 56                    3690 	ld	d, (hl)
      000EA4 CB 22                 3691 	sla	d
      000EA6 CB 22                 3692 	sla	d
      000EA8 67                    3693 	ld	h, a
      000EA9 2E 04                 3694 	ld	l, #0x04
      000EAB E5                    3695 	push	hl
      000EAC C5                    3696 	push	bc
      000EAD D5                    3697 	push	de
      000EAE 33                    3698 	inc	sp
      000EAF CDr12r0F              3699 	call	_memcpy_rect
      000EB2 E8 05                 3700 	add	sp, #5
                           000EB4  3701 	C$scene.c$516$1_0$263	= .
                                   3702 	.globl	C$scene.c$516$1_0$263
                                   3703 ;src/scene.c:516: memcpy_rect((malloc_i << 2) + ((bot_info[window_components_on_current_floor[malloc_i] & 0x0F].y_offset - 1)<<4), bot_info[window_components_on_current_floor[malloc_i] & 0x0F].map, 4, (bot_info[window_components_on_current_floor[malloc_i] & 0x0F].h)<<2);
      000EB4 01r25r05              3704 	ld	bc, #_bot_info+0
      000EB7 3Er08                 3705 	ld	a, #<(_window_components_on_current_floor)
      000EB9 21rD6r00              3706 	ld	hl, #_malloc_i
      000EBC 86                    3707 	add	a, (hl)
      000EBD 5F                    3708 	ld	e, a
      000EBE 3Es00                 3709 	ld	a, #>(_window_components_on_current_floor)
      000EC0 CE 00                 3710 	adc	a, #0x00
      000EC2 57                    3711 	ld	d, a
      000EC3 1A                    3712 	ld	a, (de)
      000EC4 E6 0F                 3713 	and	a, #0x0f
      000EC6 6F                    3714 	ld	l, a
                                   3715 ;	spillPairReg hl
                                   3716 ;	spillPairReg hl
      000EC7 26 00                 3717 	ld	h, #0x00
                                   3718 ;	spillPairReg hl
                                   3719 ;	spillPairReg hl
      000EC9 5D                    3720 	ld	e, l
      000ECA 54                    3721 	ld	d, h
      000ECB 29                    3722 	add	hl, hl
      000ECC 29                    3723 	add	hl, hl
      000ECD 29                    3724 	add	hl, hl
      000ECE 19                    3725 	add	hl, de
      000ECF 09                    3726 	add	hl, bc
      000ED0 4D                    3727 	ld	c, l
      000ED1 44                    3728 	ld	b, h
      000ED2 59                    3729 	ld	e, c
      000ED3 50                    3730 	ld	d, b
      000ED4 13                    3731 	inc	de
      000ED5 1A                    3732 	ld	a, (de)
      000ED6 87                    3733 	add	a, a
      000ED7 87                    3734 	add	a, a
      000ED8 F8 00                 3735 	ldhl	sp,	#0
      000EDA 77                    3736 	ld	(hl), a
      000EDB 69                    3737 	ld	l, c
                                   3738 ;	spillPairReg hl
                                   3739 ;	spillPairReg hl
      000EDC 60                    3740 	ld	h, b
                                   3741 ;	spillPairReg hl
                                   3742 ;	spillPairReg hl
      000EDD 23                    3743 	inc	hl
      000EDE 23                    3744 	inc	hl
      000EDF 5D                    3745 	ld	e, l
      000EE0 54                    3746 	ld	d, h
      000EE1 1A                    3747 	ld	a, (de)
      000EE2 F8 01                 3748 	ldhl	sp,	#1
      000EE4 22                    3749 	ld	(hl+), a
      000EE5 13                    3750 	inc	de
      000EE6 1A                    3751 	ld	a, (de)
      000EE7 77                    3752 	ld	(hl), a
      000EE8 FArD6r00              3753 	ld	a, (#_malloc_i)
      000EEB 87                    3754 	add	a, a
      000EEC 87                    3755 	add	a, a
      000EED 5F                    3756 	ld	e, a
      000EEE 0A                    3757 	ld	a, (bc)
      000EEF 3D                    3758 	dec	a
      000EF0 CB 37                 3759 	swap	a
      000EF2 E6 F0                 3760 	and	a, #0xf0
      000EF4 83                    3761 	add	a, e
      000EF5 F8 00                 3762 	ldhl	sp,	#0
      000EF7 66                    3763 	ld	h, (hl)
                                   3764 ;	spillPairReg hl
                                   3765 ;	spillPairReg hl
      000EF8 E5                    3766 	push	hl
      000EF9 33                    3767 	inc	sp
      000EFA 26 04                 3768 	ld	h, #0x04
                                   3769 ;	spillPairReg hl
                                   3770 ;	spillPairReg hl
      000EFC E5                    3771 	push	hl
      000EFD 33                    3772 	inc	sp
      000EFE F8 03                 3773 	ldhl	sp,	#3
      000F00 5E                    3774 	ld	e, (hl)
      000F01 23                    3775 	inc	hl
      000F02 56                    3776 	ld	d, (hl)
      000F03 D5                    3777 	push	de
      000F04 F5                    3778 	push	af
      000F05 33                    3779 	inc	sp
      000F06 CDr12r0F              3780 	call	_memcpy_rect
      000F09 E8 05                 3781 	add	sp, #5
                           000F0B  3782 	C$scene.c$518$1_0$263	= .
                                   3783 	.globl	C$scene.c$518$1_0$263
                                   3784 ;src/scene.c:518: malloc_i++;
      000F0B 21rD6r00              3785 	ld	hl, #_malloc_i
      000F0E 34                    3786 	inc	(hl)
      000F0F                       3787 00103$:
                           000F0F  3788 	C$scene.c$519$1_0$263	= .
                                   3789 	.globl	C$scene.c$519$1_0$263
                                   3790 ;src/scene.c:519: }
      000F0F E8 03                 3791 	add	sp, #3
                           000F11  3792 	C$scene.c$519$1_0$263	= .
                                   3793 	.globl	C$scene.c$519$1_0$263
                           000F11  3794 	XG$fill_memory$0$0	= .
                                   3795 	.globl	XG$fill_memory$0$0
      000F11 C9                    3796 	ret
                           000F12  3797 	G$memcpy_rect$0$0	= .
                                   3798 	.globl	G$memcpy_rect$0$0
                           000F12  3799 	C$scene.c$521$1_0$266	= .
                                   3800 	.globl	C$scene.c$521$1_0$266
                                   3801 ;src/scene.c:521: void memcpy_rect(uint8_t wm_pos, uint8_t * p_src, uint8_t src_width, uint8_t size_bytes){
                                   3802 ;	---------------------------------
                                   3803 ; Function memcpy_rect
                                   3804 ; ---------------------------------
      000F12                       3805 _memcpy_rect::
      000F12 E8 FC                 3806 	add	sp, #-4
                           000F14  3807 	C$scene.c$525$1_0$266	= .
                                   3808 	.globl	C$scene.c$525$1_0$266
                                   3809 ;src/scene.c:525: uint8_t * map_pointer = window_map + wm_pos;
      000F14 01rD7r00              3810 	ld	bc, #_window_map+0
      000F17 F8 06                 3811 	ldhl	sp,	#6
      000F19 6E                    3812 	ld	l, (hl)
      000F1A 26 00                 3813 	ld	h, #0x00
      000F1C 09                    3814 	add	hl, bc
      000F1D 4D                    3815 	ld	c, l
      000F1E 44                    3816 	ld	b, h
                           000F1F  3817 	C$scene.c$526$1_0$266	= .
                                   3818 	.globl	C$scene.c$526$1_0$266
                                   3819 ;src/scene.c:526: cur_row = src_width;
      000F1F F8 09                 3820 	ldhl	sp,	#9
      000F21 5E                    3821 	ld	e, (hl)
      000F22 21r3Fr01              3822 	ld	hl, #_memcpy_rect_cur_row_65536_266
      000F25 73                    3823 	ld	(hl), e
                           000F26  3824 	C$scene.c$527$1_1$267	= .
                                   3825 	.globl	C$scene.c$527$1_1$267
                                   3826 ;src/scene.c:527: uint8_t dest_next_row_start = 16U/*dest_width*/ - src_width; // only do this calc once
      000F26 3E 10                 3827 	ld	a, #0x10
      000F28 93                    3828 	sub	a, e
      000F29 F8 00                 3829 	ldhl	sp,	#0
                           000F2B  3830 	C$scene.c$529$3_1$269	= .
                                   3831 	.globl	C$scene.c$529$3_1$269
                                   3832 ;src/scene.c:529: while (size_bytes--) {
      000F2B 22                    3833 	ld	(hl+), a
      000F2C 73                    3834 	ld	(hl), e
      000F2D F8 07                 3835 	ldhl	sp,	#7
      000F2F 2A                    3836 	ld	a, (hl+)
      000F30 5F                    3837 	ld	e, a
      000F31 2A                    3838 	ld	a, (hl+)
      000F32 23                    3839 	inc	hl
      000F33 57                    3840 	ld	d, a
      000F34 7E                    3841 	ld	a, (hl)
      000F35 F8 03                 3842 	ldhl	sp,	#3
      000F37 77                    3843 	ld	(hl), a
      000F38                       3844 00103$:
      000F38 F8 03                 3845 	ldhl	sp,	#3
      000F3A 3A                    3846 	ld	a, (hl-)
      000F3B 22                    3847 	ld	(hl+), a
      000F3C 35                    3848 	dec	(hl)
      000F3D 2B                    3849 	dec	hl
      000F3E 7E                    3850 	ld	a, (hl)
      000F3F B7                    3851 	or	a, a
      000F40 28 1A                 3852 	jr	Z, 00106$
                           000F42  3853 	C$scene.c$530$2_1$268	= .
                                   3854 	.globl	C$scene.c$530$2_1$268
                                   3855 ;src/scene.c:530: *map_pointer++ = *(p_src++);
      000F42 1A                    3856 	ld	a, (de)
      000F43 13                    3857 	inc	de
      000F44 02                    3858 	ld	(bc), a
      000F45 03                    3859 	inc	bc
                           000F46  3860 	C$scene.c$531$2_1$268	= .
                                   3861 	.globl	C$scene.c$531$2_1$268
                                   3862 ;src/scene.c:531: cur_row--;
      000F46 21r3Fr01              3863 	ld	hl, #_memcpy_rect_cur_row_65536_266
                           000F49  3864 	C$scene.c$532$2_1$268	= .
                                   3865 	.globl	C$scene.c$532$2_1$268
                                   3866 ;src/scene.c:532: if (cur_row == 0) {
      000F49 35                    3867 	dec	(hl)
      000F4A 20 EC                 3868 	jr	NZ, 00103$
                           000F4C  3869 	C$scene.c$533$3_1$269	= .
                                   3870 	.globl	C$scene.c$533$3_1$269
                                   3871 ;src/scene.c:533: map_pointer += dest_next_row_start;   
      000F4C F8 00                 3872 	ldhl	sp,	#0
      000F4E 6E                    3873 	ld	l, (hl)
      000F4F 26 00                 3874 	ld	h, #0x00
      000F51 09                    3875 	add	hl, bc
      000F52 4D                    3876 	ld	c, l
      000F53 44                    3877 	ld	b, h
                           000F54  3878 	C$scene.c$534$3_1$269	= .
                                   3879 	.globl	C$scene.c$534$3_1$269
                                   3880 ;src/scene.c:534: cur_row = src_width;
      000F54 F8 01                 3881 	ldhl	sp,	#1
      000F56 7E                    3882 	ld	a, (hl)
      000F57 EAr3Fr01              3883 	ld	(#_memcpy_rect_cur_row_65536_266),a
      000F5A 18 DC                 3884 	jr	00103$
      000F5C                       3885 00106$:
                           000F5C  3886 	C$scene.c$537$1_1$266	= .
                                   3887 	.globl	C$scene.c$537$1_1$266
                                   3888 ;src/scene.c:537: }
      000F5C E8 04                 3889 	add	sp, #4
                           000F5E  3890 	C$scene.c$537$1_1$266	= .
                                   3891 	.globl	C$scene.c$537$1_1$266
                           000F5E  3892 	XG$memcpy_rect$0$0	= .
                                   3893 	.globl	XG$memcpy_rect$0$0
      000F5E C9                    3894 	ret
                                   3895 	.area _CODE
                                   3896 	.area _INITIALIZER
                                   3897 	.area _CABS (ABS)
