ASxxxx Linker V03.00 + NoICE + sdld,  page 1.
Hexadecimal  [32-Bits]

Area                       Addr        Size        Decimal Bytes (Attributes)
--------------------       ----        ----        ------- ----- ------------
.  .ABS.               00000000    00000000 =           0. bytes (ABS,CON)

        Value  Global            Value  Global            Value  Global    
        -----  ------            -----  ------            -----  ------    
     00000000  .__.ABS.  |    00000000  _rRAMG    |    00000000  l__BASE  
     00000000  l__BSS    |    00000000  l__CABS   |    00000000  l__CODE_0
     00000000  l__DABS   |    00000000  l__HEADER |    00000000  l__HEADER
     00000000  l__HEAP   |    00000000  l__HRAM   |    00000000  l__LIT   
     00000000  s__CABS   |    00000000  s__DABS   |    00000000  s__HEADER
     00000000  s__HEADER |    00000000  s__HEADER |    00000000  s__HEADER
     00000000  s__HEADER |    00000000  s__HEADER |    00000000  s__HEADER
     00000000  s__HEADER |    00000000  s__HEADER |    00000000  s__HEADER
     00000000  s__HEADER |    00000000  s__HEADER |    00000000  s__HEADER
     00000000  s__HEADER |    00000000  s__HEADER |    00000000  s__HEADER
     00000000  s__HEADER |    00000000  s__HEADER |    00000000  s__HEADER
     00000000  s__HEADER |    00000000  s__HEADER |    00000000  s__HRAM  
     00000000  s__HRAM12 |    00000001  l__GSFINA |    00000001  l__HEADER
     00000001  l__HEADER |    00000001  l__HEADER |    00000001  l__HEADER
     00000001  l__HEADER |    00000001  l__HEADER |    00000001  l__HEADER
     00000002  l__HEADER |    00000002  l__HEADER |    00000002  l__HEADER
     00000003  l__HEADER |    00000003  l__HEADER |    00000003  l__HRAM12
     00000005  l__HEADER |    00000006  l__HEADER |    00000007  l__HEADER
     00000008  l__HEADER |    0000000C  l__GSINIT |    00000030  l__HEADER
     0000004E  l__HEADER |    00000082  l__HEADER |    00000104  l__INITIA
     00000104  l__INITIA |    00000196  l__DATA   |    00000200  s__CODE  
     0000035C  l__HOME   |    00002000  _rROMB0   |    00003000  _rROMB1  
     000037D3  l__CODE   |    000039D3  s__HOME   |    00003D2F  s__BASE  
     00003D2F  s__CODE_0 |    00003D2F  s__INITIA |    00003D2F  s__LIT   
     00003E33  s__GSINIT |    00003E3F  s__GSFINA |    00004000  _rRAMB   
     00008000  __VRAM    |    00008000  __VRAM800 |    00008800  __VRAM880
     00009000  __VRAM900 |    00009800  __SCRN0   |    00009C00  __SCRN1  
     0000A000  __SRAM    |    0000C000  __RAM     |    0000C000  _shadow_O
     0000C0A0  s__DATA   |    0000C236  s__BSS    |    0000C236  s__INITIA
     0000C33A  s__HEAP   |    0000D000  __RAMBANK |    0000E000  .STACK   
     0000FE00  __OAMRAM  |    0000FF00  _P1_REG   |    0000FF00  __IO     
     0000FF01  _SB_REG   |    0000FF02  _SC_REG   |    0000FF04  _DIV_REG 
     0000FF05  _TIMA_REG |    0000FF06  _TMA_REG  |    0000FF07  _TAC_REG 
     0000FF0F  _IF_REG   |    0000FF10  _NR10_REG |    0000FF11  _NR11_REG
     0000FF12  _NR12_REG |    0000FF13  _NR13_REG |    0000FF14  _NR14_REG
     0000FF16  _NR21_REG |    0000FF17  _NR22_REG |    0000FF18  _NR23_REG
     0000FF19  _NR24_REG |    0000FF1A  _NR30_REG |    0000FF1B  _NR31_REG
     0000FF1C  _NR32_REG |    0000FF1D  _NR33_REG |    0000FF1E  _NR34_REG
     0000FF20  _NR41_REG |    0000FF21  _NR42_REG |    0000FF22  _NR43_REG
     0000FF23  _NR44_REG |    0000FF24  _NR50_REG |    0000FF25  _NR51_REG
     0000FF26  _NR52_REG |    0000FF30  _AUD3WAVE |    0000FF30  _PCM_SAMP
     0000FF30  __AUD3WAV |    0000FF40  _LCDC_REG |    0000FF41  _STAT_REG
     0000FF42  _SCY_REG  |    0000FF43  _SCX_REG  |    0000FF44  _LY_REG  
     0000FF45  _LYC_REG  |    0000FF46  _DMA_REG  |    0000FF47  _BGP_REG 
     0000FF48  _OBP0_REG |    0000FF49  _OBP1_REG |    0000FF4A  _WY_REG  
     0000FF4B  _WX_REG   |    0000FF4D  _KEY1_REG |    0000FF4F  _VBK_REG 
     0000FF51  _HDMA1_RE |    0000FF52  _HDMA2_RE |    0000FF53  _HDMA3_RE
     0000FF54  _HDMA4_RE |    0000FF55  _HDMA5_RE |    0000FF56  _RP_REG  
     0000FF68  _BCPS_REG |    0000FF69  _BCPD_REG |    0000FF6A  _OCPS_REG
     0000FF6B  _OCPD_REG |    0000FF70  _SVBK_REG |    0000FF76  _PCM12_RE
ASxxxx Linker V03.00 + NoICE + sdld,  page 2.
Hexadecimal  [32-Bits]

Area                       Addr        Size        Decimal Bytes (Attributes)
--------------------       ----        ----        ------- ----- ------------
.  .ABS.               00000000    00000000 =           0. bytes (ABS,CON)

        Value  Global            Value  Global            Value  Global    
        -----  ------            -----  ------            -----  ------    
     0000FF77  _PCM34_RE |    0000FF80  .refresh_ |    0000FF80  __HRAM   
     0000FFFF  _IE_REG  
ASxxxx Linker V03.00 + NoICE + sdld,  page 3.
Hexadecimal  [32-Bits]

Area                       Addr        Size        Decimal Bytes (Attributes)
--------------------       ----        ----        ------- ----- ------------
_CODE                  00000200    000037D3 =       14291. bytes (REL,CON)

        Value  Global            Value  Global            Value  Global    
        -----  ------            -----  ------            -----  ------    
     00000200  A$ending$ |    00000200  C$ending. |    00000200  C$ending.
     00000200  G$VBL_isr |    00000200  _VBL_isr  |    00000202  A$ending$
     00000204  A$ending$ |    00000206  A$ending$ |    00000206  C$ending.
     00000209  A$ending$ |    0000020B  A$ending$ |    0000020B  C$ending.
     0000020B  XG$VBL_is |    0000020C  A$ending$ |    0000020C  C$ending.
     0000020C  C$ending. |    0000020C  G$LCD_isr |    0000020C  _LCD_isr 
     0000020E  A$ending$ |    00000210  A$ending$ |    00000211  A$ending$
     00000211  C$ending. |    00000213  A$ending$ |    00000215  A$ending$
     00000217  A$ending$ |    00000217  C$ending. |    00000219  A$ending$
     0000021B  A$ending$ |    0000021B  C$ending. |    0000021B  XG$LCD_is
     0000021C  A$ending$ |    0000021C  C$ending. |    0000021C  C$ending.
     0000021C  G$ending_ |    0000021C  _ending_i |    0000021F  A$ending$
     00000221  A$ending$ |    00000221  C$ending. |    00000224  A$ending$
     00000225  A$ending$ |    00000228  A$ending$ |    00000229  A$ending$
     00000229  C$ending. |    0000022C  A$ending$ |    0000022D  A$ending$
     00000230  A$ending$ |    00000231  A$ending$ |    00000234  A$ending$
     00000236  A$ending$ |    00000239  A$ending$ |    0000023B  A$ending$
     0000023E  A$ending$ |    00000240  A$ending$ |    00000243  A$ending$
     00000245  A$ending$ |    00000248  A$ending$ |    0000024A  A$ending$
     0000024D  A$ending$ |    0000024F  A$ending$ |    0000024F  C$ending.
     0000024F  C$ending. |    0000024F  XG$ending |    00000250  A$ending$
     00000250  C$ending. |    00000250  Fending$p |    00000251  A$ending$
     00000251  C$ending. |    00000254  A$ending$ |    00000256  A$ending$
     00000259  A$ending$ |    00000259  C$ending. |    0000025C  A$ending$
     0000025D  A$ending$ |    0000025F  A$ending$ |    00000260  A$ending$
     00000260  C$ending. |    00000263  A$ending$ |    00000264  A$ending$
     00000265  A$ending$ |    00000267  A$ending$ |    00000267  C$ending.
     0000026A  A$ending$ |    0000026C  A$ending$ |    0000026C  C$ending.
     0000026F  A$ending$ |    00000270  A$ending$ |    00000273  A$ending$
     00000274  A$ending$ |    00000275  A$ending$ |    00000276  A$ending$
     00000277  A$ending$ |    0000027A  A$ending$ |    0000027C  A$ending$
     0000027C  C$ending. |    0000027F  A$ending$ |    00000280  A$ending$
     00000281  A$ending$ |    00000284  A$ending$ |    00000285  A$ending$
     00000288  A$ending$ |    00000289  A$ending$ |    0000028A  A$ending$
     0000028C  A$ending$ |    0000028D  A$ending$ |    0000028E  A$ending$
     0000028F  A$ending$ |    00000290  A$ending$ |    00000293  A$ending$
     00000295  A$ending$ |    00000296  A$ending$ |    00000299  A$ending$
     0000029B  A$ending$ |    0000029C  A$ending$ |    0000029F  A$ending$
     000002A0  A$ending$ |    000002A1  A$ending$ |    000002A2  A$ending$
     000002A4  A$ending$ |    000002A5  A$ending$ |    000002A6  A$ending$
     000002A8  A$ending$ |    000002A9  A$ending$ |    000002AA  A$ending$
     000002AB  A$ending$ |    000002AD  A$ending$ |    000002B0  A$ending$
     000002B2  A$ending$ |    000002B4  A$ending$ |    000002B4  C$ending.
     000002B6  A$ending$ |    000002B7  A$ending$ |    000002B9  A$ending$
     000002BA  A$ending$ |    000002BA  C$ending. |    000002BD  A$ending$
     000002BE  A$ending$ |    000002C0  A$ending$ |    000002C0  C$ending.
     000002C1  A$ending$ |    000002C3  A$ending$ |    000002C4  A$ending$
     000002C5  A$ending$ |    000002C8  A$ending$ |    000002C9  A$ending$
     000002CB  A$ending$ |    000002CC  A$ending$ |    000002CE  A$ending$
     000002CF  A$ending$ |    000002D0  A$ending$ |    000002D3  A$ending$
ASxxxx Linker V03.00 + NoICE + sdld,  page 4.
Hexadecimal  [32-Bits]

Area                       Addr        Size        Decimal Bytes (Attributes)
--------------------       ----        ----        ------- ----- ------------
_CODE                  00000200    000037D3 =       14291. bytes (REL,CON)

        Value  Global            Value  Global            Value  Global    
        -----  ------            -----  ------            -----  ------    
     000002D5  A$ending$ |    000002D5  C$ending. |    000002D8  A$ending$
     000002D9  A$ending$ |    000002DB  A$ending$ |    000002DD  A$ending$
     000002DE  A$ending$ |    000002DF  A$ending$ |    000002E1  A$ending$
     000002E2  A$ending$ |    000002E3  A$ending$ |    000002E4  A$ending$
     000002E5  A$ending$ |    000002E8  A$ending$ |    000002EA  A$ending$
     000002ED  A$ending$ |    000002EF  A$ending$ |    000002F2  A$ending$
     000002F4  A$ending$ |    000002F7  A$ending$ |    000002F9  A$ending$
     000002FC  A$ending$ |    000002FE  A$ending$ |    00000301  A$ending$
     00000303  A$ending$ |    00000306  A$ending$ |    00000308  A$ending$
     0000030B  A$ending$ |    0000030D  A$ending$ |    00000310  A$ending$
     00000312  A$ending$ |    00000312  C$ending. |    00000315  A$ending$
     00000317  A$ending$ |    00000317  C$ending. |    00000318  A$ending$
     00000318  C$ending. |    0000031B  A$ending$ |    0000031C  A$ending$
     0000031F  A$ending$ |    00000320  A$ending$ |    00000320  C$ending.
     00000323  A$ending$ |    00000324  A$ending$ |    00000327  A$ending$
     00000328  A$ending$ |    00000328  C$ending. |    0000032A  A$ending$
     0000032B  A$ending$ |    0000032C  A$ending$ |    0000032F  A$ending$
     00000330  A$ending$ |    00000330  C$ending. |    00000332  A$ending$
     00000334  A$ending$ |    00000336  A$ending$ |    00000336  C$ending.
     00000338  A$ending$ |    0000033A  A$ending$ |    0000033B  A$ending$
     0000033C  A$ending$ |    0000033C  C$ending. |    0000033C  XFending$
     0000033D  A$ending$ |    0000033D  C$ending. |    0000033D  C$ending.
     0000033D  G$compute |    0000033D  _compute_ |    00000340  A$ending$
     00000343  A$ending$ |    00000344  A$ending$ |    00000345  A$ending$
     00000347  A$ending$ |    00000349  A$ending$ |    0000034A  A$ending$
     0000034C  A$ending$ |    0000034D  A$ending$ |    0000034F  A$ending$
     00000352  A$ending$ |    00000353  A$ending$ |    00000355  A$ending$
     00000358  A$ending$ |    0000035A  A$ending$ |    0000035B  A$ending$
     0000035E  A$ending$ |    0000035F  A$ending$ |    00000360  A$ending$
     00000362  A$ending$ |    00000365  A$ending$ |    00000367  A$ending$
     0000036A  A$ending$ |    0000036B  A$ending$ |    0000036D  A$ending$
     00000370  A$ending$ |    00000372  A$ending$ |    00000373  A$ending$
     00000376  A$ending$ |    00000377  A$ending$ |    00000378  A$ending$
     0000037A  A$ending$ |    0000037D  A$ending$ |    0000037E  A$ending$
     00000381  A$ending$ |    00000382  A$ending$ |    00000383  A$ending$
     00000385  A$ending$ |    00000388  A$ending$ |    00000389  A$ending$
     0000038C  A$ending$ |    0000038D  A$ending$ |    0000038E  A$ending$
     00000390  A$ending$ |    00000390  C$ending. |    00000392  A$ending$
     00000395  A$ending$ |    00000396  A$ending$ |    00000398  A$ending$
     00000398  C$ending. |    0000039B  A$ending$ |    0000039C  A$ending$
     0000039E  A$ending$ |    0000039F  A$ending$ |    000003A2  A$ending$
     000003A4  A$ending$ |    000003A7  A$ending$ |    000003A9  A$ending$
     000003A9  C$ending. |    000003AB  A$ending$ |    000003AB  C$ending.
     000003AE  A$ending$ |    000003AF  A$ending$ |    000003B1  A$ending$
     000003B1  C$ending. |    000003B4  A$ending$ |    000003B5  A$ending$
     000003B7  A$ending$ |    000003B8  A$ending$ |    000003B8  C$ending.
     000003B9  A$ending$ |    000003BB  A$ending$ |    000003BC  A$ending$
     000003BC  C$ending. |    000003BF  A$ending$ |    000003C1  A$ending$
     000003C4  A$ending$ |    000003C6  A$ending$ |    000003C9  A$ending$
     000003CB  A$ending$ |    000003CB  C$ending. |    000003CB  C$ending.
     000003CE  A$ending$ |    000003CF  A$ending$ |    000003CF  C$ending.
ASxxxx Linker V03.00 + NoICE + sdld,  page 5.
Hexadecimal  [32-Bits]

Area                       Addr        Size        Decimal Bytes (Attributes)
--------------------       ----        ----        ------- ----- ------------
_CODE                  00000200    000037D3 =       14291. bytes (REL,CON)

        Value  Global            Value  Global            Value  Global    
        -----  ------            -----  ------            -----  ------    
     000003D1  A$ending$ |    000003D3  A$ending$ |    000003D3  C$ending.
     000003D6  A$ending$ |    000003D7  A$ending$ |    000003D9  A$ending$
     000003DA  A$ending$ |    000003DA  C$ending. |    000003DC  A$ending$
     000003DE  A$ending$ |    000003E1  A$ending$ |    000003E4  A$ending$
     000003E5  A$ending$ |    000003E7  A$ending$ |    000003EA  A$ending$
     000003ED  A$ending$ |    000003EE  A$ending$ |    000003F1  A$ending$
     000003F2  A$ending$ |    000003F2  C$ending. |    000003F3  A$ending$
     000003F5  A$ending$ |    000003F6  A$ending$ |    000003F7  A$ending$
     000003F8  A$ending$ |    000003F9  A$ending$ |    000003FB  A$ending$
     000003FD  A$ending$ |    000003FE  A$ending$ |    00000401  A$ending$
     00000402  A$ending$ |    00000403  A$ending$ |    00000404  A$ending$
     00000405  A$ending$ |    00000406  A$ending$ |    00000407  A$ending$
     00000409  A$ending$ |    0000040C  A$ending$ |    0000040D  A$ending$
     0000040E  A$ending$ |    0000040F  A$ending$ |    00000410  A$ending$
     00000411  A$ending$ |    00000412  A$ending$ |    00000415  A$ending$
     00000416  A$ending$ |    00000417  A$ending$ |    00000418  A$ending$
     00000418  C$ending. |    00000419  A$ending$ |    0000041B  A$ending$
     0000041E  A$ending$ |    0000041E  C$ending. |    0000041E  XG$comput
     0000041F  A$main$76 |    0000041F  C$main.c$ |    0000041F  G$perform
     0000041F  _performa |    00000421  A$main$78 |    00000422  A$main$79
     00000424  A$main$80 |    00000425  A$main$81 |    00000426  A$main$85
     00000426  C$main.c$ |    00000429  A$main$89 |    00000429  C$main.c$
     0000042A  A$main$97 |    0000042A  C$main.c$ |    0000042A  XG$perfor
     0000042C  A$main$11 |    0000042C  C$main.c$ |    0000042C  C$main.c$
     0000042C  G$main$0$ |    0000042C  _main     |    0000042F  A$main$11
     0000042F  C$main.c$ |    0000042F  C$main.c$ |    00000432  A$main$12
     00000432  C$main.c$ |    00000435  A$main$12 |    00000435  C$main.c$
     00000438  A$main$13 |    00000438  C$main.c$ |    0000043B  A$main$13
     0000043B  C$main.c$ |    0000043B  XG$main$0 |    0000043D  A$main$15
     0000043D  C$main.c$ |    0000043D  C$main.c$ |    0000043D  G$reset_g
     0000043D  _reset_ga |    00000440  A$main$15 |    00000442  A$main$15
     00000443  A$main$15 |    00000443  C$main.c$ |    00000446  A$main$16
     00000446  C$main.c$ |    00000449  A$main$16 |    0000044B  A$main$16
     0000044C  A$main$16 |    0000044F  A$main$16 |    00000451  A$main$16
     00000452  A$main$16 |    00000455  A$main$16 |    00000456  A$main$16
     00000457  A$main$17 |    00000457  C$main.c$ |    0000045A  A$main$17
     0000045A  C$main.c$ |    0000045D  A$main$18 |    0000045D  C$main.c$
     0000045D  C$main.c$ |    0000045D  XG$reset_ |    00000460  A$main$20
     00000460  C$main.c$ |    00000460  C$main.c$ |    00000460  G$init_gf
     00000460  _init_gfx |    00000463  A$main$20 |    00000463  C$main.c$
     00000466  A$main$20 |    00000466  C$main.c$ |    00000469  A$main$21
     00000469  C$main.c$ |    0000046C  A$main$21 |    0000046C  C$main.c$
     0000046E  A$main$21 |    00000470  A$main$21 |    00000472  A$main$22
     00000474  A$main$22 |    00000476  A$main$22 |    00000478  A$main$22
     0000047A  A$main$22 |    0000047C  A$main$22 |    0000047E  A$main$23
     0000047E  C$main.c$ |    0000047E  XG$init_g |    0000047F  A$main$24
     0000047F  C$main.c$ |    0000047F  G$fadeout |    0000047F  _fadeout 
     00000482  A$main$24 |    00000484  A$main$25 |    00000484  C$main.c$
     00000487  A$main$25 |    00000488  A$main$25 |    0000048A  A$main$25
     0000048D  A$main$25 |    0000048E  A$main$25 |    00000490  A$main$25
     00000493  A$main$25 |    00000495  A$main$26 |    00000497  A$main$26
ASxxxx Linker V03.00 + NoICE + sdld,  page 6.
Hexadecimal  [32-Bits]

Area                       Addr        Size        Decimal Bytes (Attributes)
--------------------       ----        ----        ------- ----- ------------
_CODE                  00000200    000037D3 =       14291. bytes (REL,CON)

        Value  Global            Value  Global            Value  Global    
        -----  ------            -----  ------            -----  ------    
     0000049A  A$main$26 |    0000049C  A$main$26 |    0000049E  A$main$26
     000004A0  A$main$27 |    000004A0  C$main.c$ |    000004A0  C$main.c$
     000004A2  A$main$27 |    000004A4  A$main$27 |    000004A4  C$main.c$
     000004A6  A$main$27 |    000004A8  A$main$28 |    000004A8  C$main.c$
     000004AA  A$main$29 |    000004AA  C$main.c$ |    000004AA  C$main.c$
     000004AC  A$main$29 |    000004AE  A$main$29 |    000004AE  C$main.c$
     000004B0  A$main$29 |    000004B2  A$main$30 |    000004B2  C$main.c$
     000004B4  A$main$30 |    000004B4  C$main.c$ |    000004B4  C$main.c$
     000004B6  A$main$30 |    000004B8  A$main$31 |    000004B8  C$main.c$
     000004BA  A$main$31 |    000004BC  A$main$31 |    000004BC  C$main.c$
     000004BE  A$main$32 |    000004BE  C$main.c$ |    000004BE  C$main.c$
     000004C0  A$main$32 |    000004C2  A$main$33 |    000004C2  C$main.c$
     000004C4  A$main$33 |    000004C6  A$main$34 |    000004C6  C$main.c$
     000004C6  C$main.c$ |    000004C8  A$main$34 |    000004C9  A$main$34
     000004CA  A$main$34 |    000004CD  A$main$34 |    000004CE  A$main$34
     000004CE  C$main.c$ |    000004D1  A$main$34 |    000004D2  A$main$35
     000004D3  A$main$35 |    000004D5  A$main$35 |    000004D7  A$main$36
     000004D7  C$main.c$ |    000004D7  XG$fadeou |    000004D8  A$main$37
     000004D8  C$main.c$ |    000004D8  G$fadein$ |    000004D8  _fadein  
     000004DB  A$main$37 |    000004DD  A$main$37 |    000004DD  C$main.c$
     000004E0  A$main$38 |    000004E1  A$main$38 |    000004E3  A$main$38
     000004E6  A$main$38 |    000004E7  A$main$38 |    000004E9  A$main$38
     000004EC  A$main$38 |    000004EE  A$main$38 |    000004F0  A$main$38
     000004F2  A$main$39 |    000004F2  C$main.c$ |    000004F2  C$main.c$
     000004F4  A$main$39 |    000004F6  A$main$40 |    000004F6  C$main.c$
     000004F8  A$main$40 |    000004FA  A$main$40 |    000004FA  C$main.c$
     000004FC  A$main$41 |    000004FC  C$main.c$ |    000004FC  C$main.c$
     000004FE  A$main$41 |    00000500  A$main$41 |    00000500  C$main.c$
     00000502  A$main$42 |    00000504  A$main$42 |    00000504  C$main.c$
     00000506  A$main$43 |    00000506  C$main.c$ |    00000506  C$main.c$
     00000508  A$main$43 |    0000050A  A$main$43 |    0000050A  C$main.c$
     0000050C  A$main$43 |    0000050E  A$main$44 |    0000050E  C$main.c$
     0000050E  C$main.c$ |    00000510  A$main$44 |    00000511  A$main$44
     00000512  A$main$44 |    00000515  A$main$45 |    00000516  A$main$45
     00000516  C$main.c$ |    00000519  A$main$45 |    0000051A  A$main$45
     0000051B  A$main$45 |    0000051D  A$main$45 |    0000051F  A$main$46
     0000051F  C$main.c$ |    0000051F  XG$fadein |    00000520  A$player$
     00000520  C$player. |    00000520  C$player. |    00000520  G$player_
     00000520  _player_i |    00000523  A$player$ |    00000525  A$player$
     00000525  C$player. |    00000527  A$player$ |    00000529  A$player$
     00000529  C$player. |    0000052C  A$player$ |    0000052D  A$player$
     00000530  A$player$ |    00000531  A$player$ |    00000534  A$player$
     00000536  A$player$ |    00000536  C$player. |    00000539  A$player$
     0000053A  A$player$ |    0000053D  A$player$ |    0000053E  A$player$
     00000541  A$player$ |    00000543  A$player$ |    00000543  C$player.
     00000546  A$player$ |    00000548  A$player$ |    00000548  C$player.
     0000054B  A$player$ |    0000054D  A$player$ |    0000054D  C$player.
     00000550  A$player$ |    00000552  A$player$ |    00000552  C$player.
     00000555  A$player$ |    00000557  A$player$ |    00000557  C$player.
     0000055A  A$player$ |    0000055C  A$player$ |    0000055C  C$player.
     0000055F  A$player$ |    00000561  A$player$ |    00000561  C$player.
ASxxxx Linker V03.00 + NoICE + sdld,  page 7.
Hexadecimal  [32-Bits]

Area                       Addr        Size        Decimal Bytes (Attributes)
--------------------       ----        ----        ------- ----- ------------
_CODE                  00000200    000037D3 =       14291. bytes (REL,CON)

        Value  Global            Value  Global            Value  Global    
        -----  ------            -----  ------            -----  ------    
     00000564  A$player$ |    00000566  A$player$ |    00000569  A$player$
     0000056B  A$player$ |    0000056B  C$player. |    0000056E  A$player$
     00000570  A$player$ |    00000573  A$player$ |    00000575  A$player$
     00000575  C$player. |    00000578  A$player$ |    0000057A  A$player$
     0000057A  C$player. |    0000057D  A$player$ |    0000057F  A$player$
     0000057F  C$player. |    00000582  A$player$ |    00000584  A$player$
     00000584  C$player. |    00000585  A$player$ |    00000588  A$player$
     00000589  A$player$ |    0000058A  A$player$ |    0000058A  C$player.
     0000058D  A$player$ |    0000058F  A$player$ |    0000058F  C$player.
     00000592  A$player$ |    00000594  A$player$ |    00000594  C$player.
     00000597  A$player$ |    00000599  A$player$ |    00000599  C$player.
     0000059C  A$player$ |    0000059E  A$player$ |    0000059E  C$player.
     000005A1  A$player$ |    000005A3  A$player$ |    000005A6  A$player$
     000005A7  A$player$ |    000005A8  A$player$ |    000005A9  A$player$
     000005AC  A$player$ |    000005AD  A$player$ |    000005AE  A$player$
     000005AF  A$player$ |    000005B2  A$player$ |    000005B4  A$player$
     000005B7  A$player$ |    000005B8  A$player$ |    000005B9  A$player$
     000005BA  A$player$ |    000005BB  A$player$ |    000005BE  A$player$
     000005C0  A$player$ |    000005C0  C$player. |    000005C3  A$player$
     000005C4  A$player$ |    000005C7  A$player$ |    000005C8  A$player$
     000005CB  A$player$ |    000005CD  A$player$ |    000005D0  A$player$
     000005D2  A$player$ |    000005D5  A$player$ |    000005D7  A$player$
     000005DA  A$player$ |    000005DC  A$player$ |    000005DF  A$player$
     000005E1  A$player$ |    000005E1  C$player. |    000005E4  A$player$
     000005E6  A$player$ |    000005E6  C$player. |    000005E6  XG$player
     000005E7  G$jump_g$ |    000005E7  _jump_g   |    000005E8  G$fall_g$
     000005E8  _fall_g   |    000005E9  G$impulse |    000005E9  _impulse 
     000005EA  G$jump_po |    000005EA  _jump_pow |    000005EB  G$clamp_x
     000005EB  _clamp_x_ |    000005EC  G$clamp_y |    000005EC  _clamp_y_
     000005ED  A$player$ |    000005ED  C$player. |    000005ED  C$player.
     000005ED  G$compute |    000005ED  _compute_ |    000005F0  A$player$
     000005F2  A$player$ |    000005F4  A$player$ |    000005F4  C$player.
     000005F7  A$player$ |    000005F9  A$player$ |    000005F9  C$player.
     000005FC  A$player$ |    000005FC  C$player. |    000005FF  A$player$
     00000601  A$player$ |    00000602  A$player$ |    00000602  C$player.
     00000605  A$player$ |    00000605  C$player. |    00000608  A$player$
     00000608  C$player. |    0000060B  A$player$ |    0000060C  A$player$
     0000060D  A$player$ |    0000060E  A$player$ |    0000060F  A$player$
     00000611  A$player$ |    00000613  A$player$ |    00000615  A$player$
     00000617  A$player$ |    00000618  A$player$ |    0000061A  A$player$
     0000061C  A$player$ |    0000061E  A$player$ |    0000061F  A$player$
     00000621  A$player$ |    00000624  A$player$ |    00000626  A$player$
     00000628  A$player$ |    0000062A  A$player$ |    0000062C  A$player$
     0000062C  C$player. |    0000062E  A$player$ |    0000062F  A$player$
     00000630  A$player$ |    00000633  A$player$ |    00000634  A$player$
     00000634  C$player. |    00000637  A$player$ |    00000639  A$player$
     00000639  C$player. |    0000063C  A$player$ |    0000063E  A$player$
     0000063E  C$player. |    00000641  A$player$ |    00000643  A$player$
     00000645  A$player$ |    00000648  A$player$ |    00000649  A$player$
     0000064B  A$player$ |    0000064D  A$player$ |    0000064E  A$player$
     0000064E  C$player. |    00000651  A$player$ |    00000651  C$player.
ASxxxx Linker V03.00 + NoICE + sdld,  page 8.
Hexadecimal  [32-Bits]

Area                       Addr        Size        Decimal Bytes (Attributes)
--------------------       ----        ----        ------- ----- ------------
_CODE                  00000200    000037D3 =       14291. bytes (REL,CON)

        Value  Global            Value  Global            Value  Global    
        -----  ------            -----  ------            -----  ------    
     00000654  A$player$ |    00000657  A$player$ |    00000657  C$player.
     0000065A  A$player$ |    0000065D  A$player$ |    0000065D  C$player.
     00000660  A$player$ |    00000660  C$player. |    00000663  A$player$
     00000663  C$player. |    00000663  C$player. |    00000663  XG$comput
     00000666  A$player$ |    00000666  C$player. |    00000666  C$player.
     00000666  Fplayer$r |    00000669  A$player$ |    0000066C  A$player$
     0000066D  A$player$ |    0000066E  A$player$ |    00000670  A$player$
     00000672  A$player$ |    00000672  C$player. |    00000675  A$player$
     00000677  A$player$ |    00000679  A$player$ |    0000067B  A$player$
     0000067C  A$player$ |    0000067D  A$player$ |    00000680  A$player$
     00000681  A$player$ |    00000681  C$player. |    00000684  A$player$
     00000686  A$player$ |    00000688  A$player$ |    0000068B  A$player$
     0000068C  A$player$ |    0000068E  A$player$ |    0000068E  C$player.
     00000691  A$player$ |    00000693  A$player$ |    00000695  A$player$
     00000695  C$player. |    00000698  A$player$ |    0000069A  A$player$
     0000069A  C$player. |    0000069D  A$player$ |    000006A0  A$player$
     000006A2  A$player$ |    000006A2  C$player. |    000006A4  A$player$
     000006A6  A$player$ |    000006A6  C$player. |    000006A9  A$player$
     000006AB  A$player$ |    000006AD  A$player$ |    000006AF  A$player$
     000006B0  A$player$ |    000006B1  A$player$ |    000006B4  A$player$
     000006B5  A$player$ |    000006B5  C$player. |    000006B8  A$player$
     000006BA  A$player$ |    000006BC  A$player$ |    000006BF  A$player$
     000006C0  A$player$ |    000006C2  A$player$ |    000006C2  C$player.
     000006C5  A$player$ |    000006C7  A$player$ |    000006C9  A$player$
     000006C9  C$player. |    000006CC  A$player$ |    000006CE  A$player$
     000006CE  C$player. |    000006D1  A$player$ |    000006D4  A$player$
     000006D6  A$player$ |    000006D6  C$player. |    000006D9  A$player$
     000006DB  A$player$ |    000006DB  C$player. |    000006DE  A$player$
     000006DF  A$player$ |    000006E1  A$player$ |    000006E4  A$player$
     000006E5  A$player$ |    000006E7  A$player$ |    000006E8  A$player$
     000006E9  A$player$ |    000006EA  A$player$ |    000006ED  A$player$
     000006EE  A$player$ |    000006EE  C$player. |    000006F1  A$player$
     000006F1  C$player. |    000006F3  A$player$ |    000006F4  A$player$
     000006F6  A$player$ |    000006F7  A$player$ |    000006F8  A$player$
     000006FA  A$player$ |    000006FD  A$player$ |    000006FF  A$player$
     00000701  A$player$ |    00000704  A$player$ |    00000706  A$player$
     00000708  A$player$ |    0000070B  A$player$ |    0000070D  A$player$
     0000070F  A$player$ |    00000712  A$player$ |    00000714  A$player$
     00000716  A$player$ |    00000716  C$player. |    00000718  A$player$
     00000719  A$player$ |    0000071A  A$player$ |    0000071D  A$player$
     0000071E  A$player$ |    0000071E  C$player. |    00000721  A$player$
     00000721  C$player. |    00000724  A$player$ |    00000726  A$player$
     00000726  C$player. |    00000729  A$player$ |    0000072C  A$player$
     0000072C  C$player. |    0000072F  A$player$ |    00000731  A$player$
     00000731  C$player. |    00000734  A$player$ |    00000736  A$player$
     00000738  A$player$ |    00000738  C$player. |    00000739  A$player$
     0000073A  A$player$ |    0000073C  A$player$ |    0000073F  A$player$
     00000740  A$player$ |    00000741  A$player$ |    00000742  A$player$
     00000743  A$player$ |    00000745  A$player$ |    00000747  A$player$
     00000749  A$player$ |    0000074B  A$player$ |    0000074C  A$player$
     0000074E  A$player$ |    00000750  A$player$ |    00000752  A$player$
ASxxxx Linker V03.00 + NoICE + sdld,  page 9.
Hexadecimal  [32-Bits]

Area                       Addr        Size        Decimal Bytes (Attributes)
--------------------       ----        ----        ------- ----- ------------
_CODE                  00000200    000037D3 =       14291. bytes (REL,CON)

        Value  Global            Value  Global            Value  Global    
        -----  ------            -----  ------            -----  ------    
     00000753  A$player$ |    00000755  A$player$ |    00000758  A$player$
     0000075A  A$player$ |    0000075C  A$player$ |    0000075C  C$player.
     0000075E  A$player$ |    0000075F  A$player$ |    00000760  A$player$
     00000763  A$player$ |    00000764  A$player$ |    00000764  C$player.
     00000767  A$player$ |    00000767  C$player. |    0000076A  A$player$
     0000076C  A$player$ |    0000076C  C$player. |    0000076F  A$player$
     00000771  A$player$ |    00000772  A$player$ |    00000775  A$player$
     00000777  A$player$ |    00000777  C$player. |    00000777  XFplayer$
     00000778  A$player$ |    00000778  C$player. |    00000778  Fplayer$c
     0000077A  A$player$ |    0000077A  C$player. |    0000077D  A$player$
     0000077E  A$player$ |    00000780  A$player$ |    00000782  A$player$
     00000785  A$player$ |    00000787  A$player$ |    00000789  A$player$
     0000078C  A$player$ |    0000078D  A$player$ |    0000078F  A$player$
     00000792  A$player$ |    00000793  A$player$ |    00000796  A$player$
     00000796  C$player. |    00000797  A$player$ |    00000799  A$player$
     0000079A  A$player$ |    0000079C  A$player$ |    0000079D  A$player$
     0000079F  A$player$ |    0000079F  C$player. |    000007A0  A$player$
     000007A2  A$player$ |    000007A4  A$player$ |    000007A5  A$player$
     000007A7  A$player$ |    000007A8  A$player$ |    000007AA  A$player$
     000007AA  C$player. |    000007AD  A$player$ |    000007AE  A$player$
     000007B0  A$player$ |    000007B1  A$player$ |    000007B1  C$player.
     000007B4  A$player$ |    000007B5  A$player$ |    000007B7  A$player$
     000007B7  C$player. |    000007BA  A$player$ |    000007BB  A$player$
     000007BE  A$player$ |    000007BF  A$player$ |    000007C1  A$player$
     000007C2  A$player$ |    000007C4  A$player$ |    000007C7  A$player$
     000007CA  A$player$ |    000007CB  A$player$ |    000007CE  A$player$
     000007D0  A$player$ |    000007D0  C$player. |    000007D3  A$player$
     000007D4  A$player$ |    000007D6  A$player$ |    000007D9  A$player$
     000007DB  A$player$ |    000007DE  A$player$ |    000007DF  A$player$
     000007E0  A$player$ |    000007E2  A$player$ |    000007E3  A$player$
     000007E4  A$player$ |    000007E5  A$player$ |    000007E7  A$player$
     000007E9  A$player$ |    000007EA  A$player$ |    000007EC  A$player$
     000007EF  A$player$ |    000007F0  A$player$ |    000007F3  A$player$
     000007F3  C$player. |    000007F6  A$player$ |    000007F7  A$player$
     000007F9  A$player$ |    000007FB  A$player$ |    000007FD  A$player$
     00000800  A$player$ |    00000802  A$player$ |    00000803  A$player$
     00000806  A$player$ |    00000808  A$player$ |    00000809  A$player$
     0000080C  A$player$ |    0000080E  A$player$ |    00000810  A$player$
     00000812  A$player$ |    00000813  A$player$ |    00000815  A$player$
     00000817  A$player$ |    00000818  A$player$ |    00000819  A$player$
     0000081A  A$player$ |    0000081C  A$player$ |    0000081D  A$player$
     00000820  A$player$ |    00000821  A$player$ |    00000822  A$player$
     00000823  A$player$ |    00000823  C$player. |    00000826  A$player$
     00000828  A$player$ |    00000829  A$player$ |    0000082A  A$player$
     0000082D  A$player$ |    0000082E  A$player$ |    00000830  A$player$
     00000831  A$player$ |    00000833  A$player$ |    00000835  A$player$
     00000837  A$player$ |    00000839  A$player$ |    0000083A  A$player$
     0000083C  A$player$ |    0000083E  A$player$ |    00000840  A$player$
     00000841  A$player$ |    00000843  A$player$ |    00000845  A$player$
     00000846  A$player$ |    00000848  A$player$ |    0000084B  A$player$
     0000084D  A$player$ |    0000084F  A$player$ |    00000851  A$player$
ASxxxx Linker V03.00 + NoICE + sdld,  page 10.
Hexadecimal  [32-Bits]

Area                       Addr        Size        Decimal Bytes (Attributes)
--------------------       ----        ----        ------- ----- ------------
_CODE                  00000200    000037D3 =       14291. bytes (REL,CON)

        Value  Global            Value  Global            Value  Global    
        -----  ------            -----  ------            -----  ------    
     00000852  A$player$ |    00000853  A$player$ |    00000854  A$player$
     00000856  A$player$ |    00000857  A$player$ |    0000085A  A$player$
     0000085B  A$player$ |    0000085E  A$player$ |    00000860  A$player$
     00000860  C$player. |    00000860  XFplayer$ |    00000861  A$player$
     00000861  C$player. |    00000861  Fplayer$r |    00000863  A$player$
     00000866  A$player$ |    00000869  A$player$ |    0000086A  A$player$
     0000086C  A$player$ |    0000086D  A$player$ |    00000870  A$player$
     00000872  A$player$ |    00000874  A$player$ |    00000876  A$player$
     00000878  A$player$ |    00000879  A$player$ |    0000087B  A$player$
     0000087B  C$player. |    0000087E  A$player$ |    00000880  A$player$
     00000880  C$player. |    00000883  A$player$ |    00000885  A$player$
     00000885  C$player. |    00000888  A$player$ |    00000888  C$player.
     0000088B  A$player$ |    0000088B  C$player. |    0000088E  A$player$
     0000088F  A$player$ |    00000892  A$player$ |    00000893  A$player$
     00000893  C$player. |    00000896  A$player$ |    00000899  A$player$
     0000089A  A$player$ |    0000089C  A$player$ |    0000089F  A$player$
     000008A1  A$player$ |    000008A3  A$player$ |    000008A5  A$player$
     000008A7  A$player$ |    000008A8  A$player$ |    000008A9  A$player$
     000008AA  A$player$ |    000008AB  A$player$ |    000008AC  A$player$
     000008AE  A$player$ |    000008AF  A$player$ |    000008B0  A$player$
     000008B0  C$player. |    000008B3  A$player$ |    000008B5  A$player$
     000008B7  A$player$ |    000008BA  A$player$ |    000008BC  A$player$
     000008BE  A$player$ |    000008C1  A$player$ |    000008C2  A$player$
     000008C3  A$player$ |    000008C4  A$player$ |    000008C5  A$player$
     000008C6  A$player$ |    000008C7  A$player$ |    000008C9  A$player$
     000008CA  A$player$ |    000008CB  A$player$ |    000008CC  A$player$
     000008CD  A$player$ |    000008CE  A$player$ |    000008CF  A$player$
     000008D0  A$player$ |    000008D3  A$player$ |    000008D4  A$player$
     000008D5  A$player$ |    000008D6  A$player$ |    000008D7  A$player$
     000008D8  A$player$ |    000008D9  A$player$ |    000008DC  A$player$
     000008DD  A$player$ |    000008E0  A$player$ |    000008E1  A$player$
     000008E3  A$player$ |    000008E4  A$player$ |    000008E7  A$player$
     000008E8  A$player$ |    000008E9  A$player$ |    000008EA  A$player$
     000008EB  A$player$ |    000008EE  A$player$ |    000008EF  A$player$
     000008F1  A$player$ |    000008F2  A$player$ |    000008F3  A$player$
     000008F4  A$player$ |    000008F5  A$player$ |    000008F8  A$player$
     000008F9  A$player$ |    000008FA  A$player$ |    000008FC  A$player$
     000008FD  A$player$ |    000008FE  A$player$ |    00000901  A$player$
     00000902  A$player$ |    00000902  C$player. |    00000905  A$player$
     00000906  A$player$ |    00000909  A$player$ |    0000090C  A$player$
     0000090C  C$player. |    0000090F  A$player$ |    0000090F  C$player.
     00000912  A$player$ |    00000914  A$player$ |    00000915  A$player$
     00000918  A$player$ |    0000091A  A$player$ |    0000091C  A$player$
     0000091F  A$player$ |    00000920  A$player$ |    00000921  A$player$
     00000922  A$player$ |    00000923  A$player$ |    00000924  A$player$
     00000925  A$player$ |    00000927  A$player$ |    00000928  A$player$
     00000929  A$player$ |    0000092A  A$player$ |    0000092B  A$player$
     0000092C  A$player$ |    0000092D  A$player$ |    0000092E  A$player$
     00000931  A$player$ |    00000932  A$player$ |    00000933  A$player$
     00000934  A$player$ |    00000937  A$player$ |    00000939  A$player$
     0000093B  A$player$ |    0000093C  A$player$ |    0000093D  A$player$
ASxxxx Linker V03.00 + NoICE + sdld,  page 11.
Hexadecimal  [32-Bits]

Area                       Addr        Size        Decimal Bytes (Attributes)
--------------------       ----        ----        ------- ----- ------------
_CODE                  00000200    000037D3 =       14291. bytes (REL,CON)

        Value  Global            Value  Global            Value  Global    
        -----  ------            -----  ------            -----  ------    
     0000093E  A$player$ |    00000940  A$player$ |    00000941  A$player$
     00000943  A$player$ |    00000944  A$player$ |    00000947  A$player$
     00000949  A$player$ |    00000949  C$player. |    0000094B  A$player$
     0000094D  A$player$ |    0000094E  A$player$ |    0000094F  A$player$
     00000950  A$player$ |    00000953  A$player$ |    00000954  A$player$
     00000955  A$player$ |    00000956  A$player$ |    00000957  A$player$
     00000958  A$player$ |    0000095A  A$player$ |    0000095B  A$player$
     0000095C  A$player$ |    0000095D  A$player$ |    0000095F  A$player$
     00000960  A$player$ |    00000961  A$player$ |    00000962  A$player$
     00000963  A$player$ |    00000964  A$player$ |    00000965  A$player$
     00000966  A$player$ |    00000967  A$player$ |    00000968  A$player$
     00000969  A$player$ |    0000096A  A$player$ |    0000096B  A$player$
     0000096C  A$player$ |    0000096E  A$player$ |    0000096F  A$player$
     00000970  A$player$ |    00000971  A$player$ |    00000972  A$player$
     00000973  A$player$ |    00000974  A$player$ |    00000975  A$player$
     00000978  A$player$ |    00000979  A$player$ |    0000097A  A$player$
     0000097B  A$player$ |    0000097E  A$player$ |    00000980  A$player$
     00000982  A$player$ |    00000983  A$player$ |    00000985  A$player$
     00000986  A$player$ |    00000987  A$player$ |    00000988  A$player$
     00000989  A$player$ |    0000098B  A$player$ |    0000098C  A$player$
     0000098F  A$player$ |    00000991  A$player$ |    00000991  C$player.
     00000991  C$player. |    00000994  A$player$ |    00000995  A$player$
     00000997  A$player$ |    0000099A  A$player$ |    0000099B  A$player$
     0000099D  A$player$ |    0000099F  A$player$ |    000009A1  A$player$
     000009A2  A$player$ |    000009A3  A$player$ |    000009A4  A$player$
     000009A4  C$player. |    000009A6  A$player$ |    000009A9  A$player$
     000009AA  A$player$ |    000009AD  A$player$ |    000009AD  C$player.
     000009B0  A$player$ |    000009B3  A$player$ |    000009B4  A$player$
     000009B6  A$player$ |    000009B7  A$player$ |    000009B7  C$player.
     000009BA  A$player$ |    000009BC  A$player$ |    000009BD  A$player$
     000009C0  A$player$ |    000009C2  A$player$ |    000009C4  A$player$
     000009C7  A$player$ |    000009C9  A$player$ |    000009CB  A$player$
     000009CD  A$player$ |    000009CE  A$player$ |    000009CF  A$player$
     000009D2  A$player$ |    000009D4  A$player$ |    000009D6  A$player$
     000009D7  A$player$ |    000009DA  A$player$ |    000009DB  A$player$
     000009DC  A$player$ |    000009DD  A$player$ |    000009DE  A$player$
     000009DF  A$player$ |    000009E0  A$player$ |    000009E1  A$player$
     000009E4  A$player$ |    000009E5  A$player$ |    000009E6  A$player$
     000009E9  A$player$ |    000009EB  A$player$ |    000009ED  A$player$
     000009EE  A$player$ |    000009EF  A$player$ |    000009F0  A$player$
     000009F1  A$player$ |    000009F3  A$player$ |    000009F4  A$player$
     000009F7  A$player$ |    000009F9  A$player$ |    000009F9  C$player.
     000009FC  A$player$ |    000009FE  A$player$ |    000009FF  A$player$
     00000A01  A$player$ |    00000A02  A$player$ |    00000A05  A$player$
     00000A06  A$player$ |    00000A07  A$player$ |    00000A08  A$player$
     00000A09  A$player$ |    00000A0A  A$player$ |    00000A0B  A$player$
     00000A0C  A$player$ |    00000A0F  A$player$ |    00000A10  A$player$
     00000A11  A$player$ |    00000A14  A$player$ |    00000A16  A$player$
     00000A18  A$player$ |    00000A19  A$player$ |    00000A1B  A$player$
     00000A1C  A$player$ |    00000A1D  A$player$ |    00000A1E  A$player$
     00000A1F  A$player$ |    00000A21  A$player$ |    00000A22  A$player$
ASxxxx Linker V03.00 + NoICE + sdld,  page 12.
Hexadecimal  [32-Bits]

Area                       Addr        Size        Decimal Bytes (Attributes)
--------------------       ----        ----        ------- ----- ------------
_CODE                  00000200    000037D3 =       14291. bytes (REL,CON)

        Value  Global            Value  Global            Value  Global    
        -----  ------            -----  ------            -----  ------    
     00000A25  A$player$ |    00000A27  A$player$ |    00000A27  C$player.
     00000A29  A$player$ |    00000A29  C$player. |    00000A2C  A$player$
     00000A2E  A$player$ |    00000A30  A$player$ |    00000A32  A$player$
     00000A33  A$player$ |    00000A34  A$player$ |    00000A37  A$player$
     00000A39  A$player$ |    00000A3B  A$player$ |    00000A3C  A$player$
     00000A3F  A$player$ |    00000A40  A$player$ |    00000A41  A$player$
     00000A42  A$player$ |    00000A43  A$player$ |    00000A44  A$player$
     00000A45  A$player$ |    00000A46  A$player$ |    00000A49  A$player$
     00000A4A  A$player$ |    00000A4B  A$player$ |    00000A4E  A$player$
     00000A50  A$player$ |    00000A52  A$player$ |    00000A53  A$player$
     00000A54  A$player$ |    00000A55  A$player$ |    00000A56  A$player$
     00000A58  A$player$ |    00000A59  A$player$ |    00000A5C  A$player$
     00000A5E  A$player$ |    00000A5E  C$player. |    00000A60  A$player$
     00000A62  A$player$ |    00000A63  A$player$ |    00000A65  A$player$
     00000A66  A$player$ |    00000A69  A$player$ |    00000A6A  A$player$
     00000A6B  A$player$ |    00000A6C  A$player$ |    00000A6D  A$player$
     00000A6E  A$player$ |    00000A6F  A$player$ |    00000A70  A$player$
     00000A73  A$player$ |    00000A74  A$player$ |    00000A75  A$player$
     00000A78  A$player$ |    00000A7A  A$player$ |    00000A7C  A$player$
     00000A7D  A$player$ |    00000A7F  A$player$ |    00000A80  A$player$
     00000A81  A$player$ |    00000A82  A$player$ |    00000A83  A$player$
     00000A85  A$player$ |    00000A86  A$player$ |    00000A89  A$player$
     00000A8B  A$player$ |    00000A8B  C$player. |    00000A8D  A$player$
     00000A90  A$player$ |    00000A91  A$player$ |    00000A92  A$player$
     00000A93  A$player$ |    00000A94  A$player$ |    00000A95  A$player$
     00000A96  A$player$ |    00000A97  A$player$ |    00000A9A  A$player$
     00000A9B  A$player$ |    00000A9C  A$player$ |    00000A9E  A$player$
     00000A9F  A$player$ |    00000AA0  A$player$ |    00000AA3  A$player$
     00000AA4  A$player$ |    00000AA4  C$player. |    00000AA4  C$player.
     00000AA7  A$player$ |    00000AAA  A$player$ |    00000AAB  A$player$
     00000AAC  A$player$ |    00000AAE  A$player$ |    00000AB0  A$player$
     00000AB3  A$player$ |    00000AB5  A$player$ |    00000AB7  A$player$
     00000AB7  C$player. |    00000AB9  A$player$ |    00000ABA  A$player$
     00000ABB  A$player$ |    00000ABE  A$player$ |    00000ABF  A$player$
     00000AC0  A$player$ |    00000AC1  A$player$ |    00000AC3  A$player$
     00000AC3  C$player. |    00000AC3  XFplayer$ |    00000AC4  A$player$
     00000AC4  C$player. |    00000AC4  Fplayer$r |    00000AC6  A$player$
     00000AC9  A$player$ |    00000ACB  A$player$ |    00000ACD  A$player$
     00000AD0  A$player$ |    00000AD1  A$player$ |    00000AD2  A$player$
     00000AD4  A$player$ |    00000AD6  A$player$ |    00000AD7  A$player$
     00000AD8  A$player$ |    00000AD9  A$player$ |    00000AD9  C$player.
     00000ADA  A$player$ |    00000ADC  A$player$ |    00000ADD  A$player$
     00000ADD  C$player. |    00000ADE  A$player$ |    00000ADF  A$player$
     00000AE1  A$player$ |    00000AE4  A$player$ |    00000AE5  A$player$
     00000AE7  A$player$ |    00000AE8  A$player$ |    00000AE9  A$player$
     00000AEA  A$player$ |    00000AEC  A$player$ |    00000AEC  C$player.
     00000AEE  A$player$ |    00000AEF  A$player$ |    00000AF0  A$player$
     00000AF1  A$player$ |    00000AF3  A$player$ |    00000AF5  A$player$
     00000AF6  A$player$ |    00000AF7  A$player$ |    00000AF9  A$player$
     00000AFA  A$player$ |    00000AFB  A$player$ |    00000AFE  A$player$
     00000AFF  A$player$ |    00000B00  A$player$ |    00000B01  A$player$
ASxxxx Linker V03.00 + NoICE + sdld,  page 13.
Hexadecimal  [32-Bits]

Area                       Addr        Size        Decimal Bytes (Attributes)
--------------------       ----        ----        ------- ----- ------------
_CODE                  00000200    000037D3 =       14291. bytes (REL,CON)

        Value  Global            Value  Global            Value  Global    
        -----  ------            -----  ------            -----  ------    
     00000B02  A$player$ |    00000B02  C$player. |    00000B04  A$player$
     00000B07  A$player$ |    00000B08  A$player$ |    00000B09  A$player$
     00000B0B  A$player$ |    00000B0D  A$player$ |    00000B0E  A$player$
     00000B0F  A$player$ |    00000B10  A$player$ |    00000B12  A$player$
     00000B13  A$player$ |    00000B13  C$player. |    00000B16  A$player$
     00000B17  A$player$ |    00000B18  A$player$ |    00000B1A  A$player$
     00000B1C  A$player$ |    00000B1C  C$player. |    00000B1F  A$player$
     00000B20  A$player$ |    00000B22  A$player$ |    00000B22  C$player.
     00000B25  A$player$ |    00000B26  A$player$ |    00000B29  A$player$
     00000B2A  A$player$ |    00000B2C  A$player$ |    00000B2C  C$player.
     00000B2F  A$player$ |    00000B30  A$player$ |    00000B33  A$player$
     00000B34  A$player$ |    00000B36  A$player$ |    00000B39  A$player$
     00000B3A  A$player$ |    00000B3B  A$player$ |    00000B3C  A$player$
     00000B3D  A$player$ |    00000B3E  A$player$ |    00000B3F  A$player$
     00000B40  A$player$ |    00000B41  A$player$ |    00000B43  A$player$
     00000B46  A$player$ |    00000B47  A$player$ |    00000B48  A$player$
     00000B49  A$player$ |    00000B4A  A$player$ |    00000B4B  A$player$
     00000B4C  A$player$ |    00000B4D  A$player$ |    00000B50  A$player$
     00000B51  A$player$ |    00000B52  A$player$ |    00000B53  A$player$
     00000B54  A$player$ |    00000B55  A$player$ |    00000B56  A$player$
     00000B57  A$player$ |    00000B5A  A$player$ |    00000B5B  A$player$
     00000B5C  A$player$ |    00000B5D  A$player$ |    00000B5E  A$player$
     00000B5F  A$player$ |    00000B60  A$player$ |    00000B61  A$player$
     00000B61  C$player. |    00000B62  A$player$ |    00000B62  C$player.
     00000B65  A$player$ |    00000B66  A$player$ |    00000B69  A$player$
     00000B69  C$player. |    00000B6C  A$player$ |    00000B6D  A$player$
     00000B70  A$player$ |    00000B73  A$player$ |    00000B74  A$player$
     00000B75  A$player$ |    00000B77  A$player$ |    00000B78  A$player$
     00000B7A  A$player$ |    00000B7D  A$player$ |    00000B7D  C$player.
     00000B80  A$player$ |    00000B82  A$player$ |    00000B85  A$player$
     00000B86  A$player$ |    00000B87  A$player$ |    00000B89  A$player$
     00000B8A  A$player$ |    00000B8B  A$player$ |    00000B8C  A$player$
     00000B8F  A$player$ |    00000B90  A$player$ |    00000B91  A$player$
     00000B92  A$player$ |    00000B94  A$player$ |    00000B97  A$player$
     00000B98  A$player$ |    00000B9A  A$player$ |    00000B9B  A$player$
     00000B9C  A$player$ |    00000B9D  A$player$ |    00000BA0  A$player$
     00000BA1  A$player$ |    00000BA2  A$player$ |    00000BA3  A$player$
     00000BA4  A$player$ |    00000BA5  A$player$ |    00000BA7  A$player$
     00000BAA  A$player$ |    00000BAB  A$player$ |    00000BAD  A$player$
     00000BAE  A$player$ |    00000BAF  A$player$ |    00000BB2  A$player$
     00000BB3  A$player$ |    00000BB4  A$player$ |    00000BB5  A$player$
     00000BB6  A$player$ |    00000BB7  A$player$ |    00000BB7  C$player.
     00000BB9  A$player$ |    00000BBC  A$player$ |    00000BBD  A$player$
     00000BBE  A$player$ |    00000BC0  A$player$ |    00000BC2  A$player$
     00000BC3  A$player$ |    00000BC5  A$player$ |    00000BC6  A$player$
     00000BC9  A$player$ |    00000BCB  A$player$ |    00000BCE  A$player$
     00000BCF  A$player$ |    00000BD0  A$player$ |    00000BD2  A$player$
     00000BD3  A$player$ |    00000BD6  A$player$ |    00000BD8  A$player$
     00000BDA  A$player$ |    00000BDB  A$player$ |    00000BDE  A$player$
     00000BDF  A$player$ |    00000BE0  A$player$ |    00000BE2  A$player$
     00000BE3  A$player$ |    00000BE5  A$player$ |    00000BE6  A$player$
ASxxxx Linker V03.00 + NoICE + sdld,  page 14.
Hexadecimal  [32-Bits]

Area                       Addr        Size        Decimal Bytes (Attributes)
--------------------       ----        ----        ------- ----- ------------
_CODE                  00000200    000037D3 =       14291. bytes (REL,CON)

        Value  Global            Value  Global            Value  Global    
        -----  ------            -----  ------            -----  ------    
     00000BE8  A$player$ |    00000BE9  A$player$ |    00000BEA  A$player$
     00000BEB  A$player$ |    00000BEE  A$player$ |    00000BEF  A$player$
     00000BF0  A$player$ |    00000BF1  A$player$ |    00000BF2  A$player$
     00000BF3  A$player$ |    00000BF5  A$player$ |    00000BF6  A$player$
     00000BF7  A$player$ |    00000BF8  A$player$ |    00000BFA  A$player$
     00000BFB  A$player$ |    00000BFC  A$player$ |    00000BFD  A$player$
     00000BFE  A$player$ |    00000C00  A$player$ |    00000C01  A$player$
     00000C02  A$player$ |    00000C03  A$player$ |    00000C04  A$player$
     00000C05  A$player$ |    00000C06  A$player$ |    00000C07  A$player$
     00000C08  A$player$ |    00000C09  A$player$ |    00000C0A  A$player$
     00000C0B  A$player$ |    00000C0E  A$player$ |    00000C10  A$player$
     00000C12  A$player$ |    00000C15  A$player$ |    00000C16  A$player$
     00000C19  A$player$ |    00000C1B  A$player$ |    00000C1C  A$player$
     00000C1D  A$player$ |    00000C1E  A$player$ |    00000C1F  A$player$
     00000C20  A$player$ |    00000C21  A$player$ |    00000C23  A$player$
     00000C23  C$player. |    00000C23  C$player. |    00000C26  A$player$
     00000C27  A$player$ |    00000C28  A$player$ |    00000C2A  A$player$
     00000C2B  A$player$ |    00000C2D  A$player$ |    00000C2D  C$player.
     00000C2D  XFplayer$ |    00000C2E  A$player$ |    00000C2E  C$player.
     00000C2E  C$player. |    00000C2E  Fplayer$i |    00000C31  A$player$
     00000C33  A$player$ |    00000C34  A$player$ |    00000C37  A$player$
     00000C38  A$player$ |    00000C3A  A$player$ |    00000C3B  A$player$
     00000C3C  A$player$ |    00000C3D  A$player$ |    00000C3E  A$player$
     00000C3F  A$player$ |    00000C41  A$player$ |    00000C42  A$player$
     00000C44  A$player$ |    00000C45  A$player$ |    00000C46  A$player$
     00000C47  A$player$ |    00000C48  A$player$ |    00000C4B  A$player$
     00000C4C  A$player$ |    00000C4D  A$player$ |    00000C4E  A$player$
     00000C4F  A$player$ |    00000C51  A$player$ |    00000C54  A$player$
     00000C55  A$player$ |    00000C56  A$player$ |    00000C57  A$player$
     00000C58  A$player$ |    00000C58  C$player. |    00000C5A  A$player$
     00000C5D  A$player$ |    00000C5E  A$player$ |    00000C5F  A$player$
     00000C61  A$player$ |    00000C63  A$player$ |    00000C64  A$player$
     00000C66  A$player$ |    00000C67  A$player$ |    00000C6A  A$player$
     00000C6C  A$player$ |    00000C6F  A$player$ |    00000C70  A$player$
     00000C71  A$player$ |    00000C72  A$player$ |    00000C75  A$player$
     00000C77  A$player$ |    00000C78  A$player$ |    00000C7B  A$player$
     00000C7C  A$player$ |    00000C7D  A$player$ |    00000C7E  A$player$
     00000C7F  A$player$ |    00000C7F  C$player. |    00000C82  A$player$
     00000C83  A$player$ |    00000C84  A$player$ |    00000C86  A$player$
     00000C87  A$player$ |    00000C87  C$player. |    00000C88  A$player$
     00000C8A  A$player$ |    00000C8B  A$player$ |    00000C8E  A$player$
     00000C8F  A$player$ |    00000C91  A$player$ |    00000C92  A$player$
     00000C93  A$player$ |    00000C94  A$player$ |    00000C95  A$player$
     00000C96  A$player$ |    00000C98  A$player$ |    00000C99  A$player$
     00000C9B  A$player$ |    00000C9C  A$player$ |    00000C9D  A$player$
     00000C9E  A$player$ |    00000C9F  A$player$ |    00000CA2  A$player$
     00000CA3  A$player$ |    00000CA4  A$player$ |    00000CA5  A$player$
     00000CA6  A$player$ |    00000CA8  A$player$ |    00000CAB  A$player$
     00000CAC  A$player$ |    00000CAD  A$player$ |    00000CAE  A$player$
     00000CAF  A$player$ |    00000CAF  C$player. |    00000CB1  A$player$
     00000CB4  A$player$ |    00000CB5  A$player$ |    00000CB6  A$player$
ASxxxx Linker V03.00 + NoICE + sdld,  page 15.
Hexadecimal  [32-Bits]

Area                       Addr        Size        Decimal Bytes (Attributes)
--------------------       ----        ----        ------- ----- ------------
_CODE                  00000200    000037D3 =       14291. bytes (REL,CON)

        Value  Global            Value  Global            Value  Global    
        -----  ------            -----  ------            -----  ------    
     00000CB8  A$player$ |    00000CBA  A$player$ |    00000CBB  A$player$
     00000CBD  A$player$ |    00000CBE  A$player$ |    00000CC1  A$player$
     00000CC3  A$player$ |    00000CC6  A$player$ |    00000CC7  A$player$
     00000CC8  A$player$ |    00000CC9  A$player$ |    00000CCC  A$player$
     00000CCE  A$player$ |    00000CCF  A$player$ |    00000CD2  A$player$
     00000CD3  A$player$ |    00000CD4  A$player$ |    00000CD5  A$player$
     00000CD6  A$player$ |    00000CD6  C$player. |    00000CD9  A$player$
     00000CDA  A$player$ |    00000CDB  A$player$ |    00000CDD  A$player$
     00000CDE  A$player$ |    00000CDE  C$player. |    00000CDE  XFplayer$
     00000CDF  A$player$ |    00000CDF  C$player. |    00000CDF  C$player.
     00000CDF  Fplayer$i |    00000CE2  A$player$ |    00000CE3  A$player$
     00000CE5  A$player$ |    00000CE7  A$player$ |    00000CE8  A$player$
     00000CE9  A$player$ |    00000CEA  A$player$ |    00000CEC  A$player$
     00000CED  A$player$ |    00000CED  C$player. |    00000CF0  A$player$
     00000CF1  A$player$ |    00000CF2  A$player$ |    00000CF4  A$player$
     00000CF5  A$player$ |    00000CF6  A$player$ |    00000CF7  A$player$
     00000CF8  A$player$ |    00000CF9  A$player$ |    00000CFC  A$player$
     00000CFD  A$player$ |    00000CFF  A$player$ |    00000D00  A$player$
     00000D01  A$player$ |    00000D02  A$player$ |    00000D03  A$player$
     00000D04  A$player$ |    00000D05  A$player$ |    00000D08  A$player$
     00000D09  A$player$ |    00000D0A  A$player$ |    00000D0C  A$player$
     00000D0D  A$player$ |    00000D0E  A$player$ |    00000D11  A$player$
     00000D12  A$player$ |    00000D13  A$player$ |    00000D14  A$player$
     00000D17  A$player$ |    00000D18  A$player$ |    00000D19  A$player$
     00000D1A  A$player$ |    00000D1D  A$player$ |    00000D1E  A$player$
     00000D1F  A$player$ |    00000D20  A$player$ |    00000D23  A$player$
     00000D24  A$player$ |    00000D25  A$player$ |    00000D26  A$player$
     00000D26  C$player. |    00000D29  A$player$ |    00000D2B  A$player$
     00000D2B  C$player. |    00000D2E  A$player$ |    00000D30  A$player$
     00000D30  C$player. |    00000D30  XFplayer$ |    00000D31  A$player$
     00000D31  C$player. |    00000D31  C$player. |    00000D31  Fplayer$h
     00000D34  A$player$ |    00000D36  A$player$ |    00000D38  A$player$
     00000D38  C$player. |    00000D3A  A$player$ |    00000D3B  A$player$
     00000D3C  A$player$ |    00000D3F  A$player$ |    00000D40  A$player$
     00000D40  C$player. |    00000D40  C$player. |    00000D43  A$player$
     00000D43  C$player. |    00000D46  A$player$ |    00000D47  A$player$
     00000D49  A$player$ |    00000D4B  A$player$ |    00000D4E  A$player$
     00000D50  A$player$ |    00000D52  A$player$ |    00000D55  A$player$
     00000D56  A$player$ |    00000D58  A$player$ |    00000D5B  A$player$
     00000D5C  A$player$ |    00000D5F  A$player$ |    00000D5F  C$player.
     00000D62  A$player$ |    00000D64  A$player$ |    00000D66  A$player$
     00000D69  A$player$ |    00000D6A  A$player$ |    00000D6B  A$player$
     00000D6C  A$player$ |    00000D6C  C$player. |    00000D6F  A$player$
     00000D70  A$player$ |    00000D71  A$player$ |    00000D74  A$player$
     00000D75  A$player$ |    00000D76  A$player$ |    00000D78  A$player$
     00000D7A  A$player$ |    00000D7C  A$player$ |    00000D7E  A$player$
     00000D7F  A$player$ |    00000D81  A$player$ |    00000D83  A$player$
     00000D85  A$player$ |    00000D86  A$player$ |    00000D88  A$player$
     00000D8B  A$player$ |    00000D8C  A$player$ |    00000D8D  A$player$
     00000D8E  A$player$ |    00000D91  A$player$ |    00000D92  A$player$
     00000D92  C$player. |    00000D92  XFplayer$ |    00000D93  A$player$
ASxxxx Linker V03.00 + NoICE + sdld,  page 16.
Hexadecimal  [32-Bits]

Area                       Addr        Size        Decimal Bytes (Attributes)
--------------------       ----        ----        ------- ----- ------------
_CODE                  00000200    000037D3 =       14291. bytes (REL,CON)

        Value  Global            Value  Global            Value  Global    
        -----  ------            -----  ------            -----  ------    
     00000D93  C$player. |    00000D93  C$player. |    00000D93  Fplayer$e
     00000D96  A$player$ |    00000D99  A$player$ |    00000D9A  A$player$
     00000D9C  A$player$ |    00000D9D  A$player$ |    00000D9E  A$player$
     00000D9F  A$player$ |    00000DA0  A$player$ |    00000DA1  A$player$
     00000DA2  A$player$ |    00000DA5  A$player$ |    00000DA6  A$player$
     00000DA7  A$player$ |    00000DA9  A$player$ |    00000DAA  A$player$
     00000DAB  A$player$ |    00000DAC  A$player$ |    00000DAF  A$player$
     00000DB0  A$player$ |    00000DB2  A$player$ |    00000DB2  C$player.
     00000DB5  A$player$ |    00000DB7  A$player$ |    00000DB7  C$player.
     00000DBA  A$player$ |    00000DBB  A$player$ |    00000DBB  C$player.
     00000DBE  A$player$ |    00000DBF  A$player$ |    00000DC2  A$player$
     00000DC3  A$player$ |    00000DC4  A$player$ |    00000DC6  A$player$
     00000DC7  A$player$ |    00000DC8  A$player$ |    00000DC9  A$player$
     00000DCC  A$player$ |    00000DCD  A$player$ |    00000DCF  A$player$
     00000DD2  A$player$ |    00000DD4  A$player$ |    00000DD6  A$player$
     00000DD6  C$player. |    00000DD9  A$player$ |    00000DDA  A$player$
     00000DDA  C$player. |    00000DDD  A$player$ |    00000DDF  A$player$
     00000DE0  A$player$ |    00000DE0  C$player. |    00000DE2  A$player$
     00000DE5  A$player$ |    00000DE6  A$player$ |    00000DE9  A$player$
     00000DEA  A$player$ |    00000DED  A$player$ |    00000DEE  A$player$
     00000DEF  A$player$ |    00000DF1  A$player$ |    00000DF3  A$player$
     00000DF4  A$player$ |    00000DF6  A$player$ |    00000DF7  A$player$
     00000DFA  A$player$ |    00000DFA  C$player. |    00000DFA  XFplayer$
     00000DFB  A$player$ |    00000DFB  C$player. |    00000DFB  C$player.
     00000DFB  Fplayer$s |    00000DFE  A$player$ |    00000E00  A$player$
     00000E01  A$player$ |    00000E02  A$player$ |    00000E04  A$player$
     00000E04  C$player. |    00000E07  A$player$ |    00000E09  A$player$
     00000E0B  A$player$ |    00000E0E  A$player$ |    00000E0E  C$player.
     00000E11  A$player$ |    00000E13  A$player$ |    00000E13  C$player.
     00000E16  A$player$ |    00000E18  A$player$ |    00000E18  C$player.
     00000E1A  A$player$ |    00000E1B  A$player$ |    00000E1E  A$player$
     00000E1E  C$player. |    00000E1E  XFplayer$ |    00000E1F  A$player$
     00000E1F  C$player. |    00000E1F  Fplayer$c |    00000E21  A$player$
     00000E24  A$player$ |    00000E26  A$player$ |    00000E26  C$player.
     00000E29  A$player$ |    00000E2A  A$player$ |    00000E2B  A$player$
     00000E2D  A$player$ |    00000E2E  A$player$ |    00000E30  A$player$
     00000E31  A$player$ |    00000E32  A$player$ |    00000E33  A$player$
     00000E34  A$player$ |    00000E35  A$player$ |    00000E36  A$player$
     00000E37  A$player$ |    00000E38  A$player$ |    00000E3B  A$player$
     00000E3C  A$player$ |    00000E3D  A$player$ |    00000E3E  A$player$
     00000E41  A$player$ |    00000E42  A$player$ |    00000E43  A$player$
     00000E44  A$player$ |    00000E45  A$player$ |    00000E46  A$player$
     00000E47  A$player$ |    00000E49  A$player$ |    00000E4A  A$player$
     00000E4C  A$player$ |    00000E4D  A$player$ |    00000E4E  A$player$
     00000E4E  C$player. |    00000E4F  A$player$ |    00000E50  A$player$
     00000E51  A$player$ |    00000E52  A$player$ |    00000E55  A$player$
     00000E56  A$player$ |    00000E57  A$player$ |    00000E58  A$player$
     00000E59  A$player$ |    00000E5B  A$player$ |    00000E5E  A$player$
     00000E5E  C$player. |    00000E60  A$player$ |    00000E61  A$player$
     00000E62  A$player$ |    00000E63  A$player$ |    00000E64  A$player$
     00000E67  A$player$ |    00000E68  A$player$ |    00000E6A  A$player$
ASxxxx Linker V03.00 + NoICE + sdld,  page 17.
Hexadecimal  [32-Bits]

Area                       Addr        Size        Decimal Bytes (Attributes)
--------------------       ----        ----        ------- ----- ------------
_CODE                  00000200    000037D3 =       14291. bytes (REL,CON)

        Value  Global            Value  Global            Value  Global    
        -----  ------            -----  ------            -----  ------    
     00000E6D  A$player$ |    00000E6D  C$player. |    00000E6F  A$player$
     00000E6F  C$player. |    00000E71  A$player$ |    00000E72  A$player$
     00000E73  A$player$ |    00000E74  A$player$ |    00000E75  A$player$
     00000E76  A$player$ |    00000E78  A$player$ |    00000E79  A$player$
     00000E7A  A$player$ |    00000E7C  A$player$ |    00000E7E  A$player$
     00000E7F  A$player$ |    00000E80  A$player$ |    00000E81  A$player$
     00000E84  A$player$ |    00000E85  A$player$ |    00000E86  A$player$
     00000E87  A$player$ |    00000E89  A$player$ |    00000E8A  A$player$
     00000E8B  A$player$ |    00000E8C  A$player$ |    00000E8E  A$player$
     00000E8F  A$player$ |    00000E90  A$player$ |    00000E91  A$player$
     00000E92  A$player$ |    00000E93  A$player$ |    00000E95  A$player$
     00000E96  A$player$ |    00000E98  A$player$ |    00000E99  A$player$
     00000E9A  A$player$ |    00000E9B  A$player$ |    00000E9C  A$player$
     00000E9D  A$player$ |    00000E9E  A$player$ |    00000EA0  A$player$
     00000EA1  A$player$ |    00000EA2  A$player$ |    00000EA3  A$player$
     00000EA5  A$player$ |    00000EA6  A$player$ |    00000EA9  A$player$
     00000EAB  A$player$ |    00000EAC  A$player$ |    00000EAE  A$player$
     00000EB0  A$player$ |    00000EB1  A$player$ |    00000EB2  A$player$
     00000EB4  A$player$ |    00000EB5  A$player$ |    00000EB6  A$player$
     00000EB7  A$player$ |    00000EB8  A$player$ |    00000EB9  A$player$
     00000EBA  A$player$ |    00000EBB  A$player$ |    00000EBC  A$player$
     00000EBE  A$player$ |    00000EC0  A$player$ |    00000EC2  A$player$
     00000EC4  A$player$ |    00000EC5  A$player$ |    00000EC7  A$player$
     00000EC9  A$player$ |    00000ECB  A$player$ |    00000ECC  A$player$
     00000ECE  A$player$ |    00000ED1  A$player$ |    00000ED3  A$player$
     00000ED4  A$player$ |    00000ED7  A$player$ |    00000ED8  A$player$
     00000EDA  A$player$ |    00000EDD  A$player$ |    00000EDF  A$player$
     00000EE2  A$player$ |    00000EE3  A$player$ |    00000EE4  A$player$
     00000EE6  A$player$ |    00000EE6  C$player. |    00000EE7  A$player$
     00000EE8  A$player$ |    00000EE9  A$player$ |    00000EEA  A$player$
     00000EEB  A$player$ |    00000EEC  A$player$ |    00000EED  A$player$
     00000EEE  A$player$ |    00000EEF  A$player$ |    00000EF0  A$player$
     00000EF2  A$player$ |    00000EF3  A$player$ |    00000EF4  A$player$
     00000EF5  A$player$ |    00000EF7  A$player$ |    00000EF8  A$player$
     00000EF9  A$player$ |    00000EFA  A$player$ |    00000EFB  A$player$
     00000EFC  A$player$ |    00000EFD  A$player$ |    00000EFF  A$player$
     00000F00  A$player$ |    00000F01  A$player$ |    00000F02  A$player$
     00000F03  A$player$ |    00000F04  A$player$ |    00000F05  A$player$
     00000F06  A$player$ |    00000F09  A$player$ |    00000F0A  A$player$
     00000F0B  A$player$ |    00000F0C  A$player$ |    00000F0E  A$player$
     00000F0F  A$player$ |    00000F10  A$player$ |    00000F11  A$player$
     00000F13  A$player$ |    00000F14  A$player$ |    00000F15  A$player$
     00000F16  A$player$ |    00000F17  A$player$ |    00000F18  A$player$
     00000F1A  A$player$ |    00000F1B  A$player$ |    00000F1D  A$player$
     00000F1E  A$player$ |    00000F1F  A$player$ |    00000F20  A$player$
     00000F21  A$player$ |    00000F22  A$player$ |    00000F23  A$player$
     00000F24  A$player$ |    00000F25  A$player$ |    00000F26  A$player$
     00000F27  A$player$ |    00000F29  A$player$ |    00000F2A  A$player$
     00000F2B  A$player$ |    00000F2E  A$player$ |    00000F30  A$player$
     00000F31  A$player$ |    00000F33  A$player$ |    00000F35  A$player$
     00000F36  A$player$ |    00000F37  A$player$ |    00000F39  A$player$
ASxxxx Linker V03.00 + NoICE + sdld,  page 18.
Hexadecimal  [32-Bits]

Area                       Addr        Size        Decimal Bytes (Attributes)
--------------------       ----        ----        ------- ----- ------------
_CODE                  00000200    000037D3 =       14291. bytes (REL,CON)

        Value  Global            Value  Global            Value  Global    
        -----  ------            -----  ------            -----  ------    
     00000F3A  A$player$ |    00000F3B  A$player$ |    00000F3C  A$player$
     00000F3D  A$player$ |    00000F3E  A$player$ |    00000F3F  A$player$
     00000F40  A$player$ |    00000F41  A$player$ |    00000F43  A$player$
     00000F45  A$player$ |    00000F47  A$player$ |    00000F49  A$player$
     00000F4A  A$player$ |    00000F4C  A$player$ |    00000F4E  A$player$
     00000F50  A$player$ |    00000F51  A$player$ |    00000F53  A$player$
     00000F55  A$player$ |    00000F57  A$player$ |    00000F5A  A$player$
     00000F5B  A$player$ |    00000F5D  A$player$ |    00000F5F  A$player$
     00000F61  A$player$ |    00000F62  A$player$ |    00000F63  A$player$
     00000F64  A$player$ |    00000F66  A$player$ |    00000F68  A$player$
     00000F6A  A$player$ |    00000F6B  A$player$ |    00000F6C  A$player$
     00000F6D  A$player$ |    00000F6F  A$player$ |    00000F70  A$player$
     00000F72  A$player$ |    00000F73  A$player$ |    00000F74  A$player$
     00000F74  C$player. |    00000F77  A$player$ |    00000F7A  A$player$
     00000F7B  A$player$ |    00000F7D  A$player$ |    00000F7E  A$player$
     00000F80  A$player$ |    00000F83  A$player$ |    00000F84  A$player$
     00000F86  A$player$ |    00000F87  A$player$ |    00000F88  A$player$
     00000F89  A$player$ |    00000F8A  A$player$ |    00000F8B  A$player$
     00000F8C  A$player$ |    00000F8E  A$player$ |    00000F90  A$player$
     00000F91  A$player$ |    00000F93  A$player$ |    00000F94  A$player$
     00000F96  A$player$ |    00000F98  A$player$ |    00000F9A  A$player$
     00000F9C  A$player$ |    00000F9D  A$player$ |    00000F9F  A$player$
     00000FA1  A$player$ |    00000FA3  A$player$ |    00000FA4  A$player$
     00000FA6  A$player$ |    00000FA7  A$player$ |    00000FA9  A$player$
     00000FAC  A$player$ |    00000FAD  A$player$ |    00000FAF  A$player$
     00000FB2  A$player$ |    00000FB3  A$player$ |    00000FB5  A$player$
     00000FB6  A$player$ |    00000FB7  A$player$ |    00000FB8  A$player$
     00000FB9  A$player$ |    00000FBA  A$player$ |    00000FBB  A$player$
     00000FBC  A$player$ |    00000FBE  A$player$ |    00000FC0  A$player$
     00000FC1  A$player$ |    00000FC3  A$player$ |    00000FC4  A$player$
     00000FC6  A$player$ |    00000FC8  A$player$ |    00000FCA  A$player$
     00000FCC  A$player$ |    00000FCD  A$player$ |    00000FCF  A$player$
     00000FD1  A$player$ |    00000FD3  A$player$ |    00000FD4  A$player$
     00000FD6  A$player$ |    00000FD7  A$player$ |    00000FD8  A$player$
     00000FDA  A$player$ |    00000FDA  C$player. |    00000FDB  A$player$
     00000FDD  A$player$ |    00000FDF  A$player$ |    00000FE0  A$player$
     00000FE0  C$player. |    00000FE2  A$player$ |    00000FE3  A$player$
     00000FE4  A$player$ |    00000FE5  A$player$ |    00000FE8  A$player$
     00000FE9  A$player$ |    00000FEA  A$player$ |    00000FEB  A$player$
     00000FEC  A$player$ |    00000FEE  A$player$ |    00000FEF  A$player$
     00000FF0  A$player$ |    00000FF3  A$player$ |    00000FF4  A$player$
     00000FF5  A$player$ |    00000FF6  A$player$ |    00000FF7  A$player$
     00000FF8  A$player$ |    00000FF9  A$player$ |    00000FFA  A$player$
     00000FFB  A$player$ |    00000FFC  A$player$ |    00000FFF  A$player$
     00001000  A$player$ |    00001001  A$player$ |    00001002  A$player$
     00001004  A$player$ |    00001007  A$player$ |    00001007  C$player.
     00001008  A$player$ |    0000100A  A$player$ |    0000100C  A$player$
     0000100E  A$player$ |    00001011  A$player$ |    00001013  A$player$
     00001016  A$player$ |    00001018  A$player$ |    0000101B  A$player$
     0000101D  A$player$ |    00001020  A$player$ |    00001022  A$player$
     00001025  A$player$ |    00001027  A$player$ |    0000102A  A$player$
ASxxxx Linker V03.00 + NoICE + sdld,  page 19.
Hexadecimal  [32-Bits]

Area                       Addr        Size        Decimal Bytes (Attributes)
--------------------       ----        ----        ------- ----- ------------
_CODE                  00000200    000037D3 =       14291. bytes (REL,CON)

        Value  Global            Value  Global            Value  Global    
        -----  ------            -----  ------            -----  ------    
     0000102C  A$player$ |    0000102F  A$player$ |    00001032  A$player$
     00001032  C$player. |    00001032  C$player. |    00001034  A$player$
     00001035  A$player$ |    00001036  A$player$ |    00001037  A$player$
     00001038  A$player$ |    0000103A  A$player$ |    0000103B  A$player$
     0000103C  A$player$ |    0000103D  A$player$ |    0000103E  A$player$
     0000103F  A$player$ |    00001041  A$player$ |    00001042  A$player$
     00001043  A$player$ |    00001044  A$player$ |    00001045  A$player$
     00001046  A$player$ |    00001046  C$player. |    00001048  A$player$
     00001049  A$player$ |    0000104A  A$player$ |    0000104B  A$player$
     0000104C  A$player$ |    0000104D  A$player$ |    0000104E  A$player$
     0000104F  A$player$ |    00001050  A$player$ |    00001051  A$player$
     00001052  A$player$ |    00001053  A$player$ |    00001054  A$player$
     00001055  A$player$ |    00001056  A$player$ |    00001057  A$player$
     00001059  A$player$ |    0000105A  A$player$ |    0000105B  A$player$
     0000105B  C$player. |    0000105D  A$player$ |    00001060  A$player$
     00001062  A$player$ |    00001063  A$player$ |    00001064  A$player$
     00001065  A$player$ |    00001066  A$player$ |    00001067  A$player$
     00001068  A$player$ |    00001069  A$player$ |    0000106A  A$player$
     0000106B  A$player$ |    0000106C  A$player$ |    0000106D  A$player$
     0000106F  A$player$ |    00001070  A$player$ |    00001071  A$player$
     00001074  A$player$ |    00001076  A$player$ |    00001079  A$player$
     0000107A  A$player$ |    0000107C  A$player$ |    0000107D  A$player$
     0000107E  A$player$ |    0000107F  A$player$ |    00001080  A$player$
     00001081  A$player$ |    00001082  A$player$ |    00001083  A$player$
     00001085  A$player$ |    00001086  A$player$ |    00001087  A$player$
     00001088  A$player$ |    00001089  A$player$ |    0000108C  A$player$
     0000108E  A$player$ |    00001090  A$player$ |    00001091  A$player$
     00001092  A$player$ |    00001093  A$player$ |    00001094  A$player$
     00001097  A$player$ |    00001099  A$player$ |    0000109A  A$player$
     0000109B  A$player$ |    0000109C  A$player$ |    0000109D  A$player$
     0000109E  A$player$ |    0000109F  A$player$ |    000010A1  A$player$
     000010A2  A$player$ |    000010A3  A$player$ |    000010A4  A$player$
     000010A5  A$player$ |    000010A6  A$player$ |    000010A7  A$player$
     000010A8  A$player$ |    000010A9  A$player$ |    000010AB  A$player$
     000010AC  A$player$ |    000010AD  A$player$ |    000010AF  A$player$
     000010B0  A$player$ |    000010B2  A$player$ |    000010B3  A$player$
     000010B4  A$player$ |    000010B5  A$player$ |    000010B6  A$player$
     000010B7  A$player$ |    000010B8  A$player$ |    000010B9  A$player$
     000010BB  A$player$ |    000010BC  A$player$ |    000010BD  A$player$
     000010BE  A$player$ |    000010BF  A$player$ |    000010C2  A$player$
     000010C4  A$player$ |    000010C5  A$player$ |    000010C6  A$player$
     000010C8  A$player$ |    000010C9  A$player$ |    000010CA  A$player$
     000010CB  A$player$ |    000010CC  A$player$ |    000010CD  A$player$
     000010CE  A$player$ |    000010D0  A$player$ |    000010D2  A$player$
     000010D4  A$player$ |    000010D6  A$player$ |    000010D7  A$player$
     000010D9  A$player$ |    000010DB  A$player$ |    000010DD  A$player$
     000010DE  A$player$ |    000010E0  A$player$ |    000010E0  C$player.
     000010E2  A$player$ |    000010E3  A$player$ |    000010E4  A$player$
     000010E5  A$player$ |    000010E6  A$player$ |    000010E7  A$player$
     000010E8  A$player$ |    000010E9  A$player$ |    000010EC  A$player$
     000010EC  C$player. |    000010EF  A$player$ |    000010F1  A$player$
ASxxxx Linker V03.00 + NoICE + sdld,  page 20.
Hexadecimal  [32-Bits]

Area                       Addr        Size        Decimal Bytes (Attributes)
--------------------       ----        ----        ------- ----- ------------
_CODE                  00000200    000037D3 =       14291. bytes (REL,CON)

        Value  Global            Value  Global            Value  Global    
        -----  ------            -----  ------            -----  ------    
     000010F4  A$player$ |    000010F4  C$player. |    000010F6  A$player$
     000010F7  A$player$ |    000010F8  A$player$ |    000010FB  A$player$
     000010FB  C$player. |    000010FE  A$player$ |    00001100  A$player$
     00001100  C$player. |    00001103  A$player$ |    00001105  A$player$
     00001105  C$player. |    00001108  A$player$ |    0000110A  A$player$
     0000110A  C$player. |    0000110D  A$player$ |    0000110D  C$player.
     0000110D  C$player. |    0000110F  A$player$ |    00001110  A$player$
     00001111  A$player$ |    00001112  A$player$ |    00001113  A$player$
     00001115  A$player$ |    00001116  A$player$ |    00001117  A$player$
     00001118  A$player$ |    00001119  A$player$ |    0000111A  A$player$
     0000111C  A$player$ |    0000111D  A$player$ |    0000111E  A$player$
     0000111F  A$player$ |    00001120  A$player$ |    00001121  A$player$
     00001121  C$player. |    00001123  A$player$ |    00001124  A$player$
     00001125  A$player$ |    00001126  A$player$ |    00001127  A$player$
     00001129  A$player$ |    0000112A  A$player$ |    0000112B  A$player$
     0000112B  C$player. |    0000112D  A$player$ |    00001130  A$player$
     00001132  A$player$ |    00001133  A$player$ |    00001134  A$player$
     00001135  A$player$ |    00001136  A$player$ |    00001137  A$player$
     00001138  A$player$ |    00001139  A$player$ |    0000113A  A$player$
     0000113B  A$player$ |    0000113C  A$player$ |    0000113D  A$player$
     0000113F  A$player$ |    00001140  A$player$ |    00001141  A$player$
     00001144  A$player$ |    00001146  A$player$ |    00001149  A$player$
     0000114A  A$player$ |    0000114C  A$player$ |    0000114D  A$player$
     0000114E  A$player$ |    0000114F  A$player$ |    00001150  A$player$
     00001151  A$player$ |    00001152  A$player$ |    00001153  A$player$
     00001155  A$player$ |    00001156  A$player$ |    00001157  A$player$
     00001158  A$player$ |    00001159  A$player$ |    0000115C  A$player$
     0000115E  A$player$ |    00001160  A$player$ |    00001161  A$player$
     00001162  A$player$ |    00001163  A$player$ |    00001164  A$player$
     00001167  A$player$ |    00001169  A$player$ |    0000116A  A$player$
     0000116B  A$player$ |    0000116C  A$player$ |    0000116D  A$player$
     0000116E  A$player$ |    0000116F  A$player$ |    00001171  A$player$
     00001172  A$player$ |    00001173  A$player$ |    00001174  A$player$
     00001175  A$player$ |    00001176  A$player$ |    00001177  A$player$
     00001178  A$player$ |    00001179  A$player$ |    0000117B  A$player$
     0000117C  A$player$ |    0000117D  A$player$ |    0000117F  A$player$
     00001180  A$player$ |    00001182  A$player$ |    00001183  A$player$
     00001184  A$player$ |    00001185  A$player$ |    00001186  A$player$
     00001187  A$player$ |    00001188  A$player$ |    00001189  A$player$
     0000118B  A$player$ |    0000118C  A$player$ |    0000118D  A$player$
     0000118E  A$player$ |    0000118F  A$player$ |    00001192  A$player$
     00001194  A$player$ |    00001195  A$player$ |    00001196  A$player$
     00001198  A$player$ |    00001199  A$player$ |    0000119A  A$player$
     0000119B  A$player$ |    0000119C  A$player$ |    0000119D  A$player$
     0000119E  A$player$ |    0000119F  A$player$ |    000011A1  A$player$
     000011A3  A$player$ |    000011A5  A$player$ |    000011A7  A$player$
     000011A8  A$player$ |    000011AA  A$player$ |    000011AC  A$player$
     000011AE  A$player$ |    000011AF  A$player$ |    000011B1  A$player$
     000011B1  C$player. |    000011B3  A$player$ |    000011B4  A$player$
     000011B5  A$player$ |    000011B6  A$player$ |    000011B7  A$player$
     000011B8  A$player$ |    000011B9  A$player$ |    000011BA  A$player$
ASxxxx Linker V03.00 + NoICE + sdld,  page 21.
Hexadecimal  [32-Bits]

Area                       Addr        Size        Decimal Bytes (Attributes)
--------------------       ----        ----        ------- ----- ------------
_CODE                  00000200    000037D3 =       14291. bytes (REL,CON)

        Value  Global            Value  Global            Value  Global    
        -----  ------            -----  ------            -----  ------    
     000011BD  A$player$ |    000011BD  C$player. |    000011C0  A$player$
     000011C2  A$player$ |    000011C5  A$player$ |    000011C5  C$player.
     000011C7  A$player$ |    000011C8  A$player$ |    000011C9  A$player$
     000011CC  A$player$ |    000011CC  C$player. |    000011CF  A$player$
     000011D1  A$player$ |    000011D1  C$player. |    000011D4  A$player$
     000011D4  C$player. |    000011D4  C$player. |    000011D6  A$player$
     000011D7  A$player$ |    000011D8  A$player$ |    000011D9  A$player$
     000011DA  A$player$ |    000011DB  A$player$ |    000011DD  A$player$
     000011DE  A$player$ |    000011DF  A$player$ |    000011E0  A$player$
     000011E1  A$player$ |    000011E2  A$player$ |    000011E3  A$player$
     000011E6  A$player$ |    000011E6  C$player. |    000011E9  A$player$
     000011EB  A$player$ |    000011EB  C$player. |    000011EE  A$player$
     000011EE  C$player. |    000011EE  C$player. |    000011F0  A$player$
     000011F1  A$player$ |    000011F2  A$player$ |    000011F3  A$player$
     000011F4  A$player$ |    000011F6  A$player$ |    000011F7  A$player$
     000011F7  C$player. |    000011F9  A$player$ |    000011FA  A$player$
     000011FB  A$player$ |    000011FC  A$player$ |    000011FD  A$player$
     000011FE  A$player$ |    000011FF  A$player$ |    00001200  A$player$
     00001201  A$player$ |    00001202  A$player$ |    00001203  A$player$
     00001204  A$player$ |    00001205  A$player$ |    00001206  A$player$
     00001207  A$player$ |    00001208  A$player$ |    0000120A  A$player$
     0000120B  A$player$ |    0000120C  A$player$ |    0000120C  C$player.
     0000120E  A$player$ |    00001211  A$player$ |    00001213  A$player$
     00001214  A$player$ |    00001215  A$player$ |    00001216  A$player$
     00001217  A$player$ |    00001218  A$player$ |    00001219  A$player$
     0000121A  A$player$ |    0000121B  A$player$ |    0000121C  A$player$
     0000121D  A$player$ |    0000121E  A$player$ |    00001220  A$player$
     00001221  A$player$ |    00001222  A$player$ |    00001225  A$player$
     00001227  A$player$ |    0000122A  A$player$ |    0000122B  A$player$
     0000122D  A$player$ |    0000122E  A$player$ |    0000122F  A$player$
     00001230  A$player$ |    00001231  A$player$ |    00001232  A$player$
     00001233  A$player$ |    00001234  A$player$ |    00001236  A$player$
     00001237  A$player$ |    00001238  A$player$ |    00001239  A$player$
     0000123A  A$player$ |    0000123D  A$player$ |    0000123F  A$player$
     00001241  A$player$ |    00001242  A$player$ |    00001243  A$player$
     00001244  A$player$ |    00001245  A$player$ |    00001248  A$player$
     0000124A  A$player$ |    0000124B  A$player$ |    0000124C  A$player$
     0000124D  A$player$ |    0000124E  A$player$ |    0000124F  A$player$
     00001250  A$player$ |    00001252  A$player$ |    00001253  A$player$
     00001254  A$player$ |    00001255  A$player$ |    00001256  A$player$
     00001257  A$player$ |    00001258  A$player$ |    00001259  A$player$
     0000125A  A$player$ |    0000125C  A$player$ |    0000125D  A$player$
     0000125E  A$player$ |    00001260  A$player$ |    00001261  A$player$
     00001263  A$player$ |    00001264  A$player$ |    00001265  A$player$
     00001266  A$player$ |    00001267  A$player$ |    00001268  A$player$
     00001269  A$player$ |    0000126A  A$player$ |    0000126C  A$player$
     0000126D  A$player$ |    0000126E  A$player$ |    0000126F  A$player$
     00001270  A$player$ |    00001273  A$player$ |    00001275  A$player$
     00001276  A$player$ |    00001277  A$player$ |    00001279  A$player$
     0000127A  A$player$ |    0000127B  A$player$ |    0000127C  A$player$
     0000127D  A$player$ |    0000127E  A$player$ |    0000127F  A$player$
ASxxxx Linker V03.00 + NoICE + sdld,  page 22.
Hexadecimal  [32-Bits]

Area                       Addr        Size        Decimal Bytes (Attributes)
--------------------       ----        ----        ------- ----- ------------
_CODE                  00000200    000037D3 =       14291. bytes (REL,CON)

        Value  Global            Value  Global            Value  Global    
        -----  ------            -----  ------            -----  ------    
     00001280  A$player$ |    00001282  A$player$ |    00001284  A$player$
     00001286  A$player$ |    00001288  A$player$ |    00001289  A$player$
     0000128B  A$player$ |    0000128D  A$player$ |    0000128F  A$player$
     00001290  A$player$ |    00001292  A$player$ |    00001292  C$player.
     00001294  A$player$ |    00001295  A$player$ |    00001296  A$player$
     00001297  A$player$ |    00001298  A$player$ |    00001299  A$player$
     0000129C  A$player$ |    0000129C  C$player. |    0000129F  A$player$
     000012A1  A$player$ |    000012A4  A$player$ |    000012A4  C$player.
     000012A6  A$player$ |    000012A7  A$player$ |    000012A8  A$player$
     000012AB  A$player$ |    000012AB  C$player. |    000012AE  A$player$
     000012B0  A$player$ |    000012B0  C$player. |    000012B3  A$player$
     000012B5  A$player$ |    000012B5  C$player. |    000012B8  A$player$
     000012BA  A$player$ |    000012BA  C$player. |    000012BD  A$player$
     000012BD  C$player. |    000012BD  C$player. |    000012BF  A$player$
     000012C0  A$player$ |    000012C1  A$player$ |    000012C2  A$player$
     000012C3  A$player$ |    000012C5  A$player$ |    000012C5  C$player.
     000012C6  A$player$ |    000012C7  A$player$ |    000012C8  A$player$
     000012C9  A$player$ |    000012CA  A$player$ |    000012CB  A$player$
     000012CC  A$player$ |    000012CC  C$player. |    000012CE  A$player$
     000012D1  A$player$ |    000012D3  A$player$ |    000012D4  A$player$
     000012D5  A$player$ |    000012D6  A$player$ |    000012D7  A$player$
     000012D8  A$player$ |    000012D9  A$player$ |    000012DA  A$player$
     000012DB  A$player$ |    000012DC  A$player$ |    000012DD  A$player$
     000012DE  A$player$ |    000012E0  A$player$ |    000012E1  A$player$
     000012E2  A$player$ |    000012E5  A$player$ |    000012E7  A$player$
     000012EA  A$player$ |    000012EB  A$player$ |    000012ED  A$player$
     000012EE  A$player$ |    000012EF  A$player$ |    000012F0  A$player$
     000012F1  A$player$ |    000012F2  A$player$ |    000012F3  A$player$
     000012F4  A$player$ |    000012F6  A$player$ |    000012F7  A$player$
     000012F8  A$player$ |    000012F9  A$player$ |    000012FA  A$player$
     000012FD  A$player$ |    000012FF  A$player$ |    00001301  A$player$
     00001302  A$player$ |    00001303  A$player$ |    00001304  A$player$
     00001305  A$player$ |    00001308  A$player$ |    0000130A  A$player$
     0000130B  A$player$ |    0000130C  A$player$ |    0000130D  A$player$
     0000130E  A$player$ |    0000130F  A$player$ |    00001310  A$player$
     00001312  A$player$ |    00001313  A$player$ |    00001314  A$player$
     00001315  A$player$ |    00001316  A$player$ |    00001317  A$player$
     00001318  A$player$ |    00001319  A$player$ |    0000131A  A$player$
     0000131C  A$player$ |    0000131D  A$player$ |    0000131E  A$player$
     0000131F  A$player$ |    00001320  A$player$ |    00001321  A$player$
     00001322  A$player$ |    00001323  A$player$ |    00001325  A$player$
     00001326  A$player$ |    00001327  A$player$ |    00001328  A$player$
     00001329  A$player$ |    0000132A  A$player$ |    0000132B  A$player$
     0000132C  A$player$ |    0000132D  A$player$ |    0000132E  A$player$
     0000132F  A$player$ |    00001330  A$player$ |    00001333  A$player$
     00001335  A$player$ |    00001336  A$player$ |    00001337  A$player$
     00001339  A$player$ |    0000133A  A$player$ |    0000133B  A$player$
     0000133C  A$player$ |    0000133D  A$player$ |    0000133E  A$player$
     0000133F  A$player$ |    00001341  A$player$ |    00001343  A$player$
     00001345  A$player$ |    00001347  A$player$ |    00001348  A$player$
     0000134A  A$player$ |    0000134C  A$player$ |    0000134E  A$player$
ASxxxx Linker V03.00 + NoICE + sdld,  page 23.
Hexadecimal  [32-Bits]

Area                       Addr        Size        Decimal Bytes (Attributes)
--------------------       ----        ----        ------- ----- ------------
_CODE                  00000200    000037D3 =       14291. bytes (REL,CON)

        Value  Global            Value  Global            Value  Global    
        -----  ------            -----  ------            -----  ------    
     0000134F  A$player$ |    00001351  A$player$ |    00001351  C$player.
     00001353  A$player$ |    00001354  A$player$ |    00001355  A$player$
     00001356  A$player$ |    00001357  A$player$ |    00001358  A$player$
     0000135B  A$player$ |    0000135B  C$player. |    0000135E  A$player$
     00001360  A$player$ |    00001362  A$player$ |    00001362  C$player.
     00001364  A$player$ |    00001365  A$player$ |    00001366  A$player$
     00001369  A$player$ |    00001369  C$player. |    0000136C  A$player$
     0000136E  A$player$ |    0000136E  C$player. |    00001370  A$player$
     00001370  C$player. |    00001370  C$player. |    00001372  A$player$
     00001373  A$player$ |    00001374  A$player$ |    00001375  A$player$
     00001376  A$player$ |    00001377  A$player$ |    0000137A  A$player$
     0000137A  C$player. |    0000137D  A$player$ |    0000137F  A$player$
     0000137F  C$player. |    00001381  A$player$ |    00001381  C$player.
     00001381  C$player. |    00001383  A$player$ |    00001384  A$player$
     00001385  A$player$ |    00001386  A$player$ |    00001387  A$player$
     00001388  A$player$ |    00001389  A$player$ |    0000138A  A$player$
     0000138B  A$player$ |    0000138C  A$player$ |    0000138D  A$player$
     0000138E  A$player$ |    0000138F  A$player$ |    00001390  A$player$
     00001391  A$player$ |    00001392  A$player$ |    00001393  A$player$
     00001396  A$player$ |    00001396  C$player. |    00001399  A$player$
     0000139B  A$player$ |    0000139B  C$player. |    0000139E  A$player$
     000013A0  A$player$ |    000013A0  C$player. |    000013A3  A$player$
     000013A5  A$player$ |    000013A5  C$player. |    000013A7  A$player$
     000013A7  C$player. |    000013A7  C$player. |    000013A9  A$player$
     000013AA  A$player$ |    000013AB  A$player$ |    000013AC  A$player$
     000013AD  A$player$ |    000013AE  A$player$ |    000013B1  A$player$
     000013B1  C$player. |    000013B4  A$player$ |    000013B6  A$player$
     000013B6  C$player. |    000013B6  C$player. |    000013B9  A$player$
     000013BA  A$player$ |    000013BB  A$player$ |    000013BD  A$player$
     000013C0  A$player$ |    000013C2  A$player$ |    000013C2  C$player.
     000013C2  XFplayer$ |    000013C3  A$player$ |    000013C3  C$player.
     000013C3  Fplayer$u |    000013C4  A$player$ |    000013C5  A$player$
     000013C8  A$player$ |    000013C9  A$player$ |    000013CA  A$player$
     000013CC  A$player$ |    000013CE  A$player$ |    000013CF  A$player$
     000013D2  A$player$ |    000013D3  A$player$ |    000013D4  A$player$
     000013D5  A$player$ |    000013D7  A$player$ |    000013D8  A$player$
     000013D8  C$player. |    000013D9  A$player$ |    000013DB  A$player$
     000013DB  C$player. |    000013DC  A$player$ |    000013DD  A$player$
     000013DE  A$player$ |    000013E0  A$player$ |    000013E3  A$player$
     000013E4  A$player$ |    000013E6  A$player$ |    000013E7  A$player$
     000013E8  A$player$ |    000013EA  A$player$ |    000013EB  A$player$
     000013ED  A$player$ |    000013EE  A$player$ |    000013F0  A$player$
     000013F1  A$player$ |    000013F3  A$player$ |    000013F4  A$player$
     000013F5  A$player$ |    000013F7  A$player$ |    000013F7  C$player.
     000013FA  A$player$ |    000013FB  A$player$ |    000013FC  A$player$
     000013FD  A$player$ |    000013FE  A$player$ |    000013FF  A$player$
     00001400  A$player$ |    00001401  A$player$ |    00001402  A$player$
     00001403  A$player$ |    00001404  A$player$ |    00001405  A$player$
     00001405  C$player. |    00001408  A$player$ |    00001409  A$player$
     00001409  C$player. |    0000140B  A$player$ |    0000140C  A$player$
     0000140D  A$player$ |    0000140E  A$player$ |    00001410  A$player$
ASxxxx Linker V03.00 + NoICE + sdld,  page 24.
Hexadecimal  [32-Bits]

Area                       Addr        Size        Decimal Bytes (Attributes)
--------------------       ----        ----        ------- ----- ------------
_CODE                  00000200    000037D3 =       14291. bytes (REL,CON)

        Value  Global            Value  Global            Value  Global    
        -----  ------            -----  ------            -----  ------    
     00001411  A$player$ |    00001414  A$player$ |    00001414  C$player.
     00001416  A$player$ |    00001416  C$player. |    00001419  A$player$
     0000141A  A$player$ |    0000141C  A$player$ |    0000141C  C$player.
     0000141D  A$player$ |    0000141E  A$player$ |    00001420  A$player$
     00001421  A$player$ |    00001422  A$player$ |    00001424  A$player$
     00001426  A$player$ |    00001427  A$player$ |    0000142A  A$player$
     0000142A  C$player. |    0000142D  A$player$ |    00001430  A$player$
     00001431  A$player$ |    00001433  A$player$ |    00001433  C$player.
     00001434  A$player$ |    00001437  A$player$ |    00001438  A$player$
     00001439  A$player$ |    00001439  C$player. |    00001439  XFplayer$
     0000143A  A$player$ |    0000143A  C$player. |    0000143A  C$player.
     0000143A  Fplayer$c |    0000143D  A$player$ |    0000143F  A$player$
     00001441  A$player$ |    00001442  A$player$ |    00001444  A$player$
     00001447  A$player$ |    00001448  A$player$ |    0000144B  A$player$
     0000144C  A$player$ |    0000144D  A$player$ |    0000144E  A$player$
     0000144F  A$player$ |    00001452  A$player$ |    00001453  A$player$
     00001454  A$player$ |    00001455  A$player$ |    00001455  C$player.
     00001455  XFplayer$ |    00001456  A$player$ |    00001456  C$player.
     00001456  Fplayer$p |    00001458  A$player$ |    00001458  C$player.
     0000145A  A$player$ |    0000145B  A$player$ |    0000145D  A$player$
     0000145E  A$player$ |    00001460  A$player$ |    00001461  A$player$
     00001463  A$player$ |    00001464  A$player$ |    00001465  A$player$
     00001466  A$player$ |    00001467  A$player$ |    00001468  A$player$
     0000146B  A$player$ |    0000146D  A$player$ |    0000146E  A$player$
     00001470  A$player$ |    00001471  A$player$ |    00001472  A$player$
     00001473  A$player$ |    00001474  A$player$ |    00001475  A$player$
     00001476  A$player$ |    00001479  A$player$ |    0000147A  A$player$
     0000147C  A$player$ |    0000147E  A$player$ |    0000147F  A$player$
     00001481  A$player$ |    00001482  A$player$ |    00001483  A$player$
     00001484  A$player$ |    00001485  A$player$ |    00001486  A$player$
     00001488  A$player$ |    00001489  A$player$ |    0000148A  A$player$
     0000148B  A$player$ |    0000148E  A$player$ |    0000148F  A$player$
     00001490  A$player$ |    00001492  A$player$ |    00001493  A$player$
     00001494  A$player$ |    00001495  A$player$ |    00001496  A$player$
     00001497  A$player$ |    00001498  A$player$ |    0000149A  A$player$
     0000149C  A$player$ |    0000149E  A$player$ |    000014A0  A$player$
     000014A1  A$player$ |    000014A3  A$player$ |    000014A5  A$player$
     000014A7  A$player$ |    000014A8  A$player$ |    000014AA  A$player$
     000014AC  A$player$ |    000014AD  A$player$ |    000014AF  A$player$
     000014B0  A$player$ |    000014B1  A$player$ |    000014B2  A$player$
     000014B3  A$player$ |    000014B4  A$player$ |    000014B5  A$player$
     000014B6  A$player$ |    000014B8  A$player$ |    000014B9  A$player$
     000014BA  A$player$ |    000014BB  A$player$ |    000014BC  A$player$
     000014BD  A$player$ |    000014BE  A$player$ |    000014C1  A$player$
     000014C2  A$player$ |    000014C4  A$player$ |    000014C5  A$player$
     000014C6  A$player$ |    000014C7  A$player$ |    000014C8  A$player$
     000014C9  A$player$ |    000014CA  A$player$ |    000014CC  A$player$
     000014CE  A$player$ |    000014D0  A$player$ |    000014D2  A$player$
     000014D3  A$player$ |    000014D5  A$player$ |    000014D7  A$player$
     000014D9  A$player$ |    000014DA  A$player$ |    000014DC  A$player$
     000014DE  A$player$ |    000014E0  A$player$ |    000014E2  A$player$
ASxxxx Linker V03.00 + NoICE + sdld,  page 25.
Hexadecimal  [32-Bits]

Area                       Addr        Size        Decimal Bytes (Attributes)
--------------------       ----        ----        ------- ----- ------------
_CODE                  00000200    000037D3 =       14291. bytes (REL,CON)

        Value  Global            Value  Global            Value  Global    
        -----  ------            -----  ------            -----  ------    
     000014E4  A$player$ |    000014E4  C$player. |    000014E4  XFplayer$
     000014E5  A$player$ |    000014E5  C$player. |    000014E5  Fplayer$r
     000014E6  A$player$ |    000014E7  A$player$ |    000014E7  C$player.
     000014E9  A$player$ |    000014EA  A$player$ |    000014EC  A$player$
     000014EF  A$player$ |    000014EF  C$player. |    000014F2  A$player$
     000014F4  A$player$ |    000014F5  A$player$ |    000014F7  A$player$
     000014F8  A$player$ |    000014F8  C$player. |    000014FB  A$player$
     000014FC  A$player$ |    000014FD  A$player$ |    000014FF  A$player$
     00001500  A$player$ |    00001503  A$player$ |    00001505  A$player$
     00001507  A$player$ |    00001508  A$player$ |    0000150A  A$player$
     0000150B  A$player$ |    0000150D  A$player$ |    0000150F  A$player$
     00001511  A$player$ |    00001513  A$player$ |    00001515  A$player$
     00001517  A$player$ |    00001519  A$player$ |    0000151B  A$player$
     0000151E  A$player$ |    0000151F  A$player$ |    00001520  A$player$
     00001521  A$player$ |    00001523  A$player$ |    00001524  A$player$
     00001526  A$player$ |    00001527  A$player$ |    00001528  A$player$
     00001529  A$player$ |    0000152A  A$player$ |    0000152C  A$player$
     0000152E  A$player$ |    00001530  A$player$ |    00001533  A$player$
     00001534  A$player$ |    00001535  A$player$ |    00001536  A$player$
     00001538  A$player$ |    00001539  A$player$ |    0000153B  A$player$
     0000153C  A$player$ |    0000153D  A$player$ |    0000153E  A$player$
     0000153F  A$player$ |    00001541  A$player$ |    00001541  C$player.
     00001543  A$player$ |    00001546  A$player$ |    00001546  C$player.
     00001548  A$player$ |    0000154A  A$player$ |    0000154D  A$player$
     0000154D  C$player. |    0000154E  A$player$ |    00001551  A$player$
     00001552  A$player$ |    00001553  A$player$ |    00001554  A$player$
     00001555  A$player$ |    00001556  A$player$ |    00001557  A$player$
     00001558  A$player$ |    0000155A  A$player$ |    0000155B  A$player$
     0000155C  A$player$ |    0000155D  A$player$ |    0000155E  A$player$
     0000155F  A$player$ |    00001561  A$player$ |    00001563  A$player$
     00001565  A$player$ |    00001565  C$player. |    00001566  A$player$
     00001569  A$player$ |    0000156A  A$player$ |    0000156A  C$player.
     0000156D  A$player$ |    0000156E  A$player$ |    0000156F  A$player$
     00001571  A$player$ |    00001572  A$player$ |    00001573  A$player$
     00001574  A$player$ |    00001575  A$player$ |    00001576  A$player$
     00001579  A$player$ |    0000157A  A$player$ |    0000157C  A$player$
     0000157E  A$player$ |    00001581  A$player$ |    00001582  A$player$
     00001584  A$player$ |    00001585  A$player$ |    00001586  A$player$
     00001588  A$player$ |    00001589  A$player$ |    0000158A  A$player$
     0000158B  A$player$ |    0000158C  A$player$ |    0000158F  A$player$
     00001591  A$player$ |    00001591  C$player. |    00001594  A$player$
     00001595  A$player$ |    00001596  A$player$ |    00001598  A$player$
     0000159A  A$player$ |    0000159B  A$player$ |    0000159C  A$player$
     0000159D  A$player$ |    0000159E  A$player$ |    0000159F  A$player$
     000015A0  A$player$ |    000015A1  A$player$ |    000015A4  A$player$
     000015A6  A$player$ |    000015A7  A$player$ |    000015A8  A$player$
     000015AA  A$player$ |    000015AB  A$player$ |    000015AC  A$player$
     000015AE  A$player$ |    000015AE  C$player. |    000015B0  A$player$
     000015B3  A$player$ |    000015B3  C$player. |    000015B4  A$player$
     000015B7  A$player$ |    000015BA  A$player$ |    000015BB  A$player$
     000015BB  C$player. |    000015BE  A$player$ |    000015BF  A$player$
ASxxxx Linker V03.00 + NoICE + sdld,  page 26.
Hexadecimal  [32-Bits]

Area                       Addr        Size        Decimal Bytes (Attributes)
--------------------       ----        ----        ------- ----- ------------
_CODE                  00000200    000037D3 =       14291. bytes (REL,CON)

        Value  Global            Value  Global            Value  Global    
        -----  ------            -----  ------            -----  ------    
     000015C0  A$player$ |    000015C2  A$player$ |    000015C3  A$player$
     000015C4  A$player$ |    000015C5  A$player$ |    000015C6  A$player$
     000015C7  A$player$ |    000015CA  A$player$ |    000015CB  A$player$
     000015CD  A$player$ |    000015CF  A$player$ |    000015D2  A$player$
     000015D3  A$player$ |    000015D5  A$player$ |    000015D6  A$player$
     000015D7  A$player$ |    000015D9  A$player$ |    000015DA  A$player$
     000015DB  A$player$ |    000015DC  A$player$ |    000015DD  A$player$
     000015E0  A$player$ |    000015E2  A$player$ |    000015E2  C$player.
     000015E5  A$player$ |    000015E6  A$player$ |    000015E7  A$player$
     000015E9  A$player$ |    000015EB  A$player$ |    000015EC  A$player$
     000015ED  A$player$ |    000015EE  A$player$ |    000015EF  A$player$
     000015F0  A$player$ |    000015F1  A$player$ |    000015F2  A$player$
     000015F5  A$player$ |    000015F7  A$player$ |    000015F8  A$player$
     000015F9  A$player$ |    000015FB  A$player$ |    000015FC  A$player$
     000015FD  A$player$ |    000015FF  A$player$ |    00001600  A$player$
     00001600  C$player. |    00001603  A$player$ |    00001604  A$player$
     00001605  A$player$ |    00001607  A$player$ |    00001609  A$player$
     0000160A  A$player$ |    0000160B  A$player$ |    0000160C  A$player$
     0000160D  A$player$ |    0000160E  A$player$ |    0000160F  A$player$
     00001610  A$player$ |    00001613  A$player$ |    00001615  A$player$
     00001616  A$player$ |    00001617  A$player$ |    00001619  A$player$
     0000161A  A$player$ |    0000161B  A$player$ |    0000161C  A$player$
     0000161E  A$player$ |    0000161F  A$player$ |    0000161F  C$player.
     00001622  A$player$ |    00001625  A$player$ |    00001626  A$player$
     00001627  A$player$ |    00001629  A$player$ |    0000162A  A$player$
     0000162C  A$player$ |    0000162D  A$player$ |    0000162E  A$player$
     0000162F  A$player$ |    00001630  A$player$ |    00001631  A$player$
     00001632  A$player$ |    00001633  A$player$ |    00001634  A$player$
     00001635  A$player$ |    00001636  A$player$ |    00001637  A$player$
     0000163A  A$player$ |    0000163B  A$player$ |    0000163C  A$player$
     0000163D  A$player$ |    0000163E  A$player$ |    0000163F  A$player$
     00001641  A$player$ |    00001642  A$player$ |    00001645  A$player$
     00001646  A$player$ |    00001648  A$player$ |    0000164B  A$player$
     0000164B  C$player. |    0000164E  A$player$ |    0000164F  A$player$
     00001650  A$player$ |    00001651  A$player$ |    00001652  A$player$
     00001653  A$player$ |    00001654  A$player$ |    00001656  A$player$
     00001657  A$player$ |    00001659  A$player$ |    0000165A  A$player$
     0000165B  A$player$ |    0000165C  A$player$ |    0000165D  A$player$
     0000165E  A$player$ |    00001660  A$player$ |    00001662  A$player$
     00001662  C$player. |    00001663  A$player$ |    00001666  A$player$
     00001667  A$player$ |    00001667  C$player. |    0000166A  A$player$
     0000166B  A$player$ |    0000166C  A$player$ |    0000166E  A$player$
     0000166F  A$player$ |    00001670  A$player$ |    00001671  A$player$
     00001673  A$player$ |    00001674  A$player$ |    00001677  A$player$
     00001678  A$player$ |    0000167A  A$player$ |    0000167C  A$player$
     0000167F  A$player$ |    00001680  A$player$ |    00001682  A$player$
     00001683  A$player$ |    00001684  A$player$ |    00001686  A$player$
     00001687  A$player$ |    00001688  A$player$ |    00001689  A$player$
     0000168A  A$player$ |    0000168D  A$player$ |    0000168F  A$player$
     0000168F  C$player. |    00001692  A$player$ |    00001693  A$player$
     00001694  A$player$ |    00001696  A$player$ |    00001698  A$player$
ASxxxx Linker V03.00 + NoICE + sdld,  page 27.
Hexadecimal  [32-Bits]

Area                       Addr        Size        Decimal Bytes (Attributes)
--------------------       ----        ----        ------- ----- ------------
_CODE                  00000200    000037D3 =       14291. bytes (REL,CON)

        Value  Global            Value  Global            Value  Global    
        -----  ------            -----  ------            -----  ------    
     00001699  A$player$ |    0000169A  A$player$ |    0000169B  A$player$
     0000169C  A$player$ |    0000169D  A$player$ |    0000169E  A$player$
     0000169F  A$player$ |    000016A2  A$player$ |    000016A4  A$player$
     000016A5  A$player$ |    000016A6  A$player$ |    000016A8  A$player$
     000016A9  A$player$ |    000016AA  A$player$ |    000016AC  A$player$
     000016AC  C$player. |    000016AE  A$player$ |    000016B1  A$player$
     000016B1  C$player. |    000016B2  A$player$ |    000016B5  A$player$
     000016B8  A$player$ |    000016B9  A$player$ |    000016B9  C$player.
     000016BC  A$player$ |    000016BD  A$player$ |    000016BE  A$player$
     000016C0  A$player$ |    000016C1  A$player$ |    000016C2  A$player$
     000016C3  A$player$ |    000016C5  A$player$ |    000016C6  A$player$
     000016C9  A$player$ |    000016CA  A$player$ |    000016CC  A$player$
     000016CE  A$player$ |    000016D1  A$player$ |    000016D2  A$player$
     000016D4  A$player$ |    000016D5  A$player$ |    000016D6  A$player$
     000016D8  A$player$ |    000016D9  A$player$ |    000016DA  A$player$
     000016DB  A$player$ |    000016DC  A$player$ |    000016DF  A$player$
     000016E1  A$player$ |    000016E1  C$player. |    000016E4  A$player$
     000016E5  A$player$ |    000016E6  A$player$ |    000016E8  A$player$
     000016EA  A$player$ |    000016EB  A$player$ |    000016EC  A$player$
     000016ED  A$player$ |    000016EE  A$player$ |    000016EF  A$player$
     000016F0  A$player$ |    000016F1  A$player$ |    000016F4  A$player$
     000016F6  A$player$ |    000016F7  A$player$ |    000016F8  A$player$
     000016FA  A$player$ |    000016FB  A$player$ |    000016FC  A$player$
     000016FE  A$player$ |    000016FF  A$player$ |    000016FF  C$player.
     00001702  A$player$ |    00001703  A$player$ |    00001704  A$player$
     00001706  A$player$ |    00001708  A$player$ |    00001709  A$player$
     0000170A  A$player$ |    0000170B  A$player$ |    0000170C  A$player$
     0000170D  A$player$ |    0000170E  A$player$ |    0000170F  A$player$
     00001712  A$player$ |    00001714  A$player$ |    00001715  A$player$
     00001716  A$player$ |    00001718  A$player$ |    00001719  A$player$
     0000171A  A$player$ |    0000171B  A$player$ |    0000171D  A$player$
     0000171E  A$player$ |    0000171E  C$player. |    00001721  A$player$
     00001724  A$player$ |    00001725  A$player$ |    00001726  A$player$
     00001728  A$player$ |    00001729  A$player$ |    0000172B  A$player$
     0000172C  A$player$ |    0000172D  A$player$ |    0000172E  A$player$
     0000172F  A$player$ |    00001730  A$player$ |    00001731  A$player$
     00001732  A$player$ |    00001733  A$player$ |    00001734  A$player$
     00001735  A$player$ |    00001736  A$player$ |    00001739  A$player$
     0000173A  A$player$ |    0000173B  A$player$ |    0000173C  A$player$
     0000173D  A$player$ |    0000173E  A$player$ |    00001740  A$player$
     00001741  A$player$ |    00001744  A$player$ |    00001745  A$player$
     00001747  A$player$ |    00001747  C$player. |    00001749  A$player$
     0000174A  A$player$ |    0000174B  A$player$ |    0000174B  C$player.
     0000174B  XFplayer$ |    0000174C  A$player$ |    0000174C  C$player.
     0000174C  C$player. |    0000174C  Fplayer$r |    0000174E  A$player$
     0000174F  A$player$ |    00001751  A$player$ |    00001753  A$player$
     00001756  A$player$ |    00001757  A$player$ |    00001758  A$player$
     00001759  A$player$ |    0000175B  A$player$ |    0000175D  A$player$
     0000175E  A$player$ |    0000175F  A$player$ |    00001761  A$player$
     00001761  C$player. |    00001761  XFplayer$ |    00001762  A$player$
     00001762  C$player. |    00001762  C$player. |    00001762  Fplayer$r
ASxxxx Linker V03.00 + NoICE + sdld,  page 28.
Hexadecimal  [32-Bits]

Area                       Addr        Size        Decimal Bytes (Attributes)
--------------------       ----        ----        ------- ----- ------------
_CODE                  00000200    000037D3 =       14291. bytes (REL,CON)

        Value  Global            Value  Global            Value  Global    
        -----  ------            -----  ------            -----  ------    
     00001764  A$player$ |    00001764  C$player. |    00001764  XFplayer$
     00001765  A$player$ |    00001765  C$player. |    00001765  C$player.
     00001765  Fplayer$r |    00001767  A$player$ |    00001768  A$player$
     0000176A  A$player$ |    0000176D  A$player$ |    00001770  A$player$
     00001772  A$player$ |    00001774  A$player$ |    00001776  A$player$
     00001778  A$player$ |    0000177B  A$player$ |    0000177E  A$player$
     00001780  A$player$ |    00001783  A$player$ |    00001785  A$player$
     00001788  A$player$ |    0000178A  A$player$ |    0000178A  C$player.
     0000178D  A$player$ |    0000178D  C$player. |    00001790  A$player$
     00001792  A$player$ |    00001792  C$player. |    00001795  A$player$
     00001797  A$player$ |    00001797  C$player. |    0000179A  A$player$
     0000179C  A$player$ |    0000179C  C$player. |    0000179D  A$player$
     000017A0  A$player$ |    000017A2  A$player$ |    000017A3  A$player$
     000017A5  A$player$ |    000017A7  A$player$ |    000017A8  A$player$
     000017A8  C$player. |    000017AB  A$player$ |    000017AC  A$player$
     000017AD  A$player$ |    000017AF  A$player$ |    000017B0  A$player$
     000017B2  A$player$ |    000017B3  A$player$ |    000017B4  A$player$
     000017B5  A$player$ |    000017B6  A$player$ |    000017B8  A$player$
     000017B9  A$player$ |    000017BA  A$player$ |    000017BC  A$player$
     000017BD  A$player$ |    000017C0  A$player$ |    000017C2  A$player$
     000017C3  A$player$ |    000017C4  A$player$ |    000017C6  A$player$
     000017C7  A$player$ |    000017C8  A$player$ |    000017C9  A$player$
     000017CB  A$player$ |    000017CB  C$player. |    000017CC  A$player$
     000017CD  A$player$ |    000017CF  A$player$ |    000017CF  C$player.
     000017D1  A$player$ |    000017D2  A$player$ |    000017D3  A$player$
     000017D5  A$player$ |    000017D6  A$player$ |    000017D8  A$player$
     000017D8  C$player. |    000017D9  A$player$ |    000017DB  A$player$
     000017DC  A$player$ |    000017DC  C$player. |    000017DD  A$player$
     000017DF  A$player$ |    000017E0  A$player$ |    000017E2  A$player$
     000017E2  C$player. |    000017E3  A$player$ |    000017E4  A$player$
     000017E5  A$player$ |    000017E8  A$player$ |    000017E9  A$player$
     000017EA  A$player$ |    000017EA  C$player. |    000017EB  A$player$
     000017EC  A$player$ |    000017EE  A$player$ |    000017EF  A$player$
     000017F0  A$player$ |    000017F3  A$player$ |    000017F4  A$player$
     000017F6  A$player$ |    000017F6  C$player. |    000017F7  A$player$
     000017F8  A$player$ |    000017FB  A$player$ |    000017FC  A$player$
     000017FC  C$player. |    000017FF  A$player$ |    00001800  A$player$
     00001801  A$player$ |    00001803  A$player$ |    00001804  A$player$
     00001806  A$player$ |    00001807  A$player$ |    00001808  A$player$
     00001809  A$player$ |    0000180A  A$player$ |    0000180C  A$player$
     0000180D  A$player$ |    0000180E  A$player$ |    00001810  A$player$
     00001811  A$player$ |    00001814  A$player$ |    00001816  A$player$
     00001817  A$player$ |    00001818  A$player$ |    0000181A  A$player$
     0000181B  A$player$ |    0000181C  A$player$ |    0000181D  A$player$
     0000181F  A$player$ |    00001820  A$player$ |    00001820  C$player.
     00001822  A$player$ |    00001822  C$player. |    00001822  XFplayer$
     00001823  A$player$ |    00001823  C$player. |    00001823  C$player.
     00001823  Fplayer$m |    00001825  A$player$ |    00001826  A$player$
     00001827  A$player$ |    00001828  A$player$ |    00001829  A$player$
     0000182B  A$player$ |    0000182C  A$player$ |    0000182E  A$player$
     0000182F  A$player$ |    00001830  A$player$ |    00001832  A$player$
ASxxxx Linker V03.00 + NoICE + sdld,  page 29.
Hexadecimal  [32-Bits]

Area                       Addr        Size        Decimal Bytes (Attributes)
--------------------       ----        ----        ------- ----- ------------
_CODE                  00000200    000037D3 =       14291. bytes (REL,CON)

        Value  Global            Value  Global            Value  Global    
        -----  ------            -----  ------            -----  ------    
     00001835  A$player$ |    00001836  A$player$ |    00001837  A$player$
     00001838  A$player$ |    0000183A  A$player$ |    0000183B  A$player$
     0000183C  A$player$ |    0000183F  A$player$ |    00001841  A$player$
     00001842  A$player$ |    00001843  A$player$ |    00001844  A$player$
     00001845  A$player$ |    00001846  A$player$ |    00001847  A$player$
     00001848  A$player$ |    00001849  A$player$ |    0000184A  A$player$
     0000184C  A$player$ |    0000184D  A$player$ |    0000184E  A$player$
     00001851  A$player$ |    00001852  A$player$ |    00001853  A$player$
     00001854  A$player$ |    00001855  A$player$ |    00001855  C$player.
     00001855  C$player. |    00001855  XFplayer$ |    00001856  A$player$
     00001856  C$player. |    00001856  C$player. |    00001856  Fplayer$r
     00001858  A$player$ |    00001859  A$player$ |    0000185B  A$player$
     0000185D  A$player$ |    00001860  A$player$ |    00001862  A$player$
     00001864  A$player$ |    00001867  A$player$ |    00001869  A$player$
     0000186B  A$player$ |    0000186E  A$player$ |    00001871  A$player$
     00001873  A$player$ |    00001876  A$player$ |    00001878  A$player$
     0000187B  A$player$ |    0000187D  A$player$ |    0000187D  C$player.
     00001880  A$player$ |    00001882  A$player$ |    00001882  C$player.
     00001885  A$player$ |    00001887  A$player$ |    00001887  C$player.
     00001889  A$player$ |    0000188A  A$player$ |    0000188A  C$player.
     0000188C  A$player$ |    0000188D  A$player$ |    0000188F  A$player$
     00001891  A$player$ |    00001891  C$player. |    00001894  A$player$
     00001894  C$player. |    00001896  A$player$ |    00001896  C$player.
     00001896  XFplayer$ |    00001897  A$player$ |    00001897  C$player.
     00001897  C$player. |    00001897  Fplayer$r |    00001899  A$player$
     0000189A  A$player$ |    0000189C  A$player$ |    0000189E  A$player$
     000018A1  A$player$ |    000018A3  A$player$ |    000018A5  A$player$
     000018A7  A$player$ |    000018A9  A$player$ |    000018AC  A$player$
     000018AF  A$player$ |    000018B1  A$player$ |    000018B4  A$player$
     000018B6  A$player$ |    000018B9  A$player$ |    000018BB  A$player$
     000018BB  C$player. |    000018BE  A$player$ |    000018C0  A$player$
     000018C0  C$player. |    000018C3  A$player$ |    000018C5  A$player$
     000018C5  C$player. |    000018C7  A$player$ |    000018C8  A$player$
     000018C8  C$player. |    000018CA  A$player$ |    000018CB  A$player$
     000018CD  A$player$ |    000018CF  A$player$ |    000018CF  C$player.
     000018D2  A$player$ |    000018D2  C$player. |    000018D4  A$player$
     000018D4  C$player. |    000018D4  XFplayer$ |    000018D5  A$player$
     000018D5  C$player. |    000018D5  C$player. |    000018D5  Fplayer$r
     000018D7  A$player$ |    000018D8  A$player$ |    000018DA  A$player$
     000018DC  A$player$ |    000018DE  A$player$ |    000018DF  A$player$
     000018E0  A$player$ |    000018E3  A$player$ |    000018E4  A$player$
     000018E4  C$player. |    000018E6  A$player$ |    000018E8  A$player$
     000018EB  A$player$ |    000018EC  A$player$ |    000018ED  A$player$
     000018EE  A$player$ |    000018F0  A$player$ |    000018F2  A$player$
     000018F3  A$player$ |    000018F4  A$player$ |    000018F6  A$player$
     000018F6  C$player. |    000018F6  XFplayer$ |    000018F7  A$scene$1
     000018F7  C$scene.c |    000018F7  G$scene_i |    000018F7  _scene_in
     000018F9  A$scene$1 |    000018F9  C$scene.c |    000018FC  A$scene$1
     000018FD  A$scene$1 |    00001900  A$scene$1 |    00001901  A$scene$1
     00001904  A$scene$1 |    00001906  A$scene$1 |    00001906  C$scene.c
     00001909  A$scene$1 |    0000190A  A$scene$1 |    0000190D  A$scene$1
ASxxxx Linker V03.00 + NoICE + sdld,  page 30.
Hexadecimal  [32-Bits]

Area                       Addr        Size        Decimal Bytes (Attributes)
--------------------       ----        ----        ------- ----- ------------
_CODE                  00000200    000037D3 =       14291. bytes (REL,CON)

        Value  Global            Value  Global            Value  Global    
        -----  ------            -----  ------            -----  ------    
     0000190E  A$scene$1 |    00001911  A$scene$1 |    00001913  A$scene$1
     00001913  C$scene.c |    00001916  A$scene$1 |    00001917  A$scene$1
     0000191A  A$scene$1 |    0000191B  A$scene$1 |    0000191E  A$scene$1
     00001920  A$scene$1 |    00001920  C$scene.c |    00001923  A$scene$1
     00001924  A$scene$2 |    00001927  A$scene$2 |    00001928  A$scene$2
     0000192B  A$scene$2 |    0000192C  A$scene$2 |    0000192F  A$scene$2
     00001931  A$scene$2 |    00001931  C$scene.c |    00001934  A$scene$2
     00001936  A$scene$2 |    00001936  C$scene.c |    00001939  A$scene$2
     0000193B  A$scene$2 |    0000193B  C$scene.c |    0000193E  A$scene$2
     00001940  A$scene$2 |    00001940  C$scene.c |    00001943  A$scene$2
     00001945  A$scene$2 |    00001945  C$scene.c |    00001948  A$scene$2
     0000194A  A$scene$2 |    0000194A  C$scene.c |    0000194D  A$scene$2
     0000194F  A$scene$2 |    0000194F  C$scene.c |    00001952  A$scene$2
     00001954  A$scene$2 |    00001956  A$scene$2 |    00001958  A$scene$2
     00001959  A$scene$2 |    0000195B  A$scene$2 |    0000195B  C$scene.c
     0000195E  A$scene$2 |    00001960  A$scene$2 |    00001960  C$scene.c
     00001962  A$scene$2 |    00001963  A$scene$2 |    00001964  A$scene$2
     00001965  A$scene$2 |    00001966  A$scene$2 |    00001968  A$scene$2
     00001969  A$scene$2 |    0000196A  A$scene$2 |    0000196B  A$scene$2
     0000196D  A$scene$2 |    0000196E  A$scene$2 |    0000196F  A$scene$2
     00001970  A$scene$2 |    00001971  A$scene$2 |    00001973  A$scene$2
     00001974  A$scene$2 |    00001975  A$scene$2 |    00001976  A$scene$2
     00001977  A$scene$2 |    00001978  A$scene$2 |    0000197A  A$scene$2
     0000197D  A$scene$2 |    0000197E  A$scene$2 |    00001980  A$scene$2
     00001980  C$scene.c |    00001982  A$scene$2 |    00001984  A$scene$2
     00001985  A$scene$2 |    00001986  A$scene$2 |    00001988  A$scene$2
     00001989  A$scene$2 |    0000198A  A$scene$3 |    0000198B  A$scene$3
     0000198C  A$scene$3 |    0000198D  A$scene$3 |    0000198E  A$scene$3
     0000198F  A$scene$3 |    00001990  A$scene$3 |    00001992  A$scene$3
     00001993  A$scene$3 |    00001994  A$scene$3 |    00001995  A$scene$3
     00001996  A$scene$3 |    00001997  A$scene$3 |    00001998  A$scene$3
     00001999  A$scene$3 |    0000199B  A$scene$3 |    0000199C  A$scene$3
     0000199D  A$scene$3 |    0000199E  A$scene$3 |    0000199F  A$scene$3
     000019A0  A$scene$3 |    000019A1  A$scene$3 |    000019A2  A$scene$3
     000019A3  A$scene$3 |    000019A5  A$scene$3 |    000019A6  A$scene$3
     000019A7  A$scene$3 |    000019A8  A$scene$3 |    000019A9  A$scene$3
     000019AC  A$scene$3 |    000019AD  A$scene$3 |    000019AF  A$scene$3
     000019AF  C$scene.c |    000019B1  A$scene$3 |    000019B3  A$scene$3
     000019B4  A$scene$3 |    000019B5  A$scene$3 |    000019B7  A$scene$3
     000019B8  A$scene$3 |    000019B9  A$scene$3 |    000019BA  A$scene$3
     000019BB  A$scene$3 |    000019BC  A$scene$3 |    000019BD  A$scene$3
     000019BE  A$scene$3 |    000019BF  A$scene$3 |    000019C1  A$scene$3
     000019C2  A$scene$3 |    000019C3  A$scene$3 |    000019C4  A$scene$3
     000019C5  A$scene$3 |    000019C6  A$scene$3 |    000019C7  A$scene$3
     000019C8  A$scene$3 |    000019CA  A$scene$3 |    000019CB  A$scene$3
     000019CC  A$scene$3 |    000019CD  A$scene$3 |    000019CE  A$scene$3
     000019CF  A$scene$3 |    000019D0  A$scene$3 |    000019D1  A$scene$3
     000019D2  A$scene$3 |    000019D4  A$scene$3 |    000019D5  A$scene$3
     000019D6  A$scene$3 |    000019D7  A$scene$3 |    000019D8  A$scene$3
     000019DB  A$scene$3 |    000019DC  A$scene$3 |    000019DD  A$scene$3
     000019DE  A$scene$3 |    000019DF  A$scene$3 |    000019E0  A$scene$3
ASxxxx Linker V03.00 + NoICE + sdld,  page 31.
Hexadecimal  [32-Bits]

Area                       Addr        Size        Decimal Bytes (Attributes)
--------------------       ----        ----        ------- ----- ------------
_CODE                  00000200    000037D3 =       14291. bytes (REL,CON)

        Value  Global            Value  Global            Value  Global    
        -----  ------            -----  ------            -----  ------    
     000019E0  C$scene.c |    000019E2  A$scene$3 |    000019E4  A$scene$3
     000019E5  A$scene$3 |    000019E6  A$scene$3 |    000019E8  A$scene$3
     000019E9  A$scene$3 |    000019EA  A$scene$3 |    000019EB  A$scene$3
     000019EC  A$scene$3 |    000019ED  A$scene$3 |    000019EE  A$scene$3
     000019EF  A$scene$3 |    000019F0  A$scene$3 |    000019F2  A$scene$3
     000019F3  A$scene$3 |    000019F4  A$scene$3 |    000019F5  A$scene$3
     000019F6  A$scene$3 |    000019F7  A$scene$3 |    000019F8  A$scene$3
     000019F9  A$scene$3 |    000019FB  A$scene$4 |    000019FC  A$scene$4
     000019FD  A$scene$4 |    000019FE  A$scene$4 |    000019FF  A$scene$4
     00001A00  A$scene$4 |    00001A01  A$scene$4 |    00001A02  A$scene$4
     00001A03  A$scene$4 |    00001A05  A$scene$4 |    00001A06  A$scene$4
     00001A07  A$scene$4 |    00001A08  A$scene$4 |    00001A09  A$scene$4
     00001A0C  A$scene$4 |    00001A0D  A$scene$4 |    00001A0F  A$scene$4
     00001A0F  C$scene.c |    00001A12  A$scene$4 |    00001A14  A$scene$4
     00001A14  C$scene.c |    00001A16  A$scene$4 |    00001A17  A$scene$4
     00001A18  A$scene$4 |    00001A19  A$scene$4 |    00001A1A  A$scene$4
     00001A1A  C$scene.c |    00001A1C  A$scene$4 |    00001A1D  A$scene$4
     00001A1E  A$scene$4 |    00001A1F  A$scene$4 |    00001A21  A$scene$4
     00001A24  A$scene$4 |    00001A26  A$scene$4 |    00001A28  A$scene$4
     00001A29  A$scene$4 |    00001A2A  A$scene$4 |    00001A2B  A$scene$4
     00001A2C  A$scene$4 |    00001A2D  A$scene$4 |    00001A2E  A$scene$4
     00001A2F  A$scene$4 |    00001A30  A$scene$4 |    00001A31  A$scene$4
     00001A32  A$scene$4 |    00001A33  A$scene$4 |    00001A34  A$scene$4
     00001A35  A$scene$4 |    00001A36  A$scene$4 |    00001A37  A$scene$4
     00001A37  C$scene.c |    00001A39  A$scene$4 |    00001A3A  A$scene$4
     00001A3B  A$scene$4 |    00001A3D  A$scene$4 |    00001A3E  A$scene$4
     00001A3F  A$scene$4 |    00001A40  A$scene$4 |    00001A41  A$scene$4
     00001A42  A$scene$4 |    00001A43  A$scene$4 |    00001A44  A$scene$4
     00001A47  A$scene$4 |    00001A48  A$scene$4 |    00001A4B  A$scene$4
     00001A4C  A$scene$4 |    00001A4D  A$scene$4 |    00001A50  A$scene$4
     00001A52  A$scene$4 |    00001A53  A$scene$4 |    00001A53  C$scene.c
     00001A55  A$scene$4 |    00001A56  A$scene$4 |    00001A57  A$scene$4
     00001A58  A$scene$4 |    00001A59  A$scene$4 |    00001A5A  A$scene$4
     00001A5D  A$scene$4 |    00001A5E  A$scene$5 |    00001A5F  A$scene$5
     00001A61  A$scene$5 |    00001A62  A$scene$5 |    00001A63  A$scene$5
     00001A64  A$scene$5 |    00001A65  A$scene$5 |    00001A67  A$scene$5
     00001A68  A$scene$5 |    00001A69  A$scene$5 |    00001A6A  A$scene$5
     00001A6B  A$scene$5 |    00001A6C  A$scene$5 |    00001A6D  A$scene$5
     00001A6D  C$scene.c |    00001A6F  A$scene$5 |    00001A70  A$scene$5
     00001A71  A$scene$5 |    00001A72  A$scene$5 |    00001A73  A$scene$5
     00001A74  A$scene$5 |    00001A75  A$scene$5 |    00001A76  A$scene$5
     00001A77  A$scene$5 |    00001A79  A$scene$5 |    00001A7A  A$scene$5
     00001A7B  A$scene$5 |    00001A7C  A$scene$5 |    00001A7E  A$scene$5
     00001A7F  A$scene$5 |    00001A80  A$scene$5 |    00001A81  A$scene$5
     00001A82  A$scene$5 |    00001A83  A$scene$5 |    00001A84  A$scene$5
     00001A86  A$scene$5 |    00001A87  A$scene$5 |    00001A88  A$scene$5
     00001A89  A$scene$5 |    00001A8A  A$scene$5 |    00001A8B  A$scene$5
     00001A8C  A$scene$5 |    00001A8C  C$scene.c |    00001A8E  A$scene$5
     00001A8F  A$scene$5 |    00001A90  A$scene$5 |    00001A92  A$scene$5
     00001A93  A$scene$5 |    00001A94  A$scene$5 |    00001A97  A$scene$5
     00001A98  A$scene$5 |    00001A9A  A$scene$5 |    00001A9C  A$scene$5
ASxxxx Linker V03.00 + NoICE + sdld,  page 32.
Hexadecimal  [32-Bits]

Area                       Addr        Size        Decimal Bytes (Attributes)
--------------------       ----        ----        ------- ----- ------------
_CODE                  00000200    000037D3 =       14291. bytes (REL,CON)

        Value  Global            Value  Global            Value  Global    
        -----  ------            -----  ------            -----  ------    
     00001A9D  A$scene$5 |    00001A9F  A$scene$5 |    00001AA0  A$scene$5
     00001AA1  A$scene$5 |    00001AA2  A$scene$5 |    00001AA3  A$scene$5
     00001AA4  A$scene$5 |    00001AA7  A$scene$5 |    00001AA8  A$scene$5
     00001AA9  A$scene$5 |    00001AAA  A$scene$5 |    00001AAB  A$scene$5
     00001AAE  A$scene$5 |    00001AAF  A$scene$5 |    00001AB1  A$scene$5
     00001AB2  A$scene$5 |    00001AB3  A$scene$5 |    00001AB4  A$scene$5
     00001AB5  A$scene$5 |    00001AB6  A$scene$5 |    00001AB9  A$scene$5
     00001ABB  A$scene$5 |    00001ABC  A$scene$5 |    00001ABC  C$scene.c
     00001ABE  A$scene$5 |    00001ABF  A$scene$5 |    00001AC0  A$scene$5
     00001AC1  A$scene$5 |    00001AC2  A$scene$5 |    00001AC5  A$scene$5
     00001AC6  A$scene$5 |    00001AC9  A$scene$5 |    00001ACA  A$scene$5
     00001ACB  A$scene$6 |    00001ACE  A$scene$6 |    00001AD0  A$scene$6
     00001AD1  A$scene$6 |    00001AD1  C$scene.c |    00001AD3  A$scene$6
     00001AD4  A$scene$6 |    00001AD5  A$scene$6 |    00001AD6  A$scene$6
     00001AD7  A$scene$6 |    00001AD8  A$scene$6 |    00001ADB  A$scene$6
     00001ADC  A$scene$6 |    00001ADD  A$scene$6 |    00001ADF  A$scene$6
     00001AE0  A$scene$6 |    00001AE1  A$scene$6 |    00001AE2  A$scene$6
     00001AE3  A$scene$6 |    00001AE5  A$scene$6 |    00001AE6  A$scene$6
     00001AE7  A$scene$6 |    00001AE8  A$scene$6 |    00001AE9  A$scene$6
     00001AEA  A$scene$6 |    00001AEB  A$scene$6 |    00001AEB  C$scene.c
     00001AED  A$scene$6 |    00001AEE  A$scene$6 |    00001AEF  A$scene$6
     00001AF0  A$scene$6 |    00001AF1  A$scene$6 |    00001AF2  A$scene$6
     00001AF4  A$scene$6 |    00001AF5  A$scene$6 |    00001AF6  A$scene$6
     00001AF7  A$scene$6 |    00001AF8  A$scene$6 |    00001AF9  A$scene$6
     00001AFA  A$scene$6 |    00001AFA  C$scene.c |    00001AFC  A$scene$6
     00001AFD  A$scene$6 |    00001AFE  A$scene$6 |    00001B00  A$scene$6
     00001B01  A$scene$6 |    00001B02  A$scene$6 |    00001B05  A$scene$6
     00001B06  A$scene$6 |    00001B07  A$scene$6 |    00001B08  A$scene$6
     00001B09  A$scene$6 |    00001B0B  A$scene$6 |    00001B0C  A$scene$6
     00001B0E  A$scene$6 |    00001B0F  A$scene$6 |    00001B10  A$scene$6
     00001B11  A$scene$6 |    00001B12  A$scene$6 |    00001B13  A$scene$6
     00001B16  A$scene$6 |    00001B17  A$scene$6 |    00001B18  A$scene$6
     00001B19  A$scene$6 |    00001B1A  A$scene$6 |    00001B1D  A$scene$6
     00001B1E  A$scene$6 |    00001B20  A$scene$6 |    00001B21  A$scene$6
     00001B22  A$scene$6 |    00001B23  A$scene$6 |    00001B24  A$scene$6
     00001B25  A$scene$6 |    00001B28  A$scene$6 |    00001B2A  A$scene$6
     00001B2B  A$scene$6 |    00001B2B  C$scene.c |    00001B2D  A$scene$6
     00001B2E  A$scene$6 |    00001B2F  A$scene$6 |    00001B30  A$scene$7
     00001B33  A$scene$7 |    00001B34  A$scene$7 |    00001B36  A$scene$7
     00001B37  A$scene$7 |    00001B38  A$scene$7 |    00001B39  A$scene$7
     00001B3A  A$scene$7 |    00001B3D  A$scene$7 |    00001B3E  A$scene$7
     00001B3F  A$scene$7 |    00001B40  A$scene$7 |    00001B43  A$scene$7
     00001B44  A$scene$7 |    00001B45  A$scene$7 |    00001B46  A$scene$7
     00001B49  A$scene$7 |    00001B4B  A$scene$7 |    00001B4C  A$scene$7
     00001B4C  C$scene.c |    00001B4E  A$scene$7 |    00001B4F  A$scene$7
     00001B50  A$scene$7 |    00001B51  A$scene$7 |    00001B54  A$scene$7
     00001B55  A$scene$7 |    00001B57  A$scene$7 |    00001B58  A$scene$7
     00001B59  A$scene$7 |    00001B5A  A$scene$7 |    00001B5B  A$scene$7
     00001B5E  A$scene$7 |    00001B5F  A$scene$7 |    00001B60  A$scene$7
     00001B61  A$scene$7 |    00001B62  A$scene$7 |    00001B63  A$scene$7
     00001B66  A$scene$7 |    00001B67  A$scene$7 |    00001B68  A$scene$7
ASxxxx Linker V03.00 + NoICE + sdld,  page 33.
Hexadecimal  [32-Bits]

Area                       Addr        Size        Decimal Bytes (Attributes)
--------------------       ----        ----        ------- ----- ------------
_CODE                  00000200    000037D3 =       14291. bytes (REL,CON)

        Value  Global            Value  Global            Value  Global    
        -----  ------            -----  ------            -----  ------    
     00001B69  A$scene$7 |    00001B6C  A$scene$7 |    00001B6E  A$scene$7
     00001B6F  A$scene$7 |    00001B6F  C$scene.c |    00001B71  A$scene$7
     00001B72  A$scene$7 |    00001B73  A$scene$7 |    00001B74  A$scene$7
     00001B77  A$scene$7 |    00001B78  A$scene$7 |    00001B7A  A$scene$7
     00001B7B  A$scene$7 |    00001B7C  A$scene$7 |    00001B7D  A$scene$7
     00001B7E  A$scene$7 |    00001B81  A$scene$7 |    00001B82  A$scene$7
     00001B83  A$scene$7 |    00001B84  A$scene$7 |    00001B85  A$scene$7
     00001B86  A$scene$7 |    00001B87  A$scene$7 |    00001B88  A$scene$7
     00001B8B  A$scene$7 |    00001B8C  A$scene$7 |    00001B8D  A$scene$7
     00001B8E  A$scene$7 |    00001B91  A$scene$7 |    00001B93  A$scene$7
     00001B94  A$scene$7 |    00001B94  C$scene.c |    00001B96  A$scene$7
     00001B97  A$scene$7 |    00001B98  A$scene$7 |    00001B99  A$scene$7
     00001B9C  A$scene$7 |    00001B9D  A$scene$7 |    00001B9F  A$scene$8
     00001BA0  A$scene$8 |    00001BA1  A$scene$8 |    00001BA2  A$scene$8
     00001BA3  A$scene$8 |    00001BA6  A$scene$8 |    00001BA7  A$scene$8
     00001BAA  A$scene$8 |    00001BAB  A$scene$8 |    00001BAC  A$scene$8
     00001BAD  A$scene$8 |    00001BB0  A$scene$8 |    00001BB1  A$scene$8
     00001BB2  A$scene$8 |    00001BB3  A$scene$8 |    00001BB6  A$scene$8
     00001BB8  A$scene$8 |    00001BB9  A$scene$8 |    00001BB9  C$scene.c
     00001BBC  A$scene$8 |    00001BBD  A$scene$8 |    00001BBE  A$scene$8
     00001BC0  A$scene$8 |    00001BC3  A$scene$8 |    00001BC3  C$scene.c
     00001BC5  A$scene$8 |    00001BC6  A$scene$8 |    00001BC7  A$scene$8
     00001BC8  A$scene$8 |    00001BC9  A$scene$8 |    00001BCC  A$scene$8
     00001BCD  A$scene$8 |    00001BCE  A$scene$8 |    00001BD1  A$scene$8
     00001BD2  A$scene$8 |    00001BD5  A$scene$8 |    00001BD7  A$scene$8
     00001BD8  A$scene$8 |    00001BD8  C$scene.c |    00001BDA  A$scene$8
     00001BDB  A$scene$8 |    00001BDC  A$scene$8 |    00001BDD  A$scene$8
     00001BDE  A$scene$8 |    00001BE1  A$scene$8 |    00001BE2  A$scene$8
     00001BE3  A$scene$8 |    00001BE6  A$scene$8 |    00001BE7  A$scene$8
     00001BEA  A$scene$8 |    00001BEC  A$scene$8 |    00001BED  A$scene$8
     00001BED  C$scene.c |    00001BEF  A$scene$8 |    00001BF0  A$scene$8
     00001BF1  A$scene$8 |    00001BF2  A$scene$8 |    00001BF3  A$scene$8
     00001BF6  A$scene$8 |    00001BF7  A$scene$8 |    00001BF8  A$scene$8
     00001BFB  A$scene$8 |    00001BFC  A$scene$8 |    00001BFF  A$scene$8
     00001C01  A$scene$8 |    00001C02  A$scene$8 |    00001C02  C$scene.c
     00001C03  A$scene$8 |    00001C04  A$scene$8 |    00001C05  A$scene$8
     00001C08  A$scene$8 |    00001C09  A$scene$8 |    00001C0A  A$scene$8
     00001C0D  A$scene$8 |    00001C0E  A$scene$8 |    00001C11  A$scene$8
     00001C13  A$scene$8 |    00001C14  A$scene$8 |    00001C14  C$scene.c
     00001C15  A$scene$8 |    00001C16  A$scene$8 |    00001C17  A$scene$8
     00001C1A  A$scene$8 |    00001C1B  A$scene$8 |    00001C1C  A$scene$8
     00001C1F  A$scene$8 |    00001C20  A$scene$8 |    00001C23  A$scene$8
     00001C25  A$scene$9 |    00001C26  A$scene$9 |    00001C26  C$scene.c
     00001C27  A$scene$9 |    00001C28  A$scene$9 |    00001C29  A$scene$9
     00001C2C  A$scene$9 |    00001C2D  A$scene$9 |    00001C2E  A$scene$9
     00001C31  A$scene$9 |    00001C32  A$scene$9 |    00001C35  A$scene$9
     00001C37  A$scene$9 |    00001C38  A$scene$9 |    00001C38  C$scene.c
     00001C39  A$scene$9 |    00001C3A  A$scene$9 |    00001C3B  A$scene$9
     00001C3E  A$scene$9 |    00001C3F  A$scene$9 |    00001C40  A$scene$9
     00001C43  A$scene$9 |    00001C44  A$scene$9 |    00001C47  A$scene$9
     00001C49  A$scene$9 |    00001C4A  A$scene$9 |    00001C4A  C$scene.c
ASxxxx Linker V03.00 + NoICE + sdld,  page 34.
Hexadecimal  [32-Bits]

Area                       Addr        Size        Decimal Bytes (Attributes)
--------------------       ----        ----        ------- ----- ------------
_CODE                  00000200    000037D3 =       14291. bytes (REL,CON)

        Value  Global            Value  Global            Value  Global    
        -----  ------            -----  ------            -----  ------    
     00001C4B  A$scene$9 |    00001C4C  A$scene$9 |    00001C4D  A$scene$9
     00001C50  A$scene$9 |    00001C51  A$scene$9 |    00001C52  A$scene$9
     00001C55  A$scene$9 |    00001C56  A$scene$9 |    00001C59  A$scene$9
     00001C5B  A$scene$9 |    00001C5C  A$scene$9 |    00001C5C  C$scene.c
     00001C5D  A$scene$9 |    00001C5E  A$scene$9 |    00001C5F  A$scene$9
     00001C62  A$scene$9 |    00001C63  A$scene$9 |    00001C64  A$scene$9
     00001C67  A$scene$9 |    00001C68  A$scene$9 |    00001C6B  A$scene$9
     00001C6D  A$scene$9 |    00001C6E  A$scene$9 |    00001C6E  C$scene.c
     00001C70  A$scene$9 |    00001C71  A$scene$9 |    00001C72  A$scene$9
     00001C73  A$scene$9 |    00001C74  A$scene$9 |    00001C77  A$scene$9
     00001C78  A$scene$9 |    00001C79  A$scene$9 |    00001C7C  A$scene$9
     00001C7D  A$scene$9 |    00001C80  A$scene$9 |    00001C82  A$scene$9
     00001C83  A$scene$9 |    00001C83  C$scene.c |    00001C84  A$scene$9
     00001C85  A$scene$9 |    00001C86  A$scene$9 |    00001C89  A$scene$9
     00001C8A  A$scene$9 |    00001C8B  A$scene$9 |    00001C8E  A$scene$9
     00001C8F  A$scene$9 |    00001C92  A$scene$9 |    00001C94  A$scene$9
     00001C95  A$scene$9 |    00001C95  C$scene.c |    00001C96  A$scene$9
     00001C97  A$scene$9 |    00001C98  A$scene$9 |    00001C9B  A$scene$9
     00001C9C  A$scene$9 |    00001C9D  A$scene$9 |    00001CA0  A$scene$9
     00001CA1  A$scene$9 |    00001CA4  A$scene$9 |    00001CA6  A$scene$1
     00001CA7  A$scene$1 |    00001CA7  C$scene.c |    00001CA8  A$scene$1
     00001CA9  A$scene$1 |    00001CAA  A$scene$1 |    00001CAD  A$scene$1
     00001CAE  A$scene$1 |    00001CAF  A$scene$1 |    00001CB2  A$scene$1
     00001CB3  A$scene$1 |    00001CB6  A$scene$1 |    00001CB8  A$scene$1
     00001CB9  A$scene$1 |    00001CB9  C$scene.c |    00001CBA  A$scene$1
     00001CBB  A$scene$1 |    00001CBC  A$scene$1 |    00001CBF  A$scene$1
     00001CC0  A$scene$1 |    00001CC1  A$scene$1 |    00001CC4  A$scene$1
     00001CC5  A$scene$1 |    00001CC8  A$scene$1 |    00001CCA  A$scene$1
     00001CCB  A$scene$1 |    00001CCB  C$scene.c |    00001CCC  A$scene$1
     00001CCD  A$scene$1 |    00001CCE  A$scene$1 |    00001CD1  A$scene$1
     00001CD2  A$scene$1 |    00001CD3  A$scene$1 |    00001CD6  A$scene$1
     00001CD7  A$scene$1 |    00001CDA  A$scene$1 |    00001CDC  A$scene$1
     00001CDD  A$scene$1 |    00001CDD  C$scene.c |    00001CDE  A$scene$1
     00001CDF  A$scene$1 |    00001CE0  A$scene$1 |    00001CE3  A$scene$1
     00001CE4  A$scene$1 |    00001CE5  A$scene$1 |    00001CE8  A$scene$1
     00001CE9  A$scene$1 |    00001CEC  A$scene$1 |    00001CEE  A$scene$1
     00001CEF  A$scene$1 |    00001CEF  C$scene.c |    00001CF0  A$scene$1
     00001CF1  A$scene$1 |    00001CF2  A$scene$1 |    00001CF5  A$scene$1
     00001CF6  A$scene$1 |    00001CF7  A$scene$1 |    00001CFA  A$scene$1
     00001CFB  A$scene$1 |    00001CFE  A$scene$1 |    00001D00  A$scene$1
     00001D01  A$scene$1 |    00001D01  C$scene.c |    00001D02  A$scene$1
     00001D03  A$scene$1 |    00001D04  A$scene$1 |    00001D07  A$scene$1
     00001D08  A$scene$1 |    00001D09  A$scene$1 |    00001D0C  A$scene$1
     00001D0D  A$scene$1 |    00001D10  A$scene$1 |    00001D12  A$scene$1
     00001D13  A$scene$1 |    00001D13  C$scene.c |    00001D14  A$scene$1
     00001D15  A$scene$1 |    00001D16  A$scene$1 |    00001D19  A$scene$1
     00001D1A  A$scene$1 |    00001D1B  A$scene$1 |    00001D1E  A$scene$1
     00001D1F  A$scene$1 |    00001D22  A$scene$1 |    00001D24  A$scene$1
     00001D25  A$scene$1 |    00001D25  C$scene.c |    00001D26  A$scene$1
     00001D27  A$scene$1 |    00001D28  A$scene$1 |    00001D2B  A$scene$1
     00001D2C  A$scene$1 |    00001D2D  A$scene$1 |    00001D30  A$scene$1
ASxxxx Linker V03.00 + NoICE + sdld,  page 35.
Hexadecimal  [32-Bits]

Area                       Addr        Size        Decimal Bytes (Attributes)
--------------------       ----        ----        ------- ----- ------------
_CODE                  00000200    000037D3 =       14291. bytes (REL,CON)

        Value  Global            Value  Global            Value  Global    
        -----  ------            -----  ------            -----  ------    
     00001D31  A$scene$1 |    00001D34  A$scene$1 |    00001D36  A$scene$1
     00001D37  A$scene$1 |    00001D37  C$scene.c |    00001D38  A$scene$1
     00001D39  A$scene$1 |    00001D3A  A$scene$1 |    00001D3D  A$scene$1
     00001D3E  A$scene$1 |    00001D3F  A$scene$1 |    00001D42  A$scene$1
     00001D43  A$scene$1 |    00001D46  A$scene$1 |    00001D48  A$scene$1
     00001D49  A$scene$1 |    00001D49  C$scene.c |    00001D4A  A$scene$1
     00001D4B  A$scene$1 |    00001D4C  A$scene$1 |    00001D4F  A$scene$1
     00001D50  A$scene$1 |    00001D51  A$scene$1 |    00001D54  A$scene$1
     00001D55  A$scene$1 |    00001D58  A$scene$1 |    00001D5A  A$scene$1
     00001D5B  A$scene$1 |    00001D5B  C$scene.c |    00001D5C  A$scene$1
     00001D5D  A$scene$1 |    00001D5E  A$scene$1 |    00001D61  A$scene$1
     00001D62  A$scene$1 |    00001D63  A$scene$1 |    00001D66  A$scene$1
     00001D67  A$scene$1 |    00001D6A  A$scene$1 |    00001D6C  A$scene$1
     00001D6D  A$scene$1 |    00001D6D  C$scene.c |    00001D70  A$scene$1
     00001D71  A$scene$1 |    00001D72  A$scene$1 |    00001D75  A$scene$1
     00001D76  A$scene$1 |    00001D79  A$scene$1 |    00001D7B  A$scene$1
     00001D7B  C$scene.c |    00001D7E  A$scene$1 |    00001D80  A$scene$1
     00001D80  C$scene.c |    00001D83  A$scene$1 |    00001D85  A$scene$1
     00001D85  C$scene.c |    00001D88  A$scene$1 |    00001D8A  A$scene$1
     00001D8A  C$scene.c |    00001D8D  A$scene$1 |    00001D8F  A$scene$1
     00001D8F  C$scene.c |    00001D92  A$scene$1 |    00001D94  A$scene$1
     00001D94  C$scene.c |    00001D97  A$scene$1 |    00001D99  A$scene$1
     00001D99  C$scene.c |    00001D9C  A$scene$1 |    00001D9E  A$scene$1
     00001D9E  C$scene.c |    00001DA1  A$scene$1 |    00001DA3  A$scene$1
     00001DA3  C$scene.c |    00001DA6  A$scene$1 |    00001DA7  A$scene$1
     00001DAA  A$scene$1 |    00001DAB  A$scene$1 |    00001DAE  A$scene$1
     00001DB0  A$scene$1 |    00001DB0  C$scene.c |    00001DB3  A$scene$1
     00001DB5  A$scene$1 |    00001DB5  C$scene.c |    00001DB8  A$scene$1
     00001DBA  A$scene$1 |    00001DBA  C$scene.c |    00001DBD  A$scene$1
     00001DBF  A$scene$1 |    00001DBF  C$scene.c |    00001DC2  A$scene$1
     00001DC4  A$scene$1 |    00001DC5  A$scene$1 |    00001DC8  A$scene$1
     00001DCA  A$scene$1 |    00001DCD  A$scene$1 |    00001DD0  A$scene$1
     00001DD1  A$scene$1 |    00001DD2  A$scene$1 |    00001DD5  A$scene$1
     00001DD6  A$scene$1 |    00001DD7  A$scene$1 |    00001DD9  A$scene$1
     00001DDC  A$scene$1 |    00001DDE  A$scene$1 |    00001DE1  A$scene$1
     00001DE4  A$scene$1 |    00001DE5  A$scene$1 |    00001DE8  A$scene$1
     00001DE9  A$scene$1 |    00001DEB  A$scene$1 |    00001DEE  A$scene$1
     00001DF0  A$scene$1 |    00001DF3  A$scene$1 |    00001DF6  A$scene$1
     00001DF7  A$scene$1 |    00001DF8  A$scene$1 |    00001DFB  A$scene$1
     00001DFC  A$scene$1 |    00001DFD  A$scene$1 |    00001DFF  A$scene$1
     00001E02  A$scene$1 |    00001E04  A$scene$1 |    00001E05  A$scene$1
     00001E08  A$scene$1 |    00001E09  A$scene$1 |    00001E0C  A$scene$1
     00001E0D  A$scene$1 |    00001E0F  A$scene$1 |    00001E0F  C$scene.c
     00001E12  A$scene$1 |    00001E14  A$scene$1 |    00001E14  C$scene.c
     00001E17  A$scene$1 |    00001E19  A$scene$1 |    00001E19  C$scene.c
     00001E1C  A$scene$1 |    00001E1E  A$scene$1 |    00001E20  A$scene$1
     00001E20  C$scene.c |    00001E20  XG$scene_ |    00001E21  G$bot_inf
     00001E21  _bot_info |    00001E57  G$top_inf |    00001E57  _top_info
     00001E84  G$travers |    00001E84  _traversa |    00001E88  G$travers
     00001E88  _traversa |    00001E8C  G$bulky_b |    00001E8C  _bulky_bo
     00001E90  G$bulky_t |    00001E90  _bulky_to |    00001E94  G$all_top
ASxxxx Linker V03.00 + NoICE + sdld,  page 36.
Hexadecimal  [32-Bits]

Area                       Addr        Size        Decimal Bytes (Attributes)
--------------------       ----        ----        ------- ----- ------------
_CODE                  00000200    000037D3 =       14291. bytes (REL,CON)

        Value  Global            Value  Global            Value  Global    
        -----  ------            -----  ------            -----  ------    
     00001E94  _all_tops |    00001E9C  G$all_bot |    00001E9C  _all_bots
     00001EA4  G$possibl |    00001EA4  _possible |    00001EA6  A$scene$1
     00001EA6  C$scene.c |    00001EA6  C$scene.c |    00001EA6  G$compute
     00001EA6  _compute_ |    00001EA9  A$scene$1 |    00001EAB  A$scene$1
     00001EAC  A$scene$1 |    00001EAE  A$scene$1 |    00001EAF  A$scene$1
     00001EB1  A$scene$1 |    00001EB2  A$scene$1 |    00001EB4  A$scene$1
     00001EB4  C$scene.c |    00001EB7  A$scene$1 |    00001EB9  A$scene$1
     00001EBB  A$scene$1 |    00001EBE  A$scene$1 |    00001EBE  C$scene.c
     00001EC1  A$scene$1 |    00001EC1  C$scene.c |    00001EC1  C$scene.c
     00001EC1  XG$comput |    00001EC4  A$scene$1 |    00001EC4  C$scene.c
     00001EC4  C$scene.c |    00001EC4  G$move_ca |    00001EC4  _move_cam
     00001EC7  A$scene$1 |    00001EC9  A$scene$1 |    00001ECA  A$scene$1
     00001ECA  C$scene.c |    00001ECD  A$scene$1 |    00001ECE  A$scene$1
     00001ECE  C$scene.c |    00001ED1  A$scene$1 |    00001ED2  A$scene$1
     00001ED2  C$scene.c |    00001ED5  A$scene$1 |    00001ED6  A$scene$1
     00001ED8  A$scene$1 |    00001EDA  A$scene$1 |    00001EDC  A$scene$1
     00001EDF  A$scene$1 |    00001EE0  A$scene$1 |    00001EE1  A$scene$1
     00001EE3  A$scene$1 |    00001EE3  C$scene.c |    00001EE5  A$scene$1
     00001EE5  C$scene.c |    00001EE8  A$scene$1 |    00001EE9  A$scene$1
     00001EE9  C$scene.c |    00001EEC  A$scene$1 |    00001EEC  C$scene.c
     00001EEF  A$scene$1 |    00001EEF  C$scene.c |    00001EF2  A$scene$1
     00001EF3  A$scene$1 |    00001EF4  A$scene$1 |    00001EF6  A$scene$1
     00001EF9  A$scene$1 |    00001EFA  A$scene$1 |    00001EFB  A$scene$1
     00001EFB  C$scene.c |    00001EFC  A$scene$1 |    00001EFC  C$scene.c
     00001EFC  XG$move_c |    00001EFD  A$scene$1 |    00001EFD  C$scene.c
     00001EFD  G$set_cam |    00001EFD  _set_came |    00001F00  A$scene$1
     00001F01  A$scene$1 |    00001F03  A$scene$1 |    00001F05  A$scene$1
     00001F06  A$scene$1 |    00001F08  A$scene$1 |    00001F08  C$scene.c
     00001F09  A$scene$1 |    00001F0B  A$scene$1 |    00001F0C  A$scene$1
     00001F0E  A$scene$1 |    00001F10  A$scene$1 |    00001F12  A$scene$1
     00001F14  A$scene$1 |    00001F16  A$scene$1 |    00001F18  A$scene$1
     00001F19  A$scene$1 |    00001F1B  A$scene$1 |    00001F1C  A$scene$1
     00001F1E  A$scene$1 |    00001F20  A$scene$1 |    00001F22  A$scene$1
     00001F24  A$scene$1 |    00001F26  A$scene$1 |    00001F28  A$scene$1
     00001F2A  A$scene$1 |    00001F2D  A$scene$1 |    00001F2E  A$scene$1
     00001F2E  C$scene.c |    00001F31  A$scene$1 |    00001F33  A$scene$1
     00001F34  A$scene$1 |    00001F36  A$scene$1 |    00001F37  A$scene$1
     00001F39  A$scene$1 |    00001F3B  A$scene$1 |    00001F3D  A$scene$1
     00001F3F  A$scene$1 |    00001F41  A$scene$1 |    00001F43  A$scene$1
     00001F45  A$scene$1 |    00001F48  A$scene$1 |    00001F49  A$scene$1
     00001F49  C$scene.c |    00001F4C  A$scene$1 |    00001F4F  A$scene$1
     00001F50  A$scene$1 |    00001F51  A$scene$1 |    00001F51  C$scene.c
     00001F54  A$scene$1 |    00001F54  C$scene.c |    00001F57  A$scene$1
     00001F58  A$scene$1 |    00001F5B  A$scene$1 |    00001F5B  C$scene.c
     00001F5B  XG$set_ca |    00001F5C  A$scene$1 |    00001F5C  C$scene.c
     00001F5C  G$move_sp |    00001F5C  _move_spr |    00001F5F  A$scene$1
     00001F61  A$scene$1 |    00001F61  C$scene.c |    00001F64  A$scene$1
     00001F65  A$scene$1 |    00001F66  A$scene$1 |    00001F69  A$scene$1
     00001F6A  A$scene$1 |    00001F6B  A$scene$1 |    00001F6D  A$scene$1
     00001F6F  A$scene$1 |    00001F70  A$scene$1 |    00001F72  A$scene$1
     00001F73  A$scene$1 |    00001F75  A$scene$1 |    00001F78  A$scene$1
ASxxxx Linker V03.00 + NoICE + sdld,  page 37.
Hexadecimal  [32-Bits]

Area                       Addr        Size        Decimal Bytes (Attributes)
--------------------       ----        ----        ------- ----- ------------
_CODE                  00000200    000037D3 =       14291. bytes (REL,CON)

        Value  Global            Value  Global            Value  Global    
        -----  ------            -----  ------            -----  ------    
     00001F7B  A$scene$1 |    00001F7D  A$scene$1 |    00001F7E  A$scene$1
     00001F80  A$scene$1 |    00001F81  A$scene$1 |    00001F82  A$scene$1
     00001F83  A$scene$1 |    00001F86  A$scene$1 |    00001F87  A$scene$1
     00001F88  A$scene$1 |    00001F89  A$scene$1 |    00001F8A  A$scene$1
     00001F8A  C$scene.c |    00001F8C  A$scene$1 |    00001F8D  A$scene$1
     00001F8F  A$scene$1 |    00001F8F  C$scene.c |    00001F91  A$scene$1
     00001F94  A$scene$1 |    00001F95  A$scene$1 |    00001F96  A$scene$1
     00001F98  A$scene$1 |    00001F9A  A$scene$1 |    00001F9B  A$scene$1
     00001F9C  A$scene$1 |    00001F9D  A$scene$1 |    00001F9E  A$scene$1
     00001F9F  A$scene$1 |    00001FA0  A$scene$1 |    00001FA3  A$scene$1
     00001FA4  A$scene$1 |    00001FA5  A$scene$1 |    00001FA6  A$scene$1
     00001FA8  A$scene$1 |    00001FAA  A$scene$1 |    00001FAB  A$scene$1
     00001FAD  A$scene$1 |    00001FAE  A$scene$1 |    00001FB0  A$scene$1
     00001FB1  A$scene$1 |    00001FB2  A$scene$1 |    00001FB3  A$scene$1
     00001FB3  C$scene.c |    00001FB6  A$scene$1 |    00001FB7  A$scene$1
     00001FB9  A$scene$1 |    00001FBB  A$scene$1 |    00001FBB  C$scene.c
     00001FBE  A$scene$1 |    00001FBF  A$scene$1 |    00001FC1  A$scene$1
     00001FC4  A$scene$1 |    00001FC5  A$scene$1 |    00001FC6  A$scene$1
     00001FC7  A$scene$1 |    00001FCA  A$scene$1 |    00001FCB  A$scene$1
     00001FCD  A$scene$1 |    00001FCD  C$scene.c |    00001FCF  A$scene$1
     00001FCF  C$scene.c |    00001FD2  A$scene$1 |    00001FD5  A$scene$1
     00001FD6  A$scene$1 |    00001FD8  A$scene$1 |    00001FDB  A$scene$1
     00001FDC  A$scene$1 |    00001FDD  A$scene$1 |    00001FDE  A$scene$1
     00001FDF  A$scene$1 |    00001FE0  A$scene$1 |    00001FE1  A$scene$1
     00001FE3  A$scene$1 |    00001FE6  A$scene$1 |    00001FE7  A$scene$1
     00001FE8  A$scene$1 |    00001FEA  A$scene$1 |    00001FEC  A$scene$1
     00001FED  A$scene$1 |    00001FEE  A$scene$1 |    00001FF1  A$scene$1
     00001FF2  A$scene$1 |    00001FF3  A$scene$1 |    00001FF3  C$scene.c
     00001FF5  A$scene$1 |    00001FF8  A$scene$1 |    00001FF9  A$scene$1
     00001FFA  A$scene$1 |    00001FFC  A$scene$1 |    00001FFE  A$scene$1
     00001FFF  A$scene$1 |    00002000  A$scene$1 |    00002003  A$scene$1
     00002004  A$scene$1 |    00002006  A$scene$1 |    00002008  A$scene$1
     0000200A  A$scene$1 |    0000200C  A$scene$1 |    0000200C  C$scene.c
     0000200F  A$scene$1 |    00002010  A$scene$1 |    00002011  A$scene$1
     00002012  A$scene$1 |    00002013  A$scene$1 |    00002014  A$scene$1
     00002016  A$scene$1 |    00002017  A$scene$1 |    00002019  A$scene$1
     0000201A  A$scene$1 |    0000201B  A$scene$1 |    0000201D  A$scene$1
     00002020  A$scene$1 |    00002021  A$scene$1 |    00002022  A$scene$1
     00002022  C$scene.c |    00002024  A$scene$1 |    00002025  A$scene$1
     00002027  A$scene$1 |    00002028  A$scene$1 |    00002029  A$scene$1
     0000202B  A$scene$1 |    0000202C  A$scene$1 |    0000202F  A$scene$1
     00002030  A$scene$1 |    00002031  A$scene$1 |    00002032  A$scene$1
     00002034  A$scene$1 |    00002035  A$scene$1 |    00002037  A$scene$1
     00002038  A$scene$1 |    00002039  A$scene$1 |    0000203A  A$scene$1
     0000203D  A$scene$1 |    0000203E  A$scene$1 |    00002040  A$scene$1
     00002040  C$scene.c |    00002040  C$scene.c |    00002043  A$scene$1
     00002044  A$scene$1 |    00002045  A$scene$1 |    00002047  A$scene$1
     0000204A  A$scene$1 |    0000204A  C$scene.c |    0000204A  XG$move_s
     0000204B  A$scene$1 |    0000204B  C$scene.c |    0000204B  C$scene.c
     0000204B  G$animate |    0000204B  _animate_ |    0000204E  A$scene$1
     0000204F  A$scene$1 |    0000204F  C$scene.c |    00002052  A$scene$1
ASxxxx Linker V03.00 + NoICE + sdld,  page 38.
Hexadecimal  [32-Bits]

Area                       Addr        Size        Decimal Bytes (Attributes)
--------------------       ----        ----        ------- ----- ------------
_CODE                  00000200    000037D3 =       14291. bytes (REL,CON)

        Value  Global            Value  Global            Value  Global    
        -----  ------            -----  ------            -----  ------    
     00002053  A$scene$1 |    00002054  A$scene$1 |    00002057  A$scene$1
     00002059  A$scene$1 |    00002059  C$scene.c |    0000205A  A$scene$1
     0000205A  C$scene.c |    0000205D  A$scene$1 |    0000205E  A$scene$1
     00002060  A$scene$1 |    00002061  A$scene$1 |    00002061  C$scene.c
     00002063  A$scene$1 |    00002063  C$scene.c |    00002066  A$scene$1
     00002067  A$scene$1 |    00002068  A$scene$1 |    00002069  A$scene$1
     0000206B  A$scene$1 |    0000206C  A$scene$1 |    0000206C  C$scene.c
     0000206D  A$scene$1 |    0000206E  A$scene$1 |    0000206F  A$scene$1
     00002070  A$scene$1 |    00002071  A$scene$1 |    00002073  A$scene$1
     00002074  A$scene$1 |    00002075  A$scene$1 |    00002075  C$scene.c
     00002076  A$scene$1 |    00002078  A$scene$1 |    0000207A  A$scene$1
     0000207B  A$scene$1 |    0000207C  A$scene$1 |    0000207C  C$scene.c
     0000207D  A$scene$1 |    0000207F  A$scene$1 |    00002081  A$scene$1
     00002082  A$scene$1 |    00002083  A$scene$1 |    00002084  A$scene$1
     00002085  A$scene$1 |    00002087  A$scene$1 |    00002089  A$scene$1
     0000208A  A$scene$1 |    0000208D  A$scene$1 |    0000208E  A$scene$1
     00002091  A$scene$1 |    00002092  A$scene$1 |    00002093  A$scene$1
     00002094  A$scene$1 |    00002096  A$scene$1 |    00002098  A$scene$1
     00002099  A$scene$1 |    0000209C  A$scene$1 |    0000209D  A$scene$1
     000020A0  A$scene$1 |    000020A1  A$scene$1 |    000020A2  A$scene$1
     000020A3  A$scene$1 |    000020A5  A$scene$1 |    000020A7  A$scene$1
     000020A8  A$scene$1 |    000020AB  A$scene$1 |    000020AC  A$scene$1
     000020AF  A$scene$1 |    000020B0  A$scene$1 |    000020B2  A$scene$1
     000020B4  A$scene$1 |    000020B5  A$scene$1 |    000020B8  A$scene$1
     000020B9  A$scene$1 |    000020B9  C$scene.c |    000020B9  C$scene.c
     000020B9  XG$animat |    000020BA  A$scene$2 |    000020BA  C$scene.c
     000020BA  G$gen_new |    000020BA  _gen_new_ |    000020BC  A$scene$2
     000020BC  C$scene.c |    000020BF  A$scene$2 |    000020C1  A$scene$2
     000020C3  A$scene$2 |    000020C3  C$scene.c |    000020C6  A$scene$2
     000020C7  A$scene$2 |    000020C9  A$scene$2 |    000020CA  A$scene$2
     000020CD  A$scene$2 |    000020CE  A$scene$2 |    000020CE  C$scene.c
     000020D1  A$scene$2 |    000020D3  A$scene$2 |    000020D3  C$scene.c
     000020D6  A$scene$2 |    000020D8  A$scene$2 |    000020D9  A$scene$2
     000020DB  A$scene$2 |    000020DC  A$scene$2 |    000020DE  A$scene$2
     000020DF  A$scene$2 |    000020E1  A$scene$2 |    000020E1  C$scene.c
     000020E4  A$scene$2 |    000020E6  A$scene$2 |    000020E6  C$scene.c
     000020E9  A$scene$2 |    000020EA  A$scene$2 |    000020EC  A$scene$2
     000020ED  A$scene$2 |    000020ED  C$scene.c |    000020F0  A$scene$2
     000020F2  A$scene$2 |    000020F2  C$scene.c |    000020F5  A$scene$2
     000020F7  A$scene$2 |    000020F9  A$scene$2 |    000020F9  C$scene.c
     000020FC  A$scene$2 |    000020FF  A$scene$2 |    00002100  A$scene$2
     00002101  A$scene$2 |    00002102  A$scene$2 |    00002103  A$scene$2
     00002104  A$scene$2 |    00002106  A$scene$2 |    00002107  A$scene$2
     00002108  A$scene$2 |    0000210A  A$scene$2 |    0000210B  A$scene$2
     0000210C  A$scene$2 |    0000210D  A$scene$2 |    0000210F  A$scene$2
     00002110  A$scene$2 |    00002113  A$scene$2 |    00002115  A$scene$2
     00002115  C$scene.c |    00002118  A$scene$2 |    00002119  A$scene$2
     0000211B  A$scene$2 |    0000211E  A$scene$2 |    00002120  A$scene$2
     00002120  C$scene.c |    00002123  A$scene$2 |    00002124  A$scene$2
     00002125  A$scene$2 |    00002126  A$scene$2 |    00002126  C$scene.c
     00002127  A$scene$2 |    00002129  A$scene$2 |    0000212A  A$scene$2
ASxxxx Linker V03.00 + NoICE + sdld,  page 39.
Hexadecimal  [32-Bits]

Area                       Addr        Size        Decimal Bytes (Attributes)
--------------------       ----        ----        ------- ----- ------------
_CODE                  00000200    000037D3 =       14291. bytes (REL,CON)

        Value  Global            Value  Global            Value  Global    
        -----  ------            -----  ------            -----  ------    
     0000212D  A$scene$2 |    0000212E  A$scene$2 |    00002131  A$scene$2
     00002132  A$scene$2 |    00002133  A$scene$2 |    00002135  A$scene$2
     00002136  A$scene$2 |    00002139  A$scene$2 |    0000213B  A$scene$2
     0000213E  A$scene$2 |    00002140  A$scene$2 |    00002142  A$scene$2
     00002143  A$scene$2 |    00002144  A$scene$2 |    00002146  A$scene$2
     00002147  A$scene$2 |    00002148  A$scene$2 |    00002148  C$scene.c
     0000214A  A$scene$2 |    0000214D  A$scene$2 |    0000214E  A$scene$2
     0000214F  A$scene$2 |    00002151  A$scene$2 |    00002153  A$scene$2
     00002154  A$scene$2 |    00002155  A$scene$2 |    00002157  A$scene$2
     00002159  A$scene$2 |    0000215A  A$scene$2 |    0000215C  A$scene$2
     0000215D  A$scene$2 |    0000215E  A$scene$2 |    0000215F  A$scene$2
     00002160  A$scene$2 |    00002161  A$scene$2 |    00002162  A$scene$2
     00002165  A$scene$2 |    00002166  A$scene$2 |    00002169  A$scene$2
     0000216A  A$scene$2 |    0000216B  A$scene$2 |    0000216C  A$scene$2
     0000216E  A$scene$2 |    0000216F  A$scene$2 |    00002172  A$scene$2
     00002173  A$scene$2 |    00002174  A$scene$2 |    00002175  A$scene$2
     00002178  A$scene$2 |    0000217A  A$scene$2 |    0000217B  A$scene$2
     0000217B  C$scene.c |    0000217C  A$scene$2 |    0000217D  A$scene$2
     00002180  A$scene$2 |    00002181  A$scene$2 |    00002182  A$scene$2
     00002184  A$scene$2 |    00002185  A$scene$2 |    00002186  A$scene$2
     00002187  A$scene$2 |    00002188  A$scene$2 |    00002189  A$scene$2
     00002189  C$scene.c |    0000218A  A$scene$2 |    0000218B  A$scene$2
     0000218C  A$scene$2 |    0000218D  A$scene$2 |    0000218E  A$scene$2
     00002190  A$scene$2 |    00002191  A$scene$2 |    00002192  A$scene$2
     00002193  A$scene$2 |    00002195  A$scene$2 |    00002196  A$scene$2
     00002197  A$scene$2 |    00002198  A$scene$2 |    00002199  A$scene$2
     0000219A  A$scene$2 |    0000219B  A$scene$2 |    0000219D  A$scene$2
     0000219E  A$scene$2 |    0000219F  A$scene$2 |    000021A0  A$scene$2
     000021A1  A$scene$2 |    000021A3  A$scene$2 |    000021A4  A$scene$2
     000021A5  A$scene$2 |    000021A6  A$scene$2 |    000021A7  A$scene$2
     000021A8  A$scene$2 |    000021A9  A$scene$2 |    000021AA  A$scene$2
     000021AB  A$scene$2 |    000021AC  A$scene$2 |    000021AD  A$scene$2
     000021AE  A$scene$2 |    000021AE  C$scene.c |    000021AF  A$scene$2
     000021B0  A$scene$2 |    000021B2  A$scene$2 |    000021B3  A$scene$2
     000021B4  A$scene$2 |    000021B7  A$scene$2 |    000021B8  A$scene$2
     000021BA  A$scene$2 |    000021BB  A$scene$2 |    000021BC  A$scene$2
     000021BD  A$scene$2 |    000021BE  A$scene$2 |    000021BF  A$scene$2
     000021C0  A$scene$2 |    000021C1  A$scene$2 |    000021C2  A$scene$2
     000021C3  A$scene$2 |    000021C4  A$scene$2 |    000021C6  A$scene$2
     000021C7  A$scene$2 |    000021C8  A$scene$2 |    000021C9  A$scene$2
     000021CB  A$scene$2 |    000021CC  A$scene$2 |    000021CF  A$scene$2
     000021D0  A$scene$2 |    000021D1  A$scene$2 |    000021D2  A$scene$2
     000021D3  A$scene$2 |    000021D4  A$scene$2 |    000021D5  A$scene$2
     000021D7  A$scene$2 |    000021D8  A$scene$2 |    000021D9  A$scene$2
     000021DA  A$scene$2 |    000021DC  A$scene$2 |    000021DD  A$scene$2
     000021E0  A$scene$2 |    000021E1  A$scene$2 |    000021E3  A$scene$2
     000021E5  A$scene$2 |    000021E6  A$scene$2 |    000021E8  A$scene$2
     000021E9  A$scene$2 |    000021EA  A$scene$2 |    000021EB  A$scene$2
     000021EC  A$scene$2 |    000021ED  A$scene$2 |    000021EE  A$scene$2
     000021EF  A$scene$2 |    000021F1  A$scene$2 |    000021F2  A$scene$2
     000021F3  A$scene$2 |    000021F4  A$scene$2 |    000021F6  A$scene$2
ASxxxx Linker V03.00 + NoICE + sdld,  page 40.
Hexadecimal  [32-Bits]

Area                       Addr        Size        Decimal Bytes (Attributes)
--------------------       ----        ----        ------- ----- ------------
_CODE                  00000200    000037D3 =       14291. bytes (REL,CON)

        Value  Global            Value  Global            Value  Global    
        -----  ------            -----  ------            -----  ------    
     000021F7  A$scene$2 |    000021F9  A$scene$2 |    000021FA  A$scene$2
     000021FB  A$scene$2 |    000021FC  A$scene$2 |    000021FD  A$scene$2
     000021FE  A$scene$2 |    000021FF  A$scene$2 |    00002200  A$scene$2
     00002201  A$scene$2 |    00002202  A$scene$2 |    00002203  A$scene$2
     00002204  A$scene$2 |    00002207  A$scene$2 |    00002208  A$scene$2
     0000220A  A$scene$2 |    0000220B  A$scene$2 |    0000220C  A$scene$2
     0000220D  A$scene$2 |    0000220E  A$scene$2 |    0000220F  A$scene$2
     00002212  A$scene$2 |    00002214  A$scene$2 |    00002215  A$scene$2
     00002215  C$scene.c |    00002217  A$scene$2 |    0000221A  A$scene$2
     0000221B  A$scene$2 |    0000221C  A$scene$2 |    0000221E  A$scene$2
     00002220  A$scene$2 |    00002221  A$scene$2 |    00002222  A$scene$2
     00002224  A$scene$2 |    00002225  A$scene$2 |    00002227  A$scene$2
     00002228  A$scene$2 |    00002229  A$scene$2 |    0000222A  A$scene$2
     0000222B  A$scene$2 |    0000222C  A$scene$2 |    0000222D  A$scene$2
     00002230  A$scene$2 |    00002231  A$scene$2 |    00002232  A$scene$2
     00002233  A$scene$2 |    00002234  A$scene$2 |    00002235  A$scene$2
     00002236  A$scene$2 |    00002237  A$scene$2 |    00002238  A$scene$2
     0000223B  A$scene$2 |    0000223C  A$scene$2 |    0000223D  A$scene$2
     0000223E  A$scene$2 |    00002241  A$scene$2 |    00002243  A$scene$2
     00002244  A$scene$2 |    00002244  C$scene.c |    00002245  A$scene$2
     00002246  A$scene$2 |    00002249  A$scene$2 |    0000224A  A$scene$2
     0000224B  A$scene$2 |    0000224D  A$scene$2 |    0000224E  A$scene$2
     0000224F  A$scene$2 |    00002250  A$scene$2 |    00002251  A$scene$2
     00002252  A$scene$2 |    00002252  C$scene.c |    00002254  A$scene$2
     00002255  A$scene$2 |    00002256  A$scene$2 |    00002257  A$scene$2
     00002258  A$scene$2 |    00002259  A$scene$2 |    0000225A  A$scene$2
     0000225B  A$scene$2 |    0000225C  A$scene$2 |    0000225D  A$scene$2
     0000225E  A$scene$2 |    0000225F  A$scene$2 |    00002260  A$scene$2
     00002261  A$scene$2 |    00002262  A$scene$2 |    00002262  C$scene.c
     00002264  A$scene$2 |    00002265  A$scene$2 |    00002266  A$scene$2
     00002267  A$scene$2 |    0000226A  A$scene$2 |    0000226B  A$scene$2
     0000226D  A$scene$2 |    0000226E  A$scene$2 |    0000226F  A$scene$2
     00002270  A$scene$2 |    00002271  A$scene$2 |    00002272  A$scene$2
     00002273  A$scene$2 |    00002274  A$scene$2 |    00002275  A$scene$2
     00002278  A$scene$2 |    00002279  A$scene$2 |    0000227A  A$scene$2
     0000227B  A$scene$2 |    0000227E  A$scene$2 |    0000227F  A$scene$2
     00002280  A$scene$2 |    00002281  A$scene$2 |    00002282  A$scene$2
     00002284  A$scene$2 |    00002285  A$scene$2 |    00002287  A$scene$2
     00002288  A$scene$2 |    00002289  A$scene$2 |    0000228A  A$scene$2
     0000228B  A$scene$2 |    0000228C  A$scene$2 |    0000228D  A$scene$2
     0000228E  A$scene$2 |    0000228F  A$scene$2 |    00002292  A$scene$2
     00002293  A$scene$2 |    00002295  A$scene$2 |    00002296  A$scene$2
     00002297  A$scene$2 |    00002298  A$scene$2 |    00002299  A$scene$2
     0000229A  A$scene$2 |    0000229D  A$scene$2 |    0000229F  A$scene$2
     0000229F  C$scene.c |    000022A1  A$scene$2 |    000022A2  A$scene$2
     000022A3  A$scene$2 |    000022A5  A$scene$2 |    000022A8  A$scene$2
     000022A9  A$scene$2 |    000022AA  A$scene$2 |    000022AC  A$scene$2
     000022AE  A$scene$2 |    000022AF  A$scene$2 |    000022B0  A$scene$2
     000022B1  A$scene$2 |    000022B1  C$scene.c |    000022B3  A$scene$2
     000022B4  A$scene$2 |    000022B5  A$scene$2 |    000022B6  A$scene$2
     000022B7  A$scene$2 |    000022B8  A$scene$2 |    000022B9  A$scene$2
ASxxxx Linker V03.00 + NoICE + sdld,  page 41.
Hexadecimal  [32-Bits]

Area                       Addr        Size        Decimal Bytes (Attributes)
--------------------       ----        ----        ------- ----- ------------
_CODE                  00000200    000037D3 =       14291. bytes (REL,CON)

        Value  Global            Value  Global            Value  Global    
        -----  ------            -----  ------            -----  ------    
     000022B9  C$scene.c |    000022BB  A$scene$2 |    000022BE  A$scene$2
     000022BF  A$scene$2 |    000022C0  A$scene$2 |    000022C2  A$scene$2
     000022C4  A$scene$2 |    000022C5  A$scene$2 |    000022C6  A$scene$2
     000022C8  A$scene$2 |    000022C9  A$scene$2 |    000022CB  A$scene$2
     000022CC  A$scene$2 |    000022CE  A$scene$2 |    000022CF  A$scene$2
     000022D1  A$scene$2 |    000022D1  C$scene.c |    000022D3  A$scene$2
     000022D4  A$scene$2 |    000022D5  A$scene$2 |    000022D6  A$scene$2
     000022D7  A$scene$2 |    000022DA  A$scene$2 |    000022DB  A$scene$2
     000022DB  C$scene.c |    000022DD  A$scene$2 |    000022DE  A$scene$2
     000022DF  A$scene$2 |    000022E0  A$scene$2 |    000022E3  A$scene$2
     000022E4  A$scene$2 |    000022E6  A$scene$2 |    000022E7  A$scene$2
     000022E8  A$scene$2 |    000022E9  A$scene$2 |    000022EA  A$scene$2
     000022EC  A$scene$2 |    000022ED  A$scene$2 |    000022EE  A$scene$2
     000022F0  A$scene$2 |    000022F1  A$scene$2 |    000022F4  A$scene$2
     000022F5  A$scene$2 |    000022F6  A$scene$2 |    000022F8  A$scene$2
     000022F9  A$scene$2 |    000022FC  A$scene$2 |    000022FD  A$scene$2
     000022FE  A$scene$2 |    000022FF  A$scene$2 |    00002302  A$scene$2
     00002304  A$scene$2 |    00002304  C$scene.c |    00002307  A$scene$2
     00002308  A$scene$2 |    00002309  A$scene$2 |    0000230B  A$scene$2
     0000230E  A$scene$2 |    00002310  A$scene$2 |    00002310  C$scene.c
     00002310  XG$gen_ne |    00002311  A$scene$2 |    00002311  C$scene.c
     00002311  G$add_clo |    00002311  _add_clot |    00002313  A$scene$2
     00002313  C$scene.c |    00002316  A$scene$2 |    00002318  A$scene$2
     0000231B  A$scene$2 |    0000231B  C$scene.c |    0000231E  A$scene$2
     00002320  A$scene$2 |    00002321  A$scene$2 |    00002321  C$scene.c
     00002324  A$scene$2 |    00002325  A$scene$2 |    00002326  A$scene$2
     00002328  A$scene$2 |    00002329  A$scene$2 |    0000232A  A$scene$2
     0000232B  A$scene$2 |    0000232D  A$scene$2 |    0000232F  A$scene$2
     00002330  A$scene$2 |    00002330  C$scene.c |    00002333  A$scene$2
     00002334  A$scene$2 |    00002335  A$scene$2 |    00002336  A$scene$2
     00002338  A$scene$2 |    00002339  A$scene$2 |    0000233A  A$scene$2
     0000233B  A$scene$2 |    0000233D  A$scene$2 |    0000233F  A$scene$2
     00002340  A$scene$2 |    00002340  C$scene.c |    00002342  A$scene$2
     00002342  C$scene.c |    00002343  A$scene$2 |    00002344  A$scene$2
     00002345  A$scene$2 |    00002346  A$scene$2 |    00002347  A$scene$2
     00002349  A$scene$2 |    0000234A  A$scene$2 |    0000234B  A$scene$2
     0000234C  A$scene$2 |    0000234F  A$scene$2 |    00002351  A$scene$2
     00002353  A$scene$2 |    00002355  A$scene$2 |    00002355  C$scene.c
     00002357  A$scene$2 |    00002358  A$scene$2 |    00002359  A$scene$2
     0000235A  A$scene$2 |    0000235D  A$scene$2 |    0000235E  A$scene$2
     0000235F  A$scene$2 |    00002360  A$scene$2 |    00002362  A$scene$2
     00002364  A$scene$2 |    00002365  A$scene$2 |    00002367  A$scene$2
     00002368  A$scene$2 |    0000236A  A$scene$2 |    0000236D  A$scene$2
     0000236D  C$scene.c |    0000236F  A$scene$2 |    00002370  A$scene$2
     00002371  A$scene$2 |    00002372  A$scene$2 |    00002373  A$scene$2
     00002375  A$scene$2 |    00002376  A$scene$2 |    00002377  A$scene$2
     00002378  A$scene$2 |    0000237A  A$scene$2 |    0000237B  A$scene$2
     0000237C  A$scene$2 |    0000237E  A$scene$2 |    00002380  A$scene$2
     00002382  A$scene$2 |    00002383  A$scene$2 |    00002385  A$scene$2
     00002388  A$scene$2 |    0000238A  A$scene$2 |    0000238B  A$scene$2
     0000238E  A$scene$2 |    00002390  A$scene$2 |    00002391  A$scene$2
ASxxxx Linker V03.00 + NoICE + sdld,  page 42.
Hexadecimal  [32-Bits]

Area                       Addr        Size        Decimal Bytes (Attributes)
--------------------       ----        ----        ------- ----- ------------
_CODE                  00000200    000037D3 =       14291. bytes (REL,CON)

        Value  Global            Value  Global            Value  Global    
        -----  ------            -----  ------            -----  ------    
     00002393  A$scene$2 |    00002394  A$scene$2 |    00002395  A$scene$2
     00002396  A$scene$2 |    00002397  A$scene$2 |    00002398  A$scene$2
     0000239A  A$scene$2 |    0000239B  A$scene$2 |    0000239C  A$scene$2
     0000239D  A$scene$2 |    0000239E  A$scene$2 |    0000239F  A$scene$2
     000023A0  A$scene$2 |    000023A3  A$scene$2 |    000023A4  A$scene$2
     000023A5  A$scene$2 |    000023A6  A$scene$2 |    000023A8  A$scene$2
     000023A9  A$scene$2 |    000023AA  A$scene$2 |    000023AB  A$scene$2
     000023AD  A$scene$2 |    000023AE  A$scene$2 |    000023AF  A$scene$2
     000023B0  A$scene$2 |    000023B1  A$scene$2 |    000023B2  A$scene$2
     000023B3  A$scene$2 |    000023B4  A$scene$2 |    000023B5  A$scene$2
     000023B7  A$scene$2 |    000023B8  A$scene$2 |    000023BA  A$scene$2
     000023BC  A$scene$2 |    000023BD  A$scene$2 |    000023BE  A$scene$2
     000023C0  A$scene$2 |    000023C1  A$scene$2 |    000023C2  A$scene$2
     000023C4  A$scene$2 |    000023C5  A$scene$2 |    000023C6  A$scene$2
     000023C9  A$scene$2 |    000023CA  A$scene$2 |    000023CB  A$scene$2
     000023CC  A$scene$2 |    000023CD  A$scene$2 |    000023CE  A$scene$2
     000023D0  A$scene$2 |    000023D1  A$scene$2 |    000023D2  A$scene$2
     000023D2  C$scene.c |    000023D5  A$scene$2 |    000023D7  A$scene$2
     000023D8  A$scene$2 |    000023DA  A$scene$2 |    000023DB  A$scene$2
     000023DC  A$scene$2 |    000023DD  A$scene$2 |    000023DF  A$scene$2
     000023E0  A$scene$2 |    000023E1  A$scene$2 |    000023E2  A$scene$2
     000023E5  A$scene$2 |    000023E6  A$scene$2 |    000023E7  A$scene$2
     000023E9  A$scene$2 |    000023EA  A$scene$2 |    000023ED  A$scene$2
     000023EF  A$scene$2 |    000023F0  A$scene$2 |    000023F1  A$scene$2
     000023F2  A$scene$2 |    000023F3  A$scene$2 |    000023F4  A$scene$2
     000023F5  A$scene$2 |    000023F6  A$scene$2 |    000023F8  A$scene$2
     000023F9  A$scene$2 |    000023FA  A$scene$2 |    000023FA  C$scene.c
     000023FD  A$scene$2 |    000023FE  A$scene$2 |    000023FF  A$scene$2
     00002401  A$scene$2 |    00002402  A$scene$2 |    00002404  A$scene$2
     00002405  A$scene$2 |    00002406  A$scene$2 |    00002408  A$scene$2
     00002409  A$scene$2 |    0000240C  A$scene$2 |    0000240D  A$scene$2
     0000240E  A$scene$2 |    0000240E  C$scene.c |    00002410  A$scene$2
     00002411  A$scene$2 |    00002413  A$scene$2 |    00002414  A$scene$2
     00002414  C$scene.c |    00002416  A$scene$2 |    00002416  C$scene.c
     00002418  A$scene$2 |    00002419  A$scene$2 |    0000241A  A$scene$2
     0000241C  A$scene$2 |    0000241D  A$scene$2 |    0000241F  A$scene$2
     00002420  A$scene$2 |    00002422  A$scene$2 |    00002425  A$scene$2
     00002425  C$scene.c |    00002427  A$scene$2 |    00002428  A$scene$2
     0000242A  A$scene$2 |    0000242C  A$scene$2 |    0000242D  A$scene$2
     0000242D  C$scene.c |    0000242F  A$scene$2 |    00002430  A$scene$2
     00002431  A$scene$2 |    00002432  A$scene$2 |    00002433  A$scene$2
     00002435  A$scene$2 |    00002436  A$scene$2 |    00002437  A$scene$2
     00002438  A$scene$2 |    0000243B  A$scene$2 |    0000243D  A$scene$2
     0000243F  A$scene$2 |    00002441  A$scene$2 |    00002443  A$scene$2
     00002443  C$scene.c |    00002445  A$scene$2 |    00002446  A$scene$2
     00002447  A$scene$2 |    00002448  A$scene$2 |    0000244B  A$scene$2
     0000244C  A$scene$2 |    0000244D  A$scene$2 |    0000244F  A$scene$2
     00002451  A$scene$2 |    00002452  A$scene$2 |    00002454  A$scene$2
     00002455  A$scene$2 |    00002457  A$scene$2 |    0000245A  A$scene$2
     0000245A  C$scene.c |    0000245C  A$scene$2 |    0000245D  A$scene$2
     0000245F  A$scene$2 |    00002460  A$scene$2 |    00002461  A$scene$2
ASxxxx Linker V03.00 + NoICE + sdld,  page 43.
Hexadecimal  [32-Bits]

Area                       Addr        Size        Decimal Bytes (Attributes)
--------------------       ----        ----        ------- ----- ------------
_CODE                  00000200    000037D3 =       14291. bytes (REL,CON)

        Value  Global            Value  Global            Value  Global    
        -----  ------            -----  ------            -----  ------    
     00002462  A$scene$2 |    00002463  A$scene$2 |    00002465  A$scene$2
     00002466  A$scene$2 |    00002468  A$scene$2 |    00002469  A$scene$2
     0000246A  A$scene$2 |    0000246C  A$scene$2 |    0000246F  A$scene$2
     00002470  A$scene$2 |    00002471  A$scene$2 |    00002473  A$scene$2
     00002474  A$scene$2 |    00002475  A$scene$2 |    00002476  A$scene$2
     00002478  A$scene$2 |    00002479  A$scene$2 |    0000247B  A$scene$2
     0000247E  A$scene$2 |    0000247F  A$scene$2 |    00002480  A$scene$2
     00002481  A$scene$2 |    00002483  A$scene$2 |    00002484  A$scene$2
     00002485  A$scene$2 |    00002486  A$scene$2 |    00002488  A$scene$2
     00002489  A$scene$2 |    0000248A  A$scene$2 |    0000248B  A$scene$2
     0000248C  A$scene$2 |    0000248D  A$scene$2 |    0000248F  A$scene$2
     00002490  A$scene$2 |    00002492  A$scene$2 |    00002493  A$scene$2
     00002495  A$scene$2 |    00002497  A$scene$2 |    00002498  A$scene$2
     00002499  A$scene$2 |    0000249B  A$scene$2 |    0000249C  A$scene$2
     0000249D  A$scene$2 |    0000249F  A$scene$2 |    000024A1  A$scene$2
     000024A3  A$scene$2 |    000024A5  A$scene$2 |    000024A6  A$scene$2
     000024A8  A$scene$2 |    000024A9  A$scene$2 |    000024AB  A$scene$2
     000024AC  A$scene$2 |    000024AD  A$scene$2 |    000024AE  A$scene$2
     000024AF  A$scene$2 |    000024B2  A$scene$2 |    000024B3  A$scene$2
     000024B4  A$scene$2 |    000024B5  A$scene$2 |    000024B7  A$scene$2
     000024B8  A$scene$2 |    000024B9  A$scene$2 |    000024BA  A$scene$2
     000024BC  A$scene$2 |    000024BD  A$scene$2 |    000024BE  A$scene$2
     000024BF  A$scene$2 |    000024C0  A$scene$2 |    000024C3  A$scene$2
     000024C4  A$scene$2 |    000024C5  A$scene$2 |    000024C6  A$scene$2
     000024C8  A$scene$2 |    000024C9  A$scene$2 |    000024CA  A$scene$2
     000024CB  A$scene$2 |    000024CD  A$scene$2 |    000024CE  A$scene$2
     000024CF  A$scene$2 |    000024D0  A$scene$2 |    000024D1  A$scene$2
     000024D3  A$scene$2 |    000024D3  C$scene.c |    000024D4  A$scene$2
     000024D5  A$scene$2 |    000024D8  A$scene$2 |    000024D9  A$scene$2
     000024DB  A$scene$2 |    000024DC  A$scene$2 |    000024DD  A$scene$2
     000024DE  A$scene$2 |    000024E0  A$scene$2 |    000024E1  A$scene$2
     000024E2  A$scene$2 |    000024E3  A$scene$2 |    000024E5  A$scene$2
     000024E6  A$scene$2 |    000024E7  A$scene$2 |    000024E8  A$scene$2
     000024E9  A$scene$2 |    000024EB  A$scene$2 |    000024EC  A$scene$2
     000024ED  A$scene$2 |    000024EE  A$scene$2 |    000024F1  A$scene$2
     000024F2  A$scene$2 |    000024F4  A$scene$2 |    000024F5  A$scene$2
     000024F7  A$scene$2 |    000024F8  A$scene$2 |    000024FA  A$scene$2
     000024FB  A$scene$2 |    000024FC  A$scene$2 |    000024FD  A$scene$2
     000024FF  A$scene$2 |    00002501  A$scene$2 |    00002503  A$scene$2
     00002505  A$scene$2 |    00002506  A$scene$2 |    00002508  A$scene$2
     00002509  A$scene$2 |    0000250B  A$scene$2 |    0000250C  A$scene$2
     0000250D  A$scene$2 |    0000250E  A$scene$2 |    0000250F  A$scene$2
     00002512  A$scene$2 |    00002513  A$scene$2 |    00002514  A$scene$2
     00002515  A$scene$2 |    00002517  A$scene$2 |    00002518  A$scene$2
     00002519  A$scene$2 |    0000251A  A$scene$2 |    0000251C  A$scene$2
     0000251D  A$scene$2 |    0000251E  A$scene$3 |    0000251F  A$scene$3
     00002520  A$scene$3 |    00002521  A$scene$3 |    00002522  A$scene$3
     00002523  A$scene$3 |    00002524  A$scene$3 |    00002525  A$scene$3
     00002526  A$scene$3 |    00002527  A$scene$3 |    00002528  A$scene$3
     00002529  A$scene$3 |    0000252A  A$scene$3 |    0000252B  A$scene$3
     0000252C  A$scene$3 |    0000252D  A$scene$3 |    0000252E  A$scene$3
ASxxxx Linker V03.00 + NoICE + sdld,  page 44.
Hexadecimal  [32-Bits]

Area                       Addr        Size        Decimal Bytes (Attributes)
--------------------       ----        ----        ------- ----- ------------
_CODE                  00000200    000037D3 =       14291. bytes (REL,CON)

        Value  Global            Value  Global            Value  Global    
        -----  ------            -----  ------            -----  ------    
     0000252F  A$scene$3 |    00002530  A$scene$3 |    00002531  A$scene$3
     00002532  A$scene$3 |    00002534  A$scene$3 |    00002535  A$scene$3
     00002536  A$scene$3 |    00002537  A$scene$3 |    00002539  A$scene$3
     0000253A  A$scene$3 |    0000253B  A$scene$3 |    0000253C  A$scene$3
     0000253D  A$scene$3 |    0000253F  A$scene$3 |    00002540  A$scene$3
     00002541  A$scene$3 |    00002541  C$scene.c |    00002544  A$scene$3
     00002546  A$scene$3 |    00002547  A$scene$3 |    00002549  A$scene$3
     0000254A  A$scene$3 |    0000254B  A$scene$3 |    0000254D  A$scene$3
     0000254E  A$scene$3 |    0000254F  A$scene$3 |    00002551  A$scene$3
     00002553  A$scene$3 |    00002555  A$scene$3 |    00002556  A$scene$3
     00002558  A$scene$3 |    0000255A  A$scene$3 |    0000255B  A$scene$3
     0000255C  A$scene$3 |    0000255D  A$scene$3 |    00002560  A$scene$3
     00002562  A$scene$3 |    00002563  A$scene$3 |    00002566  A$scene$3
     00002566  C$scene.c |    00002568  A$scene$3 |    00002569  A$scene$3
     0000256B  A$scene$3 |    0000256C  A$scene$3 |    0000256C  C$scene.c
     0000256D  A$scene$3 |    0000256F  A$scene$3 |    00002570  A$scene$3
     00002572  A$scene$3 |    00002572  C$scene.c |    00002574  A$scene$3
     00002575  A$scene$3 |    00002577  A$scene$3 |    00002578  A$scene$3
     0000257A  A$scene$3 |    0000257B  A$scene$3 |    0000257B  C$scene.c
     0000257D  A$scene$3 |    0000257D  C$scene.c |    0000257F  A$scene$3
     00002580  A$scene$3 |    00002581  A$scene$3 |    00002583  A$scene$3
     00002584  A$scene$3 |    00002586  A$scene$3 |    00002587  A$scene$3
     00002589  A$scene$3 |    0000258C  A$scene$3 |    0000258C  C$scene.c
     0000258E  A$scene$3 |    0000258F  A$scene$3 |    00002590  A$scene$3
     00002591  A$scene$3 |    00002592  A$scene$3 |    00002593  A$scene$3
     00002595  A$scene$3 |    00002597  A$scene$3 |    00002598  A$scene$3
     00002599  A$scene$3 |    0000259B  A$scene$3 |    0000259B  C$scene.c
     0000259B  XG$add_cl |    0000259C  A$scene$3 |    0000259C  C$scene.c
     0000259C  C$scene.c |    0000259C  G$next_ma |    0000259C  _next_map
     0000259F  A$scene$3 |    000025A0  A$scene$3 |    000025A2  A$scene$3
     000025A3  A$scene$3 |    000025A5  A$scene$3 |    000025A6  A$scene$3
     000025A8  A$scene$3 |    000025A9  A$scene$3 |    000025AB  A$scene$3
     000025AC  A$scene$3 |    000025AC  C$scene.c |    000025AF  A$scene$3
     000025AF  C$scene.c |    000025B0  A$scene$3 |    000025B2  A$scene$3
     000025B3  A$scene$3 |    000025B5  A$scene$3 |    000025B6  A$scene$3
     000025B8  A$scene$3 |    000025B9  A$scene$3 |    000025B9  C$scene.c
     000025BC  A$scene$3 |    000025BC  C$scene.c |    000025BF  A$scene$3
     000025BF  C$scene.c |    000025BF  C$scene.c |    000025BF  XG$next_m
     000025C2  A$scene$3 |    000025C2  C$scene.c |    000025C2  G$update_
     000025C2  _update_w |    000025C4  A$scene$3 |    000025C7  A$scene$3
     000025C9  A$scene$3 |    000025CB  A$scene$3 |    000025CB  C$scene.c
     000025CE  A$scene$3 |    000025CF  A$scene$3 |    000025D1  A$scene$3
     000025D3  A$scene$3 |    000025D4  A$scene$3 |    000025D6  A$scene$3
     000025D7  A$scene$3 |    000025D9  A$scene$3 |    000025DA  A$scene$3
     000025DB  A$scene$3 |    000025DD  A$scene$3 |    000025DE  A$scene$3
     000025DE  C$scene.c |    000025DF  A$scene$3 |    000025E1  A$scene$3
     000025E3  A$scene$3 |    000025E4  A$scene$3 |    000025E6  A$scene$3
     000025E9  A$scene$3 |    000025EA  A$scene$3 |    000025EB  A$scene$3
     000025EE  A$scene$3 |    000025EF  A$scene$3 |    000025F0  A$scene$3
     000025F2  A$scene$3 |    000025F3  A$scene$3 |    000025F5  A$scene$3
     000025F8  A$scene$3 |    000025F9  A$scene$3 |    000025FA  A$scene$3
ASxxxx Linker V03.00 + NoICE + sdld,  page 45.
Hexadecimal  [32-Bits]

Area                       Addr        Size        Decimal Bytes (Attributes)
--------------------       ----        ----        ------- ----- ------------
_CODE                  00000200    000037D3 =       14291. bytes (REL,CON)

        Value  Global            Value  Global            Value  Global    
        -----  ------            -----  ------            -----  ------    
     000025FB  A$scene$3 |    000025FC  A$scene$3 |    000025FF  A$scene$3
     00002600  A$scene$3 |    00002601  A$scene$3 |    00002602  A$scene$3
     00002603  A$scene$3 |    00002605  A$scene$3 |    00002607  A$scene$3
     00002609  A$scene$3 |    0000260A  A$scene$3 |    0000260B  A$scene$3
     0000260D  A$scene$3 |    0000260E  A$scene$3 |    0000260F  A$scene$3
     00002611  A$scene$3 |    00002613  A$scene$3 |    00002614  A$scene$3
     00002615  A$scene$3 |    00002618  A$scene$3 |    00002618  C$scene.c
     0000261B  A$scene$3 |    0000261C  A$scene$3 |    0000261E  A$scene$3
     00002620  A$scene$3 |    00002621  A$scene$3 |    00002622  A$scene$3
     00002623  A$scene$3 |    00002624  A$scene$3 |    00002626  A$scene$3
     00002627  A$scene$3 |    00002629  A$scene$3 |    0000262B  A$scene$3
     0000262D  A$scene$3 |    0000262E  A$scene$3 |    00002630  A$scene$3
     00002631  A$scene$3 |    00002632  A$scene$3 |    00002634  A$scene$3
     00002635  A$scene$3 |    00002637  A$scene$3 |    00002638  A$scene$3
     0000263A  A$scene$3 |    0000263B  A$scene$3 |    0000263D  A$scene$3
     0000263E  A$scene$3 |    00002640  A$scene$3 |    00002640  C$scene.c
     00002643  A$scene$3 |    00002644  A$scene$3 |    00002646  A$scene$3
     00002646  C$scene.c |    00002647  A$scene$3 |    00002649  A$scene$3
     0000264B  A$scene$3 |    0000264C  A$scene$3 |    0000264E  A$scene$3
     00002651  A$scene$3 |    00002652  A$scene$3 |    00002653  A$scene$3
     00002654  A$scene$3 |    00002655  A$scene$3 |    00002657  A$scene$3
     00002659  A$scene$3 |    0000265A  A$scene$3 |    0000265B  A$scene$3
     0000265E  A$scene$3 |    0000265F  A$scene$3 |    00002660  A$scene$3
     00002662  A$scene$3 |    00002663  A$scene$3 |    00002665  A$scene$3
     00002668  A$scene$3 |    00002669  A$scene$3 |    0000266A  A$scene$3
     0000266C  A$scene$3 |    0000266E  A$scene$3 |    00002670  A$scene$3
     00002671  A$scene$3 |    00002672  A$scene$3 |    00002675  A$scene$3
     00002675  C$scene.c |    00002678  A$scene$3 |    0000267A  A$scene$3
     0000267B  A$scene$3 |    0000267D  A$scene$3 |    0000267D  C$scene.c
     00002680  A$scene$3 |    00002681  A$scene$3 |    00002683  A$scene$3
     00002683  C$scene.c |    00002684  A$scene$3 |    00002686  A$scene$3
     00002688  A$scene$3 |    00002689  A$scene$3 |    0000268B  A$scene$3
     0000268E  A$scene$3 |    0000268F  A$scene$3 |    00002690  A$scene$3
     00002691  A$scene$3 |    00002692  A$scene$3 |    00002694  A$scene$3
     00002696  A$scene$3 |    00002697  A$scene$3 |    00002698  A$scene$3
     0000269B  A$scene$3 |    0000269C  A$scene$3 |    0000269D  A$scene$3
     0000269F  A$scene$3 |    000026A0  A$scene$3 |    000026A2  A$scene$3
     000026A5  A$scene$3 |    000026A6  A$scene$3 |    000026A7  A$scene$3
     000026A9  A$scene$3 |    000026AB  A$scene$3 |    000026AD  A$scene$3
     000026AE  A$scene$3 |    000026AF  A$scene$3 |    000026B2  A$scene$3
     000026B5  A$scene$3 |    000026B5  C$scene.c |    000026B5  C$scene.c
     000026B8  A$scene$3 |    000026B9  A$scene$3 |    000026BB  A$scene$3
     000026BD  A$scene$3 |    000026BF  A$scene$3 |    000026C0  A$scene$3
     000026C0  C$scene.c |    000026C1  A$scene$3 |    000026C1  C$scene.c
     000026C2  A$scene$3 |    000026C3  A$scene$3 |    000026C5  A$scene$3
     000026C6  A$scene$3 |    000026C7  A$scene$3 |    000026C8  A$scene$3
     000026CA  A$scene$3 |    000026CC  A$scene$3 |    000026CD  A$scene$3
     000026CE  A$scene$3 |    000026CF  A$scene$3 |    000026CF  C$scene.c
     000026D1  A$scene$3 |    000026D3  A$scene$3 |    000026D5  A$scene$3
     000026D6  A$scene$3 |    000026D7  A$scene$3 |    000026D9  A$scene$3
     000026DA  A$scene$3 |    000026DD  A$scene$3 |    000026DE  A$scene$3
ASxxxx Linker V03.00 + NoICE + sdld,  page 46.
Hexadecimal  [32-Bits]

Area                       Addr        Size        Decimal Bytes (Attributes)
--------------------       ----        ----        ------- ----- ------------
_CODE                  00000200    000037D3 =       14291. bytes (REL,CON)

        Value  Global            Value  Global            Value  Global    
        -----  ------            -----  ------            -----  ------    
     000026DF  A$scene$3 |    000026E1  A$scene$3 |    000026E3  A$scene$3
     000026E4  A$scene$3 |    000026E6  A$scene$3 |    000026E8  A$scene$3
     000026EA  A$scene$3 |    000026EA  C$scene.c |    000026EC  A$scene$3
     000026ED  A$scene$3 |    000026F0  A$scene$3 |    000026F2  A$scene$3
     000026F2  C$scene.c |    000026F4  A$scene$3 |    000026F5  A$scene$3
     000026F6  A$scene$3 |    000026F8  A$scene$3 |    000026F9  A$scene$3
     000026FC  A$scene$3 |    000026FD  A$scene$3 |    000026FE  A$scene$3
     00002700  A$scene$3 |    00002702  A$scene$3 |    00002703  A$scene$3
     00002705  A$scene$3 |    00002707  A$scene$3 |    00002709  A$scene$3
     00002709  C$scene.c |    0000270B  A$scene$3 |    0000270C  A$scene$3
     0000270D  A$scene$3 |    0000270E  A$scene$3 |    00002710  A$scene$3
     00002711  A$scene$3 |    00002713  A$scene$3 |    00002715  A$scene$3
     00002716  A$scene$3 |    00002717  A$scene$3 |    00002718  A$scene$3
     0000271B  A$scene$3 |    0000271D  A$scene$3 |    0000271D  C$scene.c
     0000271F  A$scene$3 |    00002720  A$scene$3 |    00002723  A$scene$3
     00002723  C$scene.c |    00002726  A$scene$3 |    00002727  A$scene$3
     00002729  A$scene$3 |    0000272B  A$scene$3 |    0000272C  A$scene$3
     0000272E  A$scene$3 |    0000272F  A$scene$3 |    00002731  A$scene$3
     00002732  A$scene$3 |    00002733  A$scene$3 |    00002735  A$scene$3
     00002736  A$scene$3 |    00002736  C$scene.c |    00002737  A$scene$3
     00002739  A$scene$3 |    0000273B  A$scene$3 |    0000273D  A$scene$3
     0000273F  A$scene$3 |    00002740  A$scene$3 |    00002741  A$scene$3
     00002743  A$scene$3 |    00002744  A$scene$3 |    00002745  A$scene$3
     00002748  A$scene$3 |    00002749  A$scene$3 |    0000274A  A$scene$3
     0000274C  A$scene$3 |    0000274D  A$scene$3 |    0000274F  A$scene$3
     00002752  A$scene$3 |    00002753  A$scene$3 |    00002754  A$scene$3
     00002756  A$scene$3 |    00002757  A$scene$3 |    00002758  A$scene$3
     0000275B  A$scene$3 |    0000275C  A$scene$3 |    0000275D  A$scene$3
     0000275F  A$scene$3 |    00002760  A$scene$3 |    00002762  A$scene$3
     00002765  A$scene$3 |    00002766  A$scene$3 |    00002767  A$scene$3
     00002769  A$scene$3 |    0000276B  A$scene$3 |    0000276D  A$scene$3
     0000276E  A$scene$3 |    0000276F  A$scene$3 |    00002771  A$scene$3
     00002771  C$scene.c |    00002771  XG$update |    00002772  A$scene$3
     00002772  C$scene.c |    00002772  G$fill_wi |    00002772  _fill_win
     00002773  A$scene$3 |    00002776  A$scene$3 |    00002778  A$scene$3
     00002778  C$scene.c |    0000277B  A$scene$3 |    0000277C  A$scene$3
     0000277F  A$scene$3 |    00002780  A$scene$3 |    00002781  A$scene$3
     00002782  A$scene$3 |    00002784  A$scene$3 |    00002786  A$scene$3
     00002787  A$scene$3 |    00002789  A$scene$3 |    0000278B  A$scene$3
     0000278D  A$scene$3 |    0000278D  C$scene.c |    00002790  A$scene$3
     00002791  A$scene$3 |    00002794  A$scene$3 |    00002795  A$scene$3
     00002796  A$scene$3 |    00002798  A$scene$3 |    00002799  A$scene$3
     0000279A  A$scene$3 |    0000279D  A$scene$3 |    0000279E  A$scene$3
     0000279F  A$scene$3 |    000027A1  A$scene$3 |    000027A2  A$scene$3
     000027A4  A$scene$3 |    000027A7  A$scene$3 |    000027A8  A$scene$3
     000027A9  A$scene$3 |    000027AB  A$scene$3 |    000027AC  A$scene$3
     000027AD  A$scene$3 |    000027B0  A$scene$3 |    000027B1  A$scene$3
     000027B2  A$scene$3 |    000027B4  A$scene$3 |    000027B5  A$scene$3
     000027B7  A$scene$3 |    000027BA  A$scene$3 |    000027BB  A$scene$3
     000027BC  A$scene$3 |    000027BE  A$scene$3 |    000027C0  A$scene$3
     000027C2  A$scene$3 |    000027C3  A$scene$3 |    000027C4  A$scene$3
ASxxxx Linker V03.00 + NoICE + sdld,  page 47.
Hexadecimal  [32-Bits]

Area                       Addr        Size        Decimal Bytes (Attributes)
--------------------       ----        ----        ------- ----- ------------
_CODE                  00000200    000037D3 =       14291. bytes (REL,CON)

        Value  Global            Value  Global            Value  Global    
        -----  ------            -----  ------            -----  ------    
     000027C4  C$scene.c |    000027C7  A$scene$3 |    000027C8  A$scene$3
     000027CA  A$scene$3 |    000027CB  A$scene$3 |    000027CD  A$scene$3
     000027CE  A$scene$3 |    000027CF  A$scene$3 |    000027D1  A$scene$3
     000027D4  A$scene$3 |    000027D5  A$scene$3 |    000027D6  A$scene$3
     000027D6  C$scene.c |    000027D8  A$scene$3 |    000027D8  C$scene.c
     000027DB  A$scene$3 |    000027DC  A$scene$3 |    000027DD  A$scene$3
     000027DF  A$scene$3 |    000027E1  A$scene$3 |    000027E2  A$scene$3
     000027E2  C$scene.c |    000027E2  XG$fill_w |    000027E3  A$scene$3
     000027E3  C$scene.c |    000027E3  G$mend_in |    000027E3  _mend_inc
     000027E4  A$scene$3 |    000027E4  C$scene.c |    000027E7  A$scene$3
     000027E9  A$scene$3 |    000027EB  A$scene$3 |    000027EB  C$scene.c
     000027ED  A$scene$3 |    000027ED  C$scene.c |    000027F0  A$scene$3
     000027F1  A$scene$3 |    000027F4  A$scene$3 |    000027F5  A$scene$3
     000027F6  A$scene$3 |    000027F8  A$scene$3 |    000027F9  A$scene$3
     000027FA  A$scene$3 |    000027FC  A$scene$3 |    000027FD  A$scene$3
     000027FF  A$scene$3 |    00002801  A$scene$3 |    00002801  C$scene.c
     00002803  A$scene$3 |    00002804  A$scene$3 |    00002804  C$scene.c
     00002806  A$scene$3 |    00002806  C$scene.c |    00002808  A$scene$3
     00002809  A$scene$3 |    0000280B  A$scene$3 |    0000280C  A$scene$3
     0000280E  A$scene$3 |    0000280F  A$scene$3 |    00002811  A$scene$3
     00002812  A$scene$3 |    00002814  A$scene$3 |    00002817  A$scene$3
     0000281A  A$scene$3 |    0000281B  A$scene$3 |    0000281D  A$scene$3
     0000281E  A$scene$3 |    0000281F  A$scene$3 |    00002820  A$scene$3
     00002821  A$scene$3 |    00002822  A$scene$3 |    00002823  A$scene$3
     00002826  A$scene$3 |    00002827  A$scene$3 |    00002828  A$scene$3
     0000282A  A$scene$3 |    0000282B  A$scene$3 |    0000282C  A$scene$3
     0000282E  A$scene$3 |    0000282F  A$scene$3 |    00002831  A$scene$3
     00002832  A$scene$3 |    00002834  A$scene$3 |    00002835  A$scene$3
     00002837  A$scene$3 |    00002837  C$scene.c |    00002839  A$scene$3
     0000283A  A$scene$3 |    0000283C  A$scene$3 |    0000283D  A$scene$3
     0000283D  C$scene.c |    0000283E  A$scene$3 |    0000283E  C$scene.c
     0000283E  XG$mend_i |    0000283F  A$scene$3 |    0000283F  C$scene.c
     0000283F  G$fill_me |    0000283F  _fill_mem |    00002841  A$scene$3
     00002841  C$scene.c |    00002844  A$scene$3 |    00002846  A$scene$3
     00002848  A$scene$3 |    00002848  C$scene.c |    0000284B  A$scene$3
     0000284C  A$scene$3 |    0000284E  A$scene$3 |    0000284F  A$scene$3
     0000284F  C$scene.c |    00002852  A$scene$3 |    00002852  C$scene.c
     00002855  A$scene$3 |    00002856  A$scene$3 |    00002857  A$scene$3
     00002858  A$scene$3 |    0000285A  A$scene$3 |    0000285C  A$scene$3
     0000285D  A$scene$3 |    0000285E  A$scene$3 |    00002860  A$scene$3
     00002861  A$scene$3 |    00002862  A$scene$3 |    00002865  A$scene$3
     00002866  A$scene$3 |    00002867  A$scene$3 |    00002868  A$scene$3
     0000286B  A$scene$3 |    0000286D  A$scene$3 |    0000286D  C$scene.c
     0000286F  A$scene$3 |    00002872  A$scene$3 |    00002873  A$scene$3
     00002874  A$scene$3 |    00002876  A$scene$3 |    00002878  A$scene$3
     00002879  A$scene$3 |    0000287A  A$scene$3 |    0000287C  A$scene$3
     0000287E  A$scene$3 |    0000287F  A$scene$3 |    00002881  A$scene$3
     00002882  A$scene$3 |    00002883  A$scene$3 |    00002884  A$scene$3
     00002885  A$scene$3 |    00002886  A$scene$3 |    00002887  A$scene$3
     0000288A  A$scene$3 |    0000288B  A$scene$3 |    0000288C  A$scene$3
     0000288D  A$scene$3 |    0000288E  A$scene$3 |    0000288F  A$scene$3
ASxxxx Linker V03.00 + NoICE + sdld,  page 48.
Hexadecimal  [32-Bits]

Area                       Addr        Size        Decimal Bytes (Attributes)
--------------------       ----        ----        ------- ----- ------------
_CODE                  00000200    000037D3 =       14291. bytes (REL,CON)

        Value  Global            Value  Global            Value  Global    
        -----  ------            -----  ------            -----  ------    
     00002890  A$scene$3 |    00002891  A$scene$3 |    00002892  A$scene$3
     00002893  A$scene$3 |    00002894  A$scene$3 |    00002895  A$scene$3
     00002896  A$scene$3 |    00002899  A$scene$3 |    0000289A  A$scene$3
     0000289C  A$scene$3 |    0000289E  A$scene$3 |    0000289F  A$scene$3
     000028A1  A$scene$3 |    000028A2  A$scene$3 |    000028A3  A$scene$3
     000028A4  A$scene$3 |    000028A5  A$scene$3 |    000028A8  A$scene$3
     000028AA  A$scene$3 |    000028AA  C$scene.c |    000028AD  A$scene$3
     000028AF  A$scene$3 |    000028B2  A$scene$3 |    000028B3  A$scene$3
     000028B4  A$scene$3 |    000028B6  A$scene$3 |    000028B8  A$scene$3
     000028B9  A$scene$3 |    000028BA  A$scene$3 |    000028BC  A$scene$3
     000028BD  A$scene$3 |    000028BF  A$scene$3 |    000028C0  A$scene$3
     000028C1  A$scene$3 |    000028C2  A$scene$3 |    000028C3  A$scene$3
     000028C4  A$scene$3 |    000028C5  A$scene$3 |    000028C6  A$scene$3
     000028C7  A$scene$3 |    000028C8  A$scene$3 |    000028C9  A$scene$3
     000028CA  A$scene$3 |    000028CB  A$scene$3 |    000028CC  A$scene$3
     000028CD  A$scene$3 |    000028CE  A$scene$3 |    000028D0  A$scene$3
     000028D1  A$scene$3 |    000028D2  A$scene$3 |    000028D3  A$scene$3
     000028D4  A$scene$3 |    000028D5  A$scene$3 |    000028D6  A$scene$3
     000028D7  A$scene$3 |    000028D8  A$scene$3 |    000028DA  A$scene$3
     000028DB  A$scene$3 |    000028DC  A$scene$3 |    000028DD  A$scene$3
     000028DE  A$scene$3 |    000028E1  A$scene$3 |    000028E2  A$scene$3
     000028E3  A$scene$3 |    000028E4  A$scene$3 |    000028E5  A$scene$3
     000028E6  A$scene$3 |    000028E8  A$scene$3 |    000028EA  A$scene$3
     000028EB  A$scene$3 |    000028ED  A$scene$3 |    000028EE  A$scene$3
     000028EF  A$scene$3 |    000028F0  A$scene$3 |    000028F2  A$scene$3
     000028F3  A$scene$3 |    000028F4  A$scene$3 |    000028F6  A$scene$3
     000028F7  A$scene$3 |    000028F8  A$scene$3 |    000028F9  A$scene$3
     000028FA  A$scene$3 |    000028FB  A$scene$3 |    000028FC  A$scene$3
     000028FF  A$scene$3 |    00002901  A$scene$3 |    00002901  C$scene.c
     00002904  A$scene$3 |    00002905  A$scene$3 |    00002907  A$scene$3
     00002907  C$scene.c |    00002907  XG$fill_m |    00002908  A$scene$3
     00002908  C$scene.c |    00002908  G$memcpy_ |    00002908  _memcpy_r
     0000290A  A$scene$3 |    0000290A  C$scene.c |    0000290D  A$scene$3
     0000290F  A$scene$3 |    00002910  A$scene$3 |    00002912  A$scene$3
     00002913  A$scene$3 |    00002914  A$scene$3 |    00002915  A$scene$4
     00002915  C$scene.c |    00002917  A$scene$4 |    00002918  A$scene$4
     0000291B  A$scene$4 |    0000291C  A$scene$4 |    0000291C  C$scene.c
     0000291E  A$scene$4 |    0000291F  A$scene$4 |    00002921  A$scene$4
     00002921  C$scene.c |    00002922  A$scene$4 |    00002923  A$scene$4
     00002925  A$scene$4 |    00002926  A$scene$4 |    00002927  A$scene$4
     00002928  A$scene$4 |    00002929  A$scene$4 |    0000292A  A$scene$4
     0000292B  A$scene$4 |    0000292D  A$scene$4 |    0000292E  A$scene$4
     00002930  A$scene$4 |    00002931  A$scene$4 |    00002932  A$scene$4
     00002933  A$scene$4 |    00002934  A$scene$4 |    00002935  A$scene$4
     00002936  A$scene$4 |    00002938  A$scene$4 |    00002938  C$scene.c
     00002939  A$scene$4 |    0000293A  A$scene$4 |    0000293B  A$scene$4
     0000293C  A$scene$4 |    0000293C  C$scene.c |    0000293F  A$scene$4
     0000293F  C$scene.c |    00002940  A$scene$4 |    00002942  A$scene$4
     00002942  C$scene.c |    00002944  A$scene$4 |    00002945  A$scene$4
     00002947  A$scene$4 |    00002948  A$scene$4 |    00002949  A$scene$4
     0000294A  A$scene$4 |    0000294A  C$scene.c |    0000294C  A$scene$4
ASxxxx Linker V03.00 + NoICE + sdld,  page 49.
Hexadecimal  [32-Bits]

Area                       Addr        Size        Decimal Bytes (Attributes)
--------------------       ----        ----        ------- ----- ------------
_CODE                  00000200    000037D3 =       14291. bytes (REL,CON)

        Value  Global            Value  Global            Value  Global    
        -----  ------            -----  ------            -----  ------    
     0000294D  A$scene$4 |    00002950  A$scene$4 |    00002952  A$scene$4
     00002954  A$scene$4 |    00002954  C$scene.c |    00002954  XG$memcpy
     00002955  A$sound$6 |    00002955  C$sound.c |    00002955  C$sound.c
     00002955  G$sound_i |    00002955  _sound_in |    00002957  A$sound$6
     00002959  A$sound$6 |    00002959  C$sound.c |    0000295B  A$sound$6
     0000295D  A$sound$7 |    0000295D  C$sound.c |    0000295F  A$sound$7
     00002961  A$sound$8 |    00002961  C$sound.c |    00002961  XG$sound_
     00002962  A$sound$9 |    00002962  C$sound.c |    00002962  C$sound.c
     00002962  G$stop_sf |    00002962  _stop_sfx |    00002964  A$sound$9
     00002966  A$sound$1 |    00002966  C$sound.c |    00002966  XG$stop_s
     00002967  A$sound$1 |    00002967  C$sound.c |    00002967  C$sound.c
     00002967  G$play_ju |    00002967  _play_jum |    00002969  A$sound$1
     0000296B  A$sound$1 |    0000296B  C$sound.c |    0000296D  A$sound$1
     0000296F  A$sound$1 |    0000296F  C$sound.c |    00002971  A$sound$1
     00002973  A$sound$1 |    00002973  C$sound.c |    00002975  A$sound$1
     00002977  A$sound$1 |    00002977  C$sound.c |    00002979  A$sound$1
     0000297B  A$sound$1 |    0000297B  C$sound.c |    0000297B  XG$play_j
     0000297C  A$sound$1 |    0000297C  C$sound.c |    0000297C  C$sound.c
     0000297C  G$stop_ju |    0000297C  _stop_jum |    0000297E  A$sound$1
     00002980  A$sound$1 |    00002980  C$sound.c |    00002980  XG$stop_j
     00002981  A$sound$1 |    00002981  C$sound.c |    00002981  C$sound.c
     00002981  G$play_bu |    00002981  _play_bum |    00002983  A$sound$1
     00002985  A$sound$1 |    00002985  C$sound.c |    00002987  A$sound$1
     00002989  A$sound$1 |    00002989  C$sound.c |    0000298B  A$sound$1
     0000298D  A$sound$1 |    0000298D  C$sound.c |    0000298F  A$sound$1
     00002991  A$sound$2 |    00002991  C$sound.c |    00002993  A$sound$2
     00002995  A$sound$2 |    00002995  C$sound.c |    00002995  XG$play_b
     00002996  A$sound$2 |    00002996  C$sound.c |    00002996  C$sound.c
     00002996  G$play_br |    00002996  _play_bre |    00002998  A$sound$2
     0000299A  A$sound$2 |    0000299A  C$sound.c |    0000299C  A$sound$2
     0000299E  A$sound$2 |    0000299E  C$sound.c |    000029A0  A$sound$2
     000029A2  A$sound$2 |    000029A2  C$sound.c |    000029A4  A$sound$2
     000029A6  A$sound$2 |    000029A6  C$sound.c |    000029A6  XG$play_b
     000029A7  A$sound$2 |    000029A7  C$sound.c |    000029A7  C$sound.c
     000029A7  G$play_hu |    000029A7  _play_hur |    000029A9  A$sound$2
     000029AB  A$sound$2 |    000029AB  C$sound.c |    000029AD  A$sound$2
     000029AF  A$sound$2 |    000029AF  C$sound.c |    000029B1  A$sound$2
     000029B3  A$sound$2 |    000029B3  C$sound.c |    000029B5  A$sound$2
     000029B7  A$sound$2 |    000029B7  C$sound.c |    000029B9  A$sound$2
     000029BB  A$sound$2 |    000029BB  C$sound.c |    000029BB  XG$play_h
     000029BC  A$sound$3 |    000029BC  C$sound.c |    000029BC  C$sound.c
     000029BC  G$stop_hu |    000029BC  _stop_hur |    000029BE  A$sound$3
     000029C0  A$sound$3 |    000029C0  C$sound.c |    000029C0  XG$stop_h
     000029C1  A$sound$3 |    000029C1  C$sound.c |    000029C1  C$sound.c
     000029C1  G$play_bo |    000029C1  _play_boi |    000029C3  A$sound$3
     000029C5  A$sound$3 |    000029C5  C$sound.c |    000029C7  A$sound$3
     000029C9  A$sound$3 |    000029C9  C$sound.c |    000029CB  A$sound$3
     000029CD  A$sound$3 |    000029CD  C$sound.c |    000029CE  A$sound$3
     000029D0  A$sound$3 |    000029D0  C$sound.c |    000029D2  A$sound$3
     000029D4  A$sound$3 |    000029D4  C$sound.c |    000029D4  XG$play_b
     000029D5  G$base_fl |    000029D5  _base_flo |    00002A75  G$hub_dat
ASxxxx Linker V03.00 + NoICE + sdld,  page 50.
Hexadecimal  [32-Bits]

Area                       Addr        Size        Decimal Bytes (Attributes)
--------------------       ----        ----        ------- ----- ------------
_CODE                  00000200    000037D3 =       14291. bytes (REL,CON)

        Value  Global            Value  Global            Value  Global    
        -----  ------            -----  ------            -----  ------    
     00002A75  _hub_data |    00003175  G$hub_map |    00003175  _hub_map 
     000033CD  G$hud_map |    000033CD  _hud_map  |    00003409  G$numbers
     00003409  _numbers  |    000034D9  G$playerS |    000034D9  _playerSp
     00003659  G$idle0$0 |    00003659  _idle0    |    0000366D  G$idle1$0
     0000366D  _idle1    |    00003681  G$idle2$0 |    00003681  _idle2   
     00003695  G$idle3$0 |    00003695  _idle3    |    000036A9  G$idle_me
     000036A9  _idle_met |    000036B1  G$idle_sp |    000036B1  _idle_spe
     000036B5  G$run0$0_ |    000036B5  _run0     |    000036C9  G$run1$0_
     000036C9  _run1     |    000036DD  G$run2$0_ |    000036DD  _run2    
     000036F1  G$run3$0_ |    000036F1  _run3     |    00003705  G$run4$0_
     00003705  _run4     |    00003719  G$run5$0_ |    00003719  _run5    
     0000372D  G$run_met |    0000372D  _run_meta |    00003739  G$run_spe
     00003739  _run_spee |    0000373F  G$jump0$0 |    0000373F  _jump0   
     00003753  G$jump_me |    00003753  _jump_met |    00003755  G$jump_sp
     00003755  _jump_spe |    00003756  G$fall0$0 |    00003756  _fall0   
     0000376A  G$fall_me |    0000376A  _fall_met |    0000376C  G$fall_sp
     0000376C  _fall_spe |    0000376D  G$hurt0$0 |    0000376D  _hurt0   
     00003781  G$hurt_me |    00003781  _hurt_met |    00003783  G$hurt_sp
     00003783  _hurt_spe |    00003784  G$metaspr |    00003784  _metaspri
     0000378E  G$metaspr |    0000378E  _metaspri |    00003798  G$frames_
     00003798  _frames_i |    0000379D  G$Sfx$0_0 |    0000379D  _Sfx     
     000037CD  G$base$0_ |    000037CD  _base     |    000037D9  G$bot_map
     000037D9  _bot_map_ |    000037E1  G$bot_map |    000037E1  _bot_map_
     000037E9  G$bot_map |    000037E9  _bot_map_ |    000037F1  G$bot_map
     000037F1  _bot_map_ |    000037FD  G$bot_map |    000037FD  _bot_map_
     00003805  G$bot_map |    00003805  _bot_map_ |    0000380D  G$top_map
     0000380D  _top_map_ |    00003811  G$top_map |    00003811  _top_map_
     00003815  G$top_map |    00003815  _top_map_ |    00003819  G$top_map
     00003819  _top_map_ |    00003821  G$top_map |    00003821  _top_map_
     00003825  G$bot_map |    00003825  _bot_map_ |    0000382D  G$top_map
     0000382D  _top_map_ |    00003831  _hide_spr |    00003861  ___hide_m
     00003888  ___move_m |    000038C7  ___move_m |    0000390A  ___move_m
     0000394D  ___move_m |    00003992  _set_vram |    000039A1  _set_win_
     000039A9  _set_bkg_
ASxxxx Linker V03.00 + NoICE + sdld,  page 51.
Hexadecimal  [32-Bits]

Area                       Addr        Size        Decimal Bytes (Attributes)
--------------------       ----        ----        ------- ----- ------------
_HEADER0               00000000    00000001 =           1. bytes (ABS,CON)

        Value  Global            Value  Global            Value  Global    
        -----  ------            -----  ------            -----  ------    
     00000020  .call_hl 
ASxxxx Linker V03.00 + NoICE + sdld,  page 52.
Hexadecimal  [32-Bits]

Area                       Addr        Size        Decimal Bytes (Attributes)
--------------------       ----        ----        ------- ----- ------------
_HEADER1               00000000    00000005 =           5. bytes (ABS,CON)

        Value  Global            Value  Global            Value  Global    
        -----  ------            -----  ------            -----  ------    
     00000028  .MemsetSm
ASxxxx Linker V03.00 + NoICE + sdld,  page 53.
Hexadecimal  [32-Bits]

Area                       Addr        Size        Decimal Bytes (Attributes)
--------------------       ----        ----        ------- ----- ------------
_HEADER2               00000000    00000007 =           7. bytes (ABS,CON)

        Value  Global            Value  Global            Value  Global    
        -----  ------            -----  ------            -----  ------    
     00000030  .MemcpySm
ASxxxx Linker V03.00 + NoICE + sdld,  page 54.
Hexadecimal  [32-Bits]

Area                       Addr        Size        Decimal Bytes (Attributes)
--------------------       ----        ----        ------- ----- ------------
_HEADER3               00000000    00000008 =           8. bytes (ABS,CON)

        Value  Global            Value  Global            Value  Global    
        -----  ------            -----  ------            -----  ------    
ASxxxx Linker V03.00 + NoICE + sdld,  page 55.
Hexadecimal  [32-Bits]

Area                       Addr        Size        Decimal Bytes (Attributes)
--------------------       ----        ----        ------- ----- ------------
_HEADER4               00000000    0000004E =          78. bytes (ABS,CON)

        Value  Global            Value  Global            Value  Global    
        -----  ------            -----  ------            -----  ------    
     00000080  .int      |    0000008F  _wait_int |    0000009C  __standar
     000000AC  _refresh_
ASxxxx Linker V03.00 + NoICE + sdld,  page 56.
Hexadecimal  [32-Bits]

Area                       Addr        Size        Decimal Bytes (Attributes)
--------------------       ----        ----        ------- ----- ------------
_HEADER5               00000000    00000002 =           2. bytes (ABS,CON)

        Value  Global            Value  Global            Value  Global    
        -----  ------            -----  ------            -----  ------    
ASxxxx Linker V03.00 + NoICE + sdld,  page 57.
Hexadecimal  [32-Bits]

Area                       Addr        Size        Decimal Bytes (Attributes)
--------------------       ----        ----        ------- ----- ------------
_HEADER6               00000000    00000030 =          48. bytes (ABS,CON)

        Value  Global            Value  Global            Value  Global    
        -----  ------            -----  ------            -----  ------    
ASxxxx Linker V03.00 + NoICE + sdld,  page 58.
Hexadecimal  [32-Bits]

Area                       Addr        Size        Decimal Bytes (Attributes)
--------------------       ----        ----        ------- ----- ------------
_HEADER7               00000000    00000006 =           6. bytes (ABS,CON)

        Value  Global            Value  Global            Value  Global    
        -----  ------            -----  ------            -----  ------    
ASxxxx Linker V03.00 + NoICE + sdld,  page 59.
Hexadecimal  [32-Bits]

Area                       Addr        Size        Decimal Bytes (Attributes)
--------------------       ----        ----        ------- ----- ------------
_HEADER8               00000000    00000003 =           3. bytes (ABS,CON)

        Value  Global            Value  Global            Value  Global    
        -----  ------            -----  ------            -----  ------    
ASxxxx Linker V03.00 + NoICE + sdld,  page 60.
Hexadecimal  [32-Bits]

Area                       Addr        Size        Decimal Bytes (Attributes)
--------------------       ----        ----        ------- ----- ------------
_HEADER9               00000000    00000001 =           1. bytes (ABS,CON)

        Value  Global            Value  Global            Value  Global    
        -----  ------            -----  ------            -----  ------    
ASxxxx Linker V03.00 + NoICE + sdld,  page 61.
Hexadecimal  [32-Bits]

Area                       Addr        Size        Decimal Bytes (Attributes)
--------------------       ----        ----        ------- ----- ------------
_HEADERa               00000000    00000001 =           1. bytes (ABS,CON)

        Value  Global            Value  Global            Value  Global    
        -----  ------            -----  ------            -----  ------    
ASxxxx Linker V03.00 + NoICE + sdld,  page 62.
Hexadecimal  [32-Bits]

Area                       Addr        Size        Decimal Bytes (Attributes)
--------------------       ----        ----        ------- ----- ------------
_HEADERb               00000000    00000001 =           1. bytes (ABS,CON)

        Value  Global            Value  Global            Value  Global    
        -----  ------            -----  ------            -----  ------    
ASxxxx Linker V03.00 + NoICE + sdld,  page 63.
Hexadecimal  [32-Bits]

Area                       Addr        Size        Decimal Bytes (Attributes)
--------------------       ----        ----        ------- ----- ------------
_HEADERc               00000000    00000002 =           2. bytes (ABS,CON)

        Value  Global            Value  Global            Value  Global    
        -----  ------            -----  ------            -----  ------    
ASxxxx Linker V03.00 + NoICE + sdld,  page 64.
Hexadecimal  [32-Bits]

Area                       Addr        Size        Decimal Bytes (Attributes)
--------------------       ----        ----        ------- ----- ------------
_HEADERd               00000000    00000001 =           1. bytes (ABS,CON)

        Value  Global            Value  Global            Value  Global    
        -----  ------            -----  ------            -----  ------    
ASxxxx Linker V03.00 + NoICE + sdld,  page 65.
Hexadecimal  [32-Bits]

Area                       Addr        Size        Decimal Bytes (Attributes)
--------------------       ----        ----        ------- ----- ------------
_HEADERe               00000000    00000001 =           1. bytes (ABS,CON)

        Value  Global            Value  Global            Value  Global    
        -----  ------            -----  ------            -----  ------    
ASxxxx Linker V03.00 + NoICE + sdld,  page 66.
Hexadecimal  [32-Bits]

Area                       Addr        Size        Decimal Bytes (Attributes)
--------------------       ----        ----        ------- ----- ------------
_HEADERf               00000000    00000002 =           2. bytes (ABS,CON)

        Value  Global            Value  Global            Value  Global    
        -----  ------            -----  ------            -----  ------    
ASxxxx Linker V03.00 + NoICE + sdld,  page 67.
Hexadecimal  [32-Bits]

Area                       Addr        Size        Decimal Bytes (Attributes)
--------------------       ----        ----        ------- ----- ------------
_HEADER10              00000000    00000082 =         130. bytes (ABS,CON)

        Value  Global            Value  Global            Value  Global    
        -----  ------            -----  ------            -----  ------    
     00000150  .reset    |    00000150  _reset    |    00000157  .code_sta
     000001B7  _exit     |    000001BB  _set_inte
ASxxxx Linker V03.00 + NoICE + sdld,  page 68.
Hexadecimal  [32-Bits]

Area                       Addr        Size        Decimal Bytes (Attributes)
--------------------       ----        ----        ------- ----- ------------
_HEADER11              00000000    00000001 =           1. bytes (ABS,CON)

        Value  Global            Value  Global            Value  Global    
        -----  ------            -----  ------            -----  ------    
ASxxxx Linker V03.00 + NoICE + sdld,  page 69.
Hexadecimal  [32-Bits]

Area                       Addr        Size        Decimal Bytes (Attributes)
--------------------       ----        ----        ------- ----- ------------
_HOME                  000039D3    0000035C =         860. bytes (REL,CON)

        Value  Global            Value  Global            Value  Global    
        -----  ------            -----  ------            -----  ------    
     000039D3  .memset_s |    000039DC  .memcpy_s |    000039F9  .remove_V
     000039FC  .remove_i |    00003A19  .add_VBL  |    00003A1C  .add_int 
     00003A27  .wait_vbl |    00003A27  _wait_vbl |    00003A37  .display_
     00003A37  _display_ |    00003A4F  _remove_V |    00003A5A  _add_VBL 
     00003A65  _rand     |    00003A65  _randw    |    00003A90  _initrand
     00003A92  .initrand |    00003A9B  _uitoa    |    00003AAA  _itoa    
     00003AB9  .itoa     |    00003ACD  .utoa     |    00003B41  __mulsuch
     00003B4B  __mulusch |    00003B55  __mulscha |    00003B67  __mulucha
     00003B73  __mulint  |    00003B99  _set_win_ |    00003BAD  _set_tile
     00003BB2  _set_bkg_ |    00003BB2  _set_win_ |    00003BBA  _set_spri
     00003C19  _add_LCD  |    00003C24  .add_LCD  |    00003C2A  _remove_L
     00003C35  .remove_L |    00003C3B  .padup    |    00003C3B  _waitpadu
     00003C4B  .jpad     |    00003C4B  _joypad   |    00003C73  _waitpad 
     00003C76  .wait_pad |    00003C7D  ___memcpy |    00003C7D  _memcpy  
     00003CC0  ___sdcc_c |    00003CC1  _set_bkg_ |    00003CD5  .set_xy_w
     00003CDE  .set_xy_b |    00003CED  .set_xy_t
ASxxxx Linker V03.00 + NoICE + sdld,  page 70.
Hexadecimal  [32-Bits]

Area                       Addr        Size        Decimal Bytes (Attributes)
--------------------       ----        ----        ------- ----- ------------
_INITIALIZER           00003D2F    00000104 =         260. bytes (REL,CON)

        Value  Global            Value  Global            Value  Global    
        -----  ------            -----  ------            -----  ------    
     00003D2F  Fplayer$_ |    00003D33  Fplayer$_ |    00003D41  Fbrick_pa
     00003D61  Fextra_sp |    00003DE1  Fpartly_b
ASxxxx Linker V03.00 + NoICE + sdld,  page 71.
Hexadecimal  [32-Bits]

Area                       Addr        Size        Decimal Bytes (Attributes)
--------------------       ----        ----        ------- ----- ------------
_GSINIT                00003E33    0000000C =          12. bytes (REL,CON)

        Value  Global            Value  Global            Value  Global    
        -----  ------            -----  ------            -----  ------    
     00003E33  gsinit   
ASxxxx Linker V03.00 + NoICE + sdld,  page 72.
Hexadecimal  [32-Bits]

Area                       Addr        Size        Decimal Bytes (Attributes)
--------------------       ----        ----        ------- ----- ------------
_GSFINAL               00003E3F    00000001 =           1. bytes (REL,CON)

        Value  Global            Value  Global            Value  Global    
        -----  ------            -----  ------            -----  ------    
ASxxxx Linker V03.00 + NoICE + sdld,  page 73.
Hexadecimal  [32-Bits]

Area                       Addr        Size        Decimal Bytes (Attributes)
--------------------       ----        ----        ------- ----- ------------
_DATA                  0000C0A0    00000196 =         406. bytes (REL,CON)

        Value  Global            Value  Global            Value  Global    
        -----  ------            -----  ------            -----  ------    
     0000C0A0  __cpu     |    0000C0A1  __is_GBA  |    0000C0A2  .mode    
     0000C0A3  .sys_time |    0000C0A3  _sys_time |    0000C0A5  .int_0x40
     0000C0B9  G$ending_ |    0000C0B9  _ending_f |    0000C0BA  Fending$s
     0000C0BB  Fending$f |    0000C0BC  Fending$w |    0000C0BE  Fending$m
     0000C0BF  Fending$s |    0000C0C4  Fending$i |    0000C0C5  G$i$0_0$0
     0000C0C5  _i        |    0000C0C6  Fmain$sco |    0000C0CB  G$player_
     0000C0CB  _player_d |    0000C0CC  Fplayer$f |    0000C0CD  Fplayer$c
     0000C0CE  G$a_not_p |    0000C0CE  _a_not_pr |    0000C0CF  Fplayer$i
     0000C0D0  Fplayer$j |    0000C0D1  Fplayer$x |    0000C0D2  Fplayer$x
     0000C0D3  Fplayer$i |    0000C0D4  Fplayer$i |    0000C0D5  Fplayer$i
     0000C0D6  Fplayer$y |    0000C0D7  Fplayer$p |    0000C0D8  Fplayer$p
     0000C0D9  Fplayer$l |    0000C0DA  Fplayer$l |    0000C0DB  Fplayer$c
     0000C0DC  Fplayer$c |    0000C0DD  G$score$0 |    0000C0DD  _score   
     0000C0DF  Fplayer$m |    0000C0E0  Fplayer$t |    0000C0E1  Fplayer$h
     0000C0E2  Fplayer$n |    0000C0E3  Fplayer$b |    0000C0E4  Fplayer$b
     0000C0E5  Fscene$i$ |    0000C0E6  G$rand_in |    0000C0E6  _rand_ini
     0000C0E7  G$r$0_0$0 |    0000C0E7  _r        |    0000C0E8  Fscene$wi
     0000C0EC  G$camera_ |    0000C0EC  _camera_y |    0000C0ED  G$old_cam
     0000C0ED  _old_came |    0000C0EE  G$camera_ |    0000C0EE  _camera_y
     0000C0EF  G$old_cam |    0000C0EF  _old_came |    0000C0F0  Fscene$fr
     0000C0F1  Fscene$cu |    0000C0F2  Fscene$ac |    0000C0F3  G$game_st
     0000C0F3  _game_sta |    0000C0F4  G$game_en |    0000C0F4  _game_end
     0000C0F5  G$rect_li |    0000C0F5  _rect_lis |    0000C195  G$map_com
     0000C195  _map_comp |    0000C1B5  Fscene$ne |    0000C1B6  Fscene$wa
     0000C1B7  Fscene$ma |    0000C1B8  Fscene$wi |    0000C218  G$clothes
     0000C218  _clothes_ |    0000C21C  G$clothes |    0000C21C  _clothes_
     0000C21D  G$deactiv |    0000C21D  _deactiva |    0000C21E  Fscene$we
     0000C21F  Fscene$is |    0000C220  Lscene.me |    0000C221  ___rand_s
     0000C223  .int_0x48 |    0000C233  ___curren |    0000C235  ___curren
ASxxxx Linker V03.00 + NoICE + sdld,  page 74.
Hexadecimal  [32-Bits]

Area                       Addr        Size        Decimal Bytes (Attributes)
--------------------       ----        ----        ------- ----- ------------
_INITIALIZED           0000C236    00000104 =         260. bytes (REL,CON)

        Value  Global            Value  Global            Value  Global    
        -----  ------            -----  ------            -----  ------    
     0000C236  Fplayer$p |    0000C23A  Fplayer$r |    0000C248  G$brick_p
     0000C248  _brick_pa |    0000C268  G$extra_s |    0000C268  _extra_sp
     0000C2E8  G$partly_ |    0000C2E8  _partly_b |    0000C338  ___render
     0000C339  __map_til
ASxxxx Linker V03.00 + NoICE + sdld,  page 75.
Hexadecimal  [32-Bits]

Area                       Addr        Size        Decimal Bytes (Attributes)
--------------------       ----        ----        ------- ----- ------------
_HRAM12                00000000    00000003 =           3. bytes (ABS,CON)

        Value  Global            Value  Global            Value  Global    
        -----  ------            -----  ------            -----  ------    
     0000FF90  __current |    0000FF92  __shadow_
ASxxxx Linker V03.00 + NoICE + sdld,  page 76.
Hexadecimal  [32-Bits]

Area                       Addr        Size        Decimal Bytes (Attributes)
--------------------       ----        ----        ------- ----- ------------
_HEADER_LCD0           00000000    00000003 =           3. bytes (ABS,CON)

        Value  Global            Value  Global            Value  Global    
        -----  ------            -----  ------            -----  ------    
ASxxxx Linker V03.00 + NoICE + sdld,  page 77.

Files Linked                              [ module(s) ]

C:\gbdk\lib/small/asxxxx/gb/crt0.o        [ Runtime ]
obj/ending.o                              [ ending ]
obj/main.o                                [ main ]
obj/player.o                              [ player ]
obj/scene.o                               [ scene ]
obj/sound.o                               [ sound ]
obj/base_floor_map.o                      [ base_floor_map ]
obj/brick_particle.o                      [ brick_particle ]
obj/extra_sprites.o                       [ extra_sprites ]
obj/hub_data.o                            [ hub_data ]
obj/hub_map.o                             [ hub_map ]
obj/hud_map.o                             [ hud_map ]
obj/Numbers.o                             [ Numbers ]
obj/partly_broken_bricks.o                [ partly_broken_bricks ]
obj/PlayerSprites.o                       [ PlayerSprites ]
obj/Sfx.o                                 [ Sfx ]
obj/window_maps.o                         [ window_maps ]


Libraries Linked                          [ object file ]

C:\gbdk\lib/small/asxxxx/gb/gb.lib        [ sfr.o ]
C:\gbdk\lib/small/asxxxx/gbz80/gbz80.lib  [ rand.o ]
C:\gbdk\lib/small/asxxxx/gbz80/gbz80.lib  [ itoa.o ]
C:\gbdk\lib/small/asxxxx/gb/gb.lib        [ metasprites_hide_spr.o ]
C:\gbdk\lib/small/asxxxx/gb/gb.lib        [ metasprites_hide.o ]
C:\gbdk\lib/small/asxxxx/gbz80/gbz80.lib  [ mul.o ]
C:\gbdk\lib/small/asxxxx/gb/gb.lib        [ set_wi_t.o ]
C:\gbdk\lib/small/asxxxx/gb/gb.lib        [ set_data.o ]
C:\gbdk\lib/small/asxxxx/gb/gb.lib        [ lcd.o ]
C:\gbdk\lib/small/asxxxx/gb/gb.lib        [ pad.o ]
C:\gbdk\lib/small/asxxxx/gb/gb.lib        [ metasprites.o ]
C:\gbdk\lib/small/asxxxx/gbz80/gbz80.lib  [ _memcpy.o ]
C:\gbdk\lib/small/asxxxx/gbz80/gbz80.lib  [ __sdcc_call_hl.o ]
C:\gbdk\lib/small/asxxxx/gb/gb.lib        [ metasprites_flip.o ]
C:\gbdk\lib/small/asxxxx/gb/gb.lib        [ set_tile.o ]
C:\gbdk\lib/small/asxxxx/gb/gb.lib        [ set_bk_t.o ]
C:\gbdk\lib/small/asxxxx/gb/gb.lib        [ set_xy_t.o ]

ASxxxx Linker V03.00 + NoICE + sdld,  page 78.

User Base Address Definitions

_DATA=0xC0A0
_CODE=0x0200
ASxxxx Linker V03.00 + NoICE + sdld,  page 79.

User Global Definitions

_shadow_OAM=0xC000
.STACK=0xE000
.refresh_OAM=0xFF80

