ASxxxx Linker V03.00 + NoICE + sdld,  page 1.
Hexadecimal  [32-Bits]

Area                       Addr        Size        Decimal Bytes (Attributes)
--------------------       ----        ----        ------- ----- ------------
.  .ABS.               00000000    00000000 =           0. bytes (ABS,CON)

        Value  Global            Value  Global            Value  Global    
        -----  ------            -----  ------            -----  ------    
     00000000  .__.ABS.  |    00000000  _rRAMG    |    00000000  l__BASE  
     00000000  l__BSS    |    00000000  l__CABS   |    00000000  l__CODE_0
     00000000  l__DABS   |    00000000  l__HEADER |    00000000  l__HEADER
     00000000  l__HEAP   |    00000000  l__HRAM   |    00000000  l__LIT   
     00000000  s__CABS   |    00000000  s__DABS   |    00000000  s__HEADER
     00000000  s__HEADER |    00000000  s__HEADER |    00000000  s__HEADER
     00000000  s__HEADER |    00000000  s__HEADER |    00000000  s__HEADER
     00000000  s__HEADER |    00000000  s__HEADER |    00000000  s__HEADER
     00000000  s__HEADER |    00000000  s__HEADER |    00000000  s__HEADER
     00000000  s__HEADER |    00000000  s__HEADER |    00000000  s__HEADER
     00000000  s__HEADER |    00000000  s__HEADER |    00000000  s__HEADER
     00000000  s__HEADER |    00000000  s__HEADER |    00000000  s__HRAM  
     00000000  s__HRAM12 |    00000001  l__GSFINA |    00000001  l__HEADER
     00000001  l__HEADER |    00000001  l__HEADER |    00000001  l__HEADER
     00000001  l__HEADER |    00000001  l__HEADER |    00000001  l__HEADER
     00000002  l__HEADER |    00000002  l__HEADER |    00000002  l__HEADER
     00000003  l__HEADER |    00000003  l__HEADER |    00000003  l__HRAM12
     00000005  l__HEADER |    00000006  l__HEADER |    00000007  l__HEADER
     00000008  l__HEADER |    0000000C  l__GSINIT |    00000030  l__HEADER
     0000004E  l__HEADER |    00000082  l__HEADER |    00000104  l__INITIA
     00000104  l__INITIA |    00000196  l__DATA   |    00000200  s__CODE  
     0000035C  l__HOME   |    00002000  _rROMB0   |    00003000  _rROMB1  
     000037CF  l__CODE   |    000039CF  s__HOME   |    00003D2B  s__BASE  
     00003D2B  s__CODE_0 |    00003D2B  s__INITIA |    00003D2B  s__LIT   
     00003E2F  s__GSINIT |    00003E3B  s__GSFINA |    00004000  _rRAMB   
     00008000  __VRAM    |    00008000  __VRAM800 |    00008800  __VRAM880
     00009000  __VRAM900 |    00009800  __SCRN0   |    00009C00  __SCRN1  
     0000A000  __SRAM    |    0000C000  __RAM     |    0000C000  _shadow_O
     0000C0A0  s__DATA   |    0000C236  s__BSS    |    0000C236  s__INITIA
     0000C33A  s__HEAP   |    0000D000  __RAMBANK |    0000E000  .STACK   
     0000FE00  __OAMRAM  |    0000FF00  _P1_REG   |    0000FF00  __IO     
     0000FF01  _SB_REG   |    0000FF02  _SC_REG   |    0000FF04  _DIV_REG 
     0000FF05  _TIMA_REG |    0000FF06  _TMA_REG  |    0000FF07  _TAC_REG 
     0000FF0F  _IF_REG   |    0000FF10  _NR10_REG |    0000FF11  _NR11_REG
     0000FF12  _NR12_REG |    0000FF13  _NR13_REG |    0000FF14  _NR14_REG
     0000FF16  _NR21_REG |    0000FF17  _NR22_REG |    0000FF18  _NR23_REG
     0000FF19  _NR24_REG |    0000FF1A  _NR30_REG |    0000FF1B  _NR31_REG
     0000FF1C  _NR32_REG |    0000FF1D  _NR33_REG |    0000FF1E  _NR34_REG
     0000FF20  _NR41_REG |    0000FF21  _NR42_REG |    0000FF22  _NR43_REG
     0000FF23  _NR44_REG |    0000FF24  _NR50_REG |    0000FF25  _NR51_REG
     0000FF26  _NR52_REG |    0000FF30  _AUD3WAVE |    0000FF30  _PCM_SAMP
     0000FF30  __AUD3WAV |    0000FF40  _LCDC_REG |    0000FF41  _STAT_REG
     0000FF42  _SCY_REG  |    0000FF43  _SCX_REG  |    0000FF44  _LY_REG  
     0000FF45  _LYC_REG  |    0000FF46  _DMA_REG  |    0000FF47  _BGP_REG 
     0000FF48  _OBP0_REG |    0000FF49  _OBP1_REG |    0000FF4A  _WY_REG  
     0000FF4B  _WX_REG   |    0000FF4D  _KEY1_REG |    0000FF4F  _VBK_REG 
     0000FF51  _HDMA1_RE |    0000FF52  _HDMA2_RE |    0000FF53  _HDMA3_RE
     0000FF54  _HDMA4_RE |    0000FF55  _HDMA5_RE |    0000FF56  _RP_REG  
     0000FF68  _BCPS_REG |    0000FF69  _BCPD_REG |    0000FF6A  _OCPS_REG
     0000FF6B  _OCPD_REG |    0000FF70  _SVBK_REG |    0000FF76  _PCM12_RE
ASxxxx Linker V03.00 + NoICE + sdld,  page 2.
Hexadecimal  [32-Bits]

Area                       Addr        Size        Decimal Bytes (Attributes)
--------------------       ----        ----        ------- ----- ------------
.  .ABS.               00000000    00000000 =           0. bytes (ABS,CON)

        Value  Global            Value  Global            Value  Global    
        -----  ------            -----  ------            -----  ------    
     0000FF77  _PCM34_RE |    0000FF80  .refresh_ |    0000FF80  __HRAM   
     0000FFFF  _IE_REG  
ASxxxx Linker V03.00 + NoICE + sdld,  page 3.
Hexadecimal  [32-Bits]

Area                       Addr        Size        Decimal Bytes (Attributes)
--------------------       ----        ----        ------- ----- ------------
_CODE                  00000200    000037CF =       14287. bytes (REL,CON)

        Value  Global            Value  Global            Value  Global    
        -----  ------            -----  ------            -----  ------    
     00000200  A$ending$ |    00000200  C$ending. |    00000200  C$ending.
     00000200  G$VBL_isr |    00000200  _VBL_isr  |    00000202  A$ending$
     00000204  A$ending$ |    00000206  A$ending$ |    00000206  C$ending.
     00000209  A$ending$ |    0000020B  A$ending$ |    0000020B  C$ending.
     0000020B  XG$VBL_is |    0000020C  A$ending$ |    0000020C  C$ending.
     0000020C  C$ending. |    0000020C  G$LCD_isr |    0000020C  _LCD_isr 
     0000020E  A$ending$ |    00000210  A$ending$ |    00000211  A$ending$
     00000213  A$ending$ |    00000215  A$ending$ |    00000217  A$ending$
     00000217  C$ending. |    00000217  XG$LCD_is |    00000218  A$ending$
     00000218  C$ending. |    00000218  C$ending. |    00000218  G$ending_
     00000218  _ending_i |    0000021B  A$ending$ |    0000021D  A$ending$
     0000021D  C$ending. |    00000220  A$ending$ |    00000221  A$ending$
     00000224  A$ending$ |    00000225  A$ending$ |    00000225  C$ending.
     00000228  A$ending$ |    00000229  A$ending$ |    0000022C  A$ending$
     0000022D  A$ending$ |    00000230  A$ending$ |    00000232  A$ending$
     00000235  A$ending$ |    00000237  A$ending$ |    0000023A  A$ending$
     0000023C  A$ending$ |    0000023F  A$ending$ |    00000241  A$ending$
     00000244  A$ending$ |    00000246  A$ending$ |    00000249  A$ending$
     0000024B  A$ending$ |    0000024B  C$ending. |    0000024B  C$ending.
     0000024B  XG$ending |    0000024C  A$ending$ |    0000024C  C$ending.
     0000024C  Fending$p |    0000024D  A$ending$ |    0000024D  C$ending.
     00000250  A$ending$ |    00000252  A$ending$ |    00000255  A$ending$
     00000255  C$ending. |    00000258  A$ending$ |    00000259  A$ending$
     0000025B  A$ending$ |    0000025C  A$ending$ |    0000025C  C$ending.
     0000025F  A$ending$ |    00000260  A$ending$ |    00000261  A$ending$
     00000263  A$ending$ |    00000263  C$ending. |    00000266  A$ending$
     00000268  A$ending$ |    00000268  C$ending. |    0000026B  A$ending$
     0000026C  A$ending$ |    0000026F  A$ending$ |    00000270  A$ending$
     00000271  A$ending$ |    00000272  A$ending$ |    00000273  A$ending$
     00000276  A$ending$ |    00000278  A$ending$ |    00000278  C$ending.
     0000027B  A$ending$ |    0000027C  A$ending$ |    0000027D  A$ending$
     00000280  A$ending$ |    00000281  A$ending$ |    00000284  A$ending$
     00000285  A$ending$ |    00000286  A$ending$ |    00000288  A$ending$
     00000289  A$ending$ |    0000028A  A$ending$ |    0000028B  A$ending$
     0000028C  A$ending$ |    0000028F  A$ending$ |    00000291  A$ending$
     00000292  A$ending$ |    00000295  A$ending$ |    00000297  A$ending$
     00000298  A$ending$ |    0000029B  A$ending$ |    0000029C  A$ending$
     0000029D  A$ending$ |    0000029E  A$ending$ |    000002A0  A$ending$
     000002A1  A$ending$ |    000002A2  A$ending$ |    000002A4  A$ending$
     000002A5  A$ending$ |    000002A6  A$ending$ |    000002A7  A$ending$
     000002A9  A$ending$ |    000002AC  A$ending$ |    000002AE  A$ending$
     000002B0  A$ending$ |    000002B0  C$ending. |    000002B2  A$ending$
     000002B3  A$ending$ |    000002B5  A$ending$ |    000002B6  A$ending$
     000002B6  C$ending. |    000002B9  A$ending$ |    000002BA  A$ending$
     000002BC  A$ending$ |    000002BC  C$ending. |    000002BD  A$ending$
     000002BF  A$ending$ |    000002C0  A$ending$ |    000002C1  A$ending$
     000002C4  A$ending$ |    000002C5  A$ending$ |    000002C7  A$ending$
     000002C8  A$ending$ |    000002CA  A$ending$ |    000002CB  A$ending$
     000002CC  A$ending$ |    000002CF  A$ending$ |    000002D1  A$ending$
     000002D1  C$ending. |    000002D4  A$ending$ |    000002D5  A$ending$
ASxxxx Linker V03.00 + NoICE + sdld,  page 4.
Hexadecimal  [32-Bits]

Area                       Addr        Size        Decimal Bytes (Attributes)
--------------------       ----        ----        ------- ----- ------------
_CODE                  00000200    000037CF =       14287. bytes (REL,CON)

        Value  Global            Value  Global            Value  Global    
        -----  ------            -----  ------            -----  ------    
     000002D7  A$ending$ |    000002D9  A$ending$ |    000002DA  A$ending$
     000002DB  A$ending$ |    000002DD  A$ending$ |    000002DE  A$ending$
     000002DF  A$ending$ |    000002E0  A$ending$ |    000002E1  A$ending$
     000002E4  A$ending$ |    000002E6  A$ending$ |    000002E9  A$ending$
     000002EB  A$ending$ |    000002EE  A$ending$ |    000002F0  A$ending$
     000002F3  A$ending$ |    000002F5  A$ending$ |    000002F8  A$ending$
     000002FA  A$ending$ |    000002FD  A$ending$ |    000002FF  A$ending$
     00000302  A$ending$ |    00000304  A$ending$ |    00000307  A$ending$
     00000309  A$ending$ |    0000030C  A$ending$ |    0000030E  A$ending$
     0000030E  C$ending. |    00000311  A$ending$ |    00000313  A$ending$
     00000313  C$ending. |    00000314  A$ending$ |    00000314  C$ending.
     00000317  A$ending$ |    00000318  A$ending$ |    0000031B  A$ending$
     0000031C  A$ending$ |    0000031C  C$ending. |    0000031F  A$ending$
     00000320  A$ending$ |    00000323  A$ending$ |    00000324  A$ending$
     00000324  C$ending. |    00000326  A$ending$ |    00000327  A$ending$
     00000328  A$ending$ |    0000032B  A$ending$ |    0000032C  A$ending$
     0000032C  C$ending. |    0000032E  A$ending$ |    00000330  A$ending$
     00000332  A$ending$ |    00000332  C$ending. |    00000334  A$ending$
     00000336  A$ending$ |    00000337  A$ending$ |    00000338  A$ending$
     00000338  C$ending. |    00000338  XFending$ |    00000339  A$ending$
     00000339  C$ending. |    00000339  C$ending. |    00000339  G$compute
     00000339  _compute_ |    0000033C  A$ending$ |    0000033F  A$ending$
     00000340  A$ending$ |    00000341  A$ending$ |    00000343  A$ending$
     00000345  A$ending$ |    00000346  A$ending$ |    00000348  A$ending$
     00000349  A$ending$ |    0000034B  A$ending$ |    0000034E  A$ending$
     0000034F  A$ending$ |    00000351  A$ending$ |    00000354  A$ending$
     00000356  A$ending$ |    00000357  A$ending$ |    0000035A  A$ending$
     0000035B  A$ending$ |    0000035C  A$ending$ |    0000035E  A$ending$
     00000361  A$ending$ |    00000363  A$ending$ |    00000366  A$ending$
     00000367  A$ending$ |    00000369  A$ending$ |    0000036C  A$ending$
     0000036E  A$ending$ |    0000036F  A$ending$ |    00000372  A$ending$
     00000373  A$ending$ |    00000374  A$ending$ |    00000376  A$ending$
     00000379  A$ending$ |    0000037A  A$ending$ |    0000037D  A$ending$
     0000037E  A$ending$ |    0000037F  A$ending$ |    00000381  A$ending$
     00000384  A$ending$ |    00000385  A$ending$ |    00000388  A$ending$
     00000389  A$ending$ |    0000038A  A$ending$ |    0000038C  A$ending$
     0000038C  C$ending. |    0000038E  A$ending$ |    00000391  A$ending$
     00000392  A$ending$ |    00000394  A$ending$ |    00000394  C$ending.
     00000397  A$ending$ |    00000398  A$ending$ |    0000039A  A$ending$
     0000039B  A$ending$ |    0000039E  A$ending$ |    000003A0  A$ending$
     000003A3  A$ending$ |    000003A5  A$ending$ |    000003A5  C$ending.
     000003A7  A$ending$ |    000003A7  C$ending. |    000003AA  A$ending$
     000003AB  A$ending$ |    000003AD  A$ending$ |    000003AD  C$ending.
     000003B0  A$ending$ |    000003B1  A$ending$ |    000003B3  A$ending$
     000003B4  A$ending$ |    000003B4  C$ending. |    000003B5  A$ending$
     000003B7  A$ending$ |    000003B8  A$ending$ |    000003B8  C$ending.
     000003BB  A$ending$ |    000003BD  A$ending$ |    000003C0  A$ending$
     000003C2  A$ending$ |    000003C5  A$ending$ |    000003C7  A$ending$
     000003C7  C$ending. |    000003C7  C$ending. |    000003CA  A$ending$
     000003CB  A$ending$ |    000003CB  C$ending. |    000003CD  A$ending$
     000003CF  A$ending$ |    000003CF  C$ending. |    000003D2  A$ending$
ASxxxx Linker V03.00 + NoICE + sdld,  page 5.
Hexadecimal  [32-Bits]

Area                       Addr        Size        Decimal Bytes (Attributes)
--------------------       ----        ----        ------- ----- ------------
_CODE                  00000200    000037CF =       14287. bytes (REL,CON)

        Value  Global            Value  Global            Value  Global    
        -----  ------            -----  ------            -----  ------    
     000003D3  A$ending$ |    000003D5  A$ending$ |    000003D6  A$ending$
     000003D6  C$ending. |    000003D8  A$ending$ |    000003DA  A$ending$
     000003DD  A$ending$ |    000003E0  A$ending$ |    000003E1  A$ending$
     000003E3  A$ending$ |    000003E6  A$ending$ |    000003E9  A$ending$
     000003EA  A$ending$ |    000003ED  A$ending$ |    000003EE  A$ending$
     000003EE  C$ending. |    000003EF  A$ending$ |    000003F1  A$ending$
     000003F2  A$ending$ |    000003F3  A$ending$ |    000003F4  A$ending$
     000003F5  A$ending$ |    000003F7  A$ending$ |    000003F9  A$ending$
     000003FA  A$ending$ |    000003FD  A$ending$ |    000003FE  A$ending$
     000003FF  A$ending$ |    00000400  A$ending$ |    00000401  A$ending$
     00000402  A$ending$ |    00000403  A$ending$ |    00000405  A$ending$
     00000408  A$ending$ |    00000409  A$ending$ |    0000040A  A$ending$
     0000040B  A$ending$ |    0000040C  A$ending$ |    0000040D  A$ending$
     0000040E  A$ending$ |    00000411  A$ending$ |    00000412  A$ending$
     00000413  A$ending$ |    00000414  A$ending$ |    00000414  C$ending.
     00000415  A$ending$ |    00000417  A$ending$ |    0000041A  A$ending$
     0000041A  C$ending. |    0000041A  XG$comput |    0000041B  A$main$76
     0000041B  C$main.c$ |    0000041B  G$perform |    0000041B  _performa
     0000041D  A$main$78 |    0000041E  A$main$79 |    00000420  A$main$80
     00000421  A$main$81 |    00000422  A$main$85 |    00000422  C$main.c$
     00000425  A$main$89 |    00000425  C$main.c$ |    00000426  A$main$97
     00000426  C$main.c$ |    00000426  XG$perfor |    00000428  A$main$11
     00000428  C$main.c$ |    00000428  C$main.c$ |    00000428  G$main$0$
     00000428  _main     |    0000042B  A$main$11 |    0000042B  C$main.c$
     0000042B  C$main.c$ |    0000042E  A$main$12 |    0000042E  C$main.c$
     00000431  A$main$12 |    00000431  C$main.c$ |    00000434  A$main$13
     00000434  C$main.c$ |    00000437  A$main$13 |    00000437  C$main.c$
     00000437  XG$main$0 |    00000439  A$main$15 |    00000439  C$main.c$
     00000439  C$main.c$ |    00000439  G$reset_g |    00000439  _reset_ga
     0000043C  A$main$15 |    0000043E  A$main$15 |    0000043F  A$main$15
     0000043F  C$main.c$ |    00000442  A$main$16 |    00000442  C$main.c$
     00000445  A$main$16 |    00000447  A$main$16 |    00000448  A$main$16
     0000044B  A$main$16 |    0000044D  A$main$16 |    0000044E  A$main$16
     00000451  A$main$16 |    00000452  A$main$16 |    00000453  A$main$17
     00000453  C$main.c$ |    00000456  A$main$17 |    00000456  C$main.c$
     00000459  A$main$18 |    00000459  C$main.c$ |    00000459  C$main.c$
     00000459  XG$reset_ |    0000045C  A$main$20 |    0000045C  C$main.c$
     0000045C  C$main.c$ |    0000045C  G$init_gf |    0000045C  _init_gfx
     0000045F  A$main$20 |    0000045F  C$main.c$ |    00000462  A$main$20
     00000462  C$main.c$ |    00000465  A$main$21 |    00000465  C$main.c$
     00000468  A$main$21 |    00000468  C$main.c$ |    0000046A  A$main$21
     0000046C  A$main$21 |    0000046E  A$main$22 |    00000470  A$main$22
     00000472  A$main$22 |    00000474  A$main$22 |    00000476  A$main$22
     00000478  A$main$22 |    0000047A  A$main$23 |    0000047A  C$main.c$
     0000047A  XG$init_g |    0000047B  A$main$24 |    0000047B  C$main.c$
     0000047B  G$fadeout |    0000047B  _fadeout  |    0000047E  A$main$24
     00000480  A$main$25 |    00000480  C$main.c$ |    00000483  A$main$25
     00000484  A$main$25 |    00000486  A$main$25 |    00000489  A$main$25
     0000048A  A$main$25 |    0000048C  A$main$25 |    0000048F  A$main$25
     00000491  A$main$26 |    00000493  A$main$26 |    00000496  A$main$26
     00000498  A$main$26 |    0000049A  A$main$26 |    0000049C  A$main$27
ASxxxx Linker V03.00 + NoICE + sdld,  page 6.
Hexadecimal  [32-Bits]

Area                       Addr        Size        Decimal Bytes (Attributes)
--------------------       ----        ----        ------- ----- ------------
_CODE                  00000200    000037CF =       14287. bytes (REL,CON)

        Value  Global            Value  Global            Value  Global    
        -----  ------            -----  ------            -----  ------    
     0000049C  C$main.c$ |    0000049C  C$main.c$ |    0000049E  A$main$27
     000004A0  A$main$27 |    000004A0  C$main.c$ |    000004A2  A$main$27
     000004A4  A$main$28 |    000004A4  C$main.c$ |    000004A6  A$main$29
     000004A6  C$main.c$ |    000004A6  C$main.c$ |    000004A8  A$main$29
     000004AA  A$main$29 |    000004AA  C$main.c$ |    000004AC  A$main$29
     000004AE  A$main$30 |    000004AE  C$main.c$ |    000004B0  A$main$30
     000004B0  C$main.c$ |    000004B0  C$main.c$ |    000004B2  A$main$30
     000004B4  A$main$31 |    000004B4  C$main.c$ |    000004B6  A$main$31
     000004B8  A$main$31 |    000004B8  C$main.c$ |    000004BA  A$main$32
     000004BA  C$main.c$ |    000004BA  C$main.c$ |    000004BC  A$main$32
     000004BE  A$main$33 |    000004BE  C$main.c$ |    000004C0  A$main$33
     000004C2  A$main$34 |    000004C2  C$main.c$ |    000004C2  C$main.c$
     000004C4  A$main$34 |    000004C5  A$main$34 |    000004C6  A$main$34
     000004C9  A$main$34 |    000004CA  A$main$34 |    000004CA  C$main.c$
     000004CD  A$main$34 |    000004CE  A$main$35 |    000004CF  A$main$35
     000004D1  A$main$35 |    000004D3  A$main$36 |    000004D3  C$main.c$
     000004D3  XG$fadeou |    000004D4  A$main$37 |    000004D4  C$main.c$
     000004D4  G$fadein$ |    000004D4  _fadein   |    000004D7  A$main$37
     000004D9  A$main$37 |    000004D9  C$main.c$ |    000004DC  A$main$38
     000004DD  A$main$38 |    000004DF  A$main$38 |    000004E2  A$main$38
     000004E3  A$main$38 |    000004E5  A$main$38 |    000004E8  A$main$38
     000004EA  A$main$38 |    000004EC  A$main$38 |    000004EE  A$main$39
     000004EE  C$main.c$ |    000004EE  C$main.c$ |    000004F0  A$main$39
     000004F2  A$main$40 |    000004F2  C$main.c$ |    000004F4  A$main$40
     000004F6  A$main$40 |    000004F6  C$main.c$ |    000004F8  A$main$41
     000004F8  C$main.c$ |    000004F8  C$main.c$ |    000004FA  A$main$41
     000004FC  A$main$41 |    000004FC  C$main.c$ |    000004FE  A$main$42
     00000500  A$main$42 |    00000500  C$main.c$ |    00000502  A$main$43
     00000502  C$main.c$ |    00000502  C$main.c$ |    00000504  A$main$43
     00000506  A$main$43 |    00000506  C$main.c$ |    00000508  A$main$43
     0000050A  A$main$44 |    0000050A  C$main.c$ |    0000050A  C$main.c$
     0000050C  A$main$44 |    0000050D  A$main$44 |    0000050E  A$main$44
     00000511  A$main$45 |    00000512  A$main$45 |    00000512  C$main.c$
     00000515  A$main$45 |    00000516  A$main$45 |    00000517  A$main$45
     00000519  A$main$45 |    0000051B  A$main$46 |    0000051B  C$main.c$
     0000051B  XG$fadein |    0000051C  A$player$ |    0000051C  C$player.
     0000051C  C$player. |    0000051C  G$player_ |    0000051C  _player_i
     0000051F  A$player$ |    00000521  A$player$ |    00000521  C$player.
     00000523  A$player$ |    00000525  A$player$ |    00000525  C$player.
     00000528  A$player$ |    00000529  A$player$ |    0000052C  A$player$
     0000052D  A$player$ |    00000530  A$player$ |    00000532  A$player$
     00000532  C$player. |    00000535  A$player$ |    00000536  A$player$
     00000539  A$player$ |    0000053A  A$player$ |    0000053D  A$player$
     0000053F  A$player$ |    0000053F  C$player. |    00000542  A$player$
     00000544  A$player$ |    00000544  C$player. |    00000547  A$player$
     00000549  A$player$ |    00000549  C$player. |    0000054C  A$player$
     0000054E  A$player$ |    0000054E  C$player. |    00000551  A$player$
     00000553  A$player$ |    00000553  C$player. |    00000556  A$player$
     00000558  A$player$ |    00000558  C$player. |    0000055B  A$player$
     0000055D  A$player$ |    0000055D  C$player. |    00000560  A$player$
     00000562  A$player$ |    00000565  A$player$ |    00000567  A$player$
ASxxxx Linker V03.00 + NoICE + sdld,  page 7.
Hexadecimal  [32-Bits]

Area                       Addr        Size        Decimal Bytes (Attributes)
--------------------       ----        ----        ------- ----- ------------
_CODE                  00000200    000037CF =       14287. bytes (REL,CON)

        Value  Global            Value  Global            Value  Global    
        -----  ------            -----  ------            -----  ------    
     00000567  C$player. |    0000056A  A$player$ |    0000056C  A$player$
     0000056F  A$player$ |    00000571  A$player$ |    00000571  C$player.
     00000574  A$player$ |    00000576  A$player$ |    00000576  C$player.
     00000579  A$player$ |    0000057B  A$player$ |    0000057B  C$player.
     0000057E  A$player$ |    00000580  A$player$ |    00000580  C$player.
     00000581  A$player$ |    00000584  A$player$ |    00000585  A$player$
     00000586  A$player$ |    00000586  C$player. |    00000589  A$player$
     0000058B  A$player$ |    0000058B  C$player. |    0000058E  A$player$
     00000590  A$player$ |    00000590  C$player. |    00000593  A$player$
     00000595  A$player$ |    00000595  C$player. |    00000598  A$player$
     0000059A  A$player$ |    0000059A  C$player. |    0000059D  A$player$
     0000059F  A$player$ |    000005A2  A$player$ |    000005A3  A$player$
     000005A4  A$player$ |    000005A5  A$player$ |    000005A8  A$player$
     000005A9  A$player$ |    000005AA  A$player$ |    000005AB  A$player$
     000005AE  A$player$ |    000005B0  A$player$ |    000005B3  A$player$
     000005B4  A$player$ |    000005B5  A$player$ |    000005B6  A$player$
     000005B7  A$player$ |    000005BA  A$player$ |    000005BC  A$player$
     000005BC  C$player. |    000005BF  A$player$ |    000005C0  A$player$
     000005C3  A$player$ |    000005C4  A$player$ |    000005C7  A$player$
     000005C9  A$player$ |    000005CC  A$player$ |    000005CE  A$player$
     000005D1  A$player$ |    000005D3  A$player$ |    000005D6  A$player$
     000005D8  A$player$ |    000005DB  A$player$ |    000005DD  A$player$
     000005DD  C$player. |    000005E0  A$player$ |    000005E2  A$player$
     000005E2  C$player. |    000005E2  XG$player |    000005E3  G$jump_g$
     000005E3  _jump_g   |    000005E4  G$fall_g$ |    000005E4  _fall_g  
     000005E5  G$impulse |    000005E5  _impulse  |    000005E6  G$jump_po
     000005E6  _jump_pow |    000005E7  G$clamp_x |    000005E7  _clamp_x_
     000005E8  G$clamp_y |    000005E8  _clamp_y_ |    000005E9  A$player$
     000005E9  C$player. |    000005E9  C$player. |    000005E9  G$compute
     000005E9  _compute_ |    000005EC  A$player$ |    000005EE  A$player$
     000005F0  A$player$ |    000005F0  C$player. |    000005F3  A$player$
     000005F5  A$player$ |    000005F5  C$player. |    000005F8  A$player$
     000005F8  C$player. |    000005FB  A$player$ |    000005FD  A$player$
     000005FE  A$player$ |    000005FE  C$player. |    00000601  A$player$
     00000601  C$player. |    00000604  A$player$ |    00000604  C$player.
     00000607  A$player$ |    00000608  A$player$ |    00000609  A$player$
     0000060A  A$player$ |    0000060B  A$player$ |    0000060D  A$player$
     0000060F  A$player$ |    00000611  A$player$ |    00000613  A$player$
     00000614  A$player$ |    00000616  A$player$ |    00000618  A$player$
     0000061A  A$player$ |    0000061B  A$player$ |    0000061D  A$player$
     00000620  A$player$ |    00000622  A$player$ |    00000624  A$player$
     00000626  A$player$ |    00000628  A$player$ |    00000628  C$player.
     0000062A  A$player$ |    0000062B  A$player$ |    0000062C  A$player$
     0000062F  A$player$ |    00000630  A$player$ |    00000630  C$player.
     00000633  A$player$ |    00000635  A$player$ |    00000635  C$player.
     00000638  A$player$ |    0000063A  A$player$ |    0000063A  C$player.
     0000063D  A$player$ |    0000063F  A$player$ |    00000641  A$player$
     00000644  A$player$ |    00000645  A$player$ |    00000647  A$player$
     00000649  A$player$ |    0000064A  A$player$ |    0000064A  C$player.
     0000064D  A$player$ |    0000064D  C$player. |    00000650  A$player$
     00000653  A$player$ |    00000653  C$player. |    00000656  A$player$
ASxxxx Linker V03.00 + NoICE + sdld,  page 8.
Hexadecimal  [32-Bits]

Area                       Addr        Size        Decimal Bytes (Attributes)
--------------------       ----        ----        ------- ----- ------------
_CODE                  00000200    000037CF =       14287. bytes (REL,CON)

        Value  Global            Value  Global            Value  Global    
        -----  ------            -----  ------            -----  ------    
     00000659  A$player$ |    00000659  C$player. |    0000065C  A$player$
     0000065C  C$player. |    0000065F  A$player$ |    0000065F  C$player.
     0000065F  C$player. |    0000065F  XG$comput |    00000662  A$player$
     00000662  C$player. |    00000662  C$player. |    00000662  Fplayer$r
     00000665  A$player$ |    00000668  A$player$ |    00000669  A$player$
     0000066A  A$player$ |    0000066C  A$player$ |    0000066E  A$player$
     0000066E  C$player. |    00000671  A$player$ |    00000673  A$player$
     00000675  A$player$ |    00000677  A$player$ |    00000678  A$player$
     00000679  A$player$ |    0000067C  A$player$ |    0000067D  A$player$
     0000067D  C$player. |    00000680  A$player$ |    00000682  A$player$
     00000684  A$player$ |    00000687  A$player$ |    00000688  A$player$
     0000068A  A$player$ |    0000068A  C$player. |    0000068D  A$player$
     0000068F  A$player$ |    00000691  A$player$ |    00000691  C$player.
     00000694  A$player$ |    00000696  A$player$ |    00000696  C$player.
     00000699  A$player$ |    0000069C  A$player$ |    0000069E  A$player$
     0000069E  C$player. |    000006A0  A$player$ |    000006A2  A$player$
     000006A2  C$player. |    000006A5  A$player$ |    000006A7  A$player$
     000006A9  A$player$ |    000006AB  A$player$ |    000006AC  A$player$
     000006AD  A$player$ |    000006B0  A$player$ |    000006B1  A$player$
     000006B1  C$player. |    000006B4  A$player$ |    000006B6  A$player$
     000006B8  A$player$ |    000006BB  A$player$ |    000006BC  A$player$
     000006BE  A$player$ |    000006BE  C$player. |    000006C1  A$player$
     000006C3  A$player$ |    000006C5  A$player$ |    000006C5  C$player.
     000006C8  A$player$ |    000006CA  A$player$ |    000006CA  C$player.
     000006CD  A$player$ |    000006D0  A$player$ |    000006D2  A$player$
     000006D2  C$player. |    000006D5  A$player$ |    000006D7  A$player$
     000006D7  C$player. |    000006DA  A$player$ |    000006DB  A$player$
     000006DD  A$player$ |    000006E0  A$player$ |    000006E1  A$player$
     000006E3  A$player$ |    000006E4  A$player$ |    000006E5  A$player$
     000006E6  A$player$ |    000006E9  A$player$ |    000006EA  A$player$
     000006EA  C$player. |    000006ED  A$player$ |    000006ED  C$player.
     000006EF  A$player$ |    000006F0  A$player$ |    000006F2  A$player$
     000006F3  A$player$ |    000006F4  A$player$ |    000006F6  A$player$
     000006F9  A$player$ |    000006FB  A$player$ |    000006FD  A$player$
     00000700  A$player$ |    00000702  A$player$ |    00000704  A$player$
     00000707  A$player$ |    00000709  A$player$ |    0000070B  A$player$
     0000070E  A$player$ |    00000710  A$player$ |    00000712  A$player$
     00000712  C$player. |    00000714  A$player$ |    00000715  A$player$
     00000716  A$player$ |    00000719  A$player$ |    0000071A  A$player$
     0000071A  C$player. |    0000071D  A$player$ |    0000071D  C$player.
     00000720  A$player$ |    00000722  A$player$ |    00000722  C$player.
     00000725  A$player$ |    00000728  A$player$ |    00000728  C$player.
     0000072B  A$player$ |    0000072D  A$player$ |    0000072D  C$player.
     00000730  A$player$ |    00000732  A$player$ |    00000734  A$player$
     00000734  C$player. |    00000735  A$player$ |    00000736  A$player$
     00000738  A$player$ |    0000073B  A$player$ |    0000073C  A$player$
     0000073D  A$player$ |    0000073E  A$player$ |    0000073F  A$player$
     00000741  A$player$ |    00000743  A$player$ |    00000745  A$player$
     00000747  A$player$ |    00000748  A$player$ |    0000074A  A$player$
     0000074C  A$player$ |    0000074E  A$player$ |    0000074F  A$player$
     00000751  A$player$ |    00000754  A$player$ |    00000756  A$player$
ASxxxx Linker V03.00 + NoICE + sdld,  page 9.
Hexadecimal  [32-Bits]

Area                       Addr        Size        Decimal Bytes (Attributes)
--------------------       ----        ----        ------- ----- ------------
_CODE                  00000200    000037CF =       14287. bytes (REL,CON)

        Value  Global            Value  Global            Value  Global    
        -----  ------            -----  ------            -----  ------    
     00000758  A$player$ |    00000758  C$player. |    0000075A  A$player$
     0000075B  A$player$ |    0000075C  A$player$ |    0000075F  A$player$
     00000760  A$player$ |    00000760  C$player. |    00000763  A$player$
     00000763  C$player. |    00000766  A$player$ |    00000768  A$player$
     00000768  C$player. |    0000076B  A$player$ |    0000076D  A$player$
     0000076E  A$player$ |    00000771  A$player$ |    00000773  A$player$
     00000773  C$player. |    00000773  XFplayer$ |    00000774  A$player$
     00000774  C$player. |    00000774  Fplayer$c |    00000776  A$player$
     00000776  C$player. |    00000779  A$player$ |    0000077A  A$player$
     0000077C  A$player$ |    0000077E  A$player$ |    00000781  A$player$
     00000783  A$player$ |    00000785  A$player$ |    00000788  A$player$
     00000789  A$player$ |    0000078B  A$player$ |    0000078E  A$player$
     0000078F  A$player$ |    00000792  A$player$ |    00000792  C$player.
     00000793  A$player$ |    00000795  A$player$ |    00000796  A$player$
     00000798  A$player$ |    00000799  A$player$ |    0000079B  A$player$
     0000079B  C$player. |    0000079C  A$player$ |    0000079E  A$player$
     000007A0  A$player$ |    000007A1  A$player$ |    000007A3  A$player$
     000007A4  A$player$ |    000007A6  A$player$ |    000007A6  C$player.
     000007A9  A$player$ |    000007AA  A$player$ |    000007AC  A$player$
     000007AD  A$player$ |    000007AD  C$player. |    000007B0  A$player$
     000007B1  A$player$ |    000007B3  A$player$ |    000007B3  C$player.
     000007B6  A$player$ |    000007B7  A$player$ |    000007BA  A$player$
     000007BB  A$player$ |    000007BD  A$player$ |    000007BE  A$player$
     000007C0  A$player$ |    000007C3  A$player$ |    000007C6  A$player$
     000007C7  A$player$ |    000007CA  A$player$ |    000007CC  A$player$
     000007CC  C$player. |    000007CF  A$player$ |    000007D0  A$player$
     000007D2  A$player$ |    000007D5  A$player$ |    000007D7  A$player$
     000007DA  A$player$ |    000007DB  A$player$ |    000007DC  A$player$
     000007DE  A$player$ |    000007DF  A$player$ |    000007E0  A$player$
     000007E1  A$player$ |    000007E3  A$player$ |    000007E5  A$player$
     000007E6  A$player$ |    000007E8  A$player$ |    000007EB  A$player$
     000007EC  A$player$ |    000007EF  A$player$ |    000007EF  C$player.
     000007F2  A$player$ |    000007F3  A$player$ |    000007F5  A$player$
     000007F7  A$player$ |    000007F9  A$player$ |    000007FC  A$player$
     000007FE  A$player$ |    000007FF  A$player$ |    00000802  A$player$
     00000804  A$player$ |    00000805  A$player$ |    00000808  A$player$
     0000080A  A$player$ |    0000080C  A$player$ |    0000080E  A$player$
     0000080F  A$player$ |    00000811  A$player$ |    00000813  A$player$
     00000814  A$player$ |    00000815  A$player$ |    00000816  A$player$
     00000818  A$player$ |    00000819  A$player$ |    0000081C  A$player$
     0000081D  A$player$ |    0000081E  A$player$ |    0000081F  A$player$
     0000081F  C$player. |    00000822  A$player$ |    00000824  A$player$
     00000825  A$player$ |    00000826  A$player$ |    00000829  A$player$
     0000082A  A$player$ |    0000082C  A$player$ |    0000082D  A$player$
     0000082F  A$player$ |    00000831  A$player$ |    00000833  A$player$
     00000835  A$player$ |    00000836  A$player$ |    00000838  A$player$
     0000083A  A$player$ |    0000083C  A$player$ |    0000083D  A$player$
     0000083F  A$player$ |    00000841  A$player$ |    00000842  A$player$
     00000844  A$player$ |    00000847  A$player$ |    00000849  A$player$
     0000084B  A$player$ |    0000084D  A$player$ |    0000084E  A$player$
     0000084F  A$player$ |    00000850  A$player$ |    00000852  A$player$
ASxxxx Linker V03.00 + NoICE + sdld,  page 10.
Hexadecimal  [32-Bits]

Area                       Addr        Size        Decimal Bytes (Attributes)
--------------------       ----        ----        ------- ----- ------------
_CODE                  00000200    000037CF =       14287. bytes (REL,CON)

        Value  Global            Value  Global            Value  Global    
        -----  ------            -----  ------            -----  ------    
     00000853  A$player$ |    00000856  A$player$ |    00000857  A$player$
     0000085A  A$player$ |    0000085C  A$player$ |    0000085C  C$player.
     0000085C  XFplayer$ |    0000085D  A$player$ |    0000085D  C$player.
     0000085D  Fplayer$r |    0000085F  A$player$ |    00000862  A$player$
     00000865  A$player$ |    00000866  A$player$ |    00000868  A$player$
     00000869  A$player$ |    0000086C  A$player$ |    0000086E  A$player$
     00000870  A$player$ |    00000872  A$player$ |    00000874  A$player$
     00000875  A$player$ |    00000877  A$player$ |    00000877  C$player.
     0000087A  A$player$ |    0000087C  A$player$ |    0000087C  C$player.
     0000087F  A$player$ |    00000881  A$player$ |    00000881  C$player.
     00000884  A$player$ |    00000884  C$player. |    00000887  A$player$
     00000887  C$player. |    0000088A  A$player$ |    0000088B  A$player$
     0000088E  A$player$ |    0000088F  A$player$ |    0000088F  C$player.
     00000892  A$player$ |    00000895  A$player$ |    00000896  A$player$
     00000898  A$player$ |    0000089B  A$player$ |    0000089D  A$player$
     0000089F  A$player$ |    000008A1  A$player$ |    000008A3  A$player$
     000008A4  A$player$ |    000008A5  A$player$ |    000008A6  A$player$
     000008A7  A$player$ |    000008A8  A$player$ |    000008AA  A$player$
     000008AB  A$player$ |    000008AC  A$player$ |    000008AC  C$player.
     000008AF  A$player$ |    000008B1  A$player$ |    000008B3  A$player$
     000008B6  A$player$ |    000008B8  A$player$ |    000008BA  A$player$
     000008BD  A$player$ |    000008BE  A$player$ |    000008BF  A$player$
     000008C0  A$player$ |    000008C1  A$player$ |    000008C2  A$player$
     000008C3  A$player$ |    000008C5  A$player$ |    000008C6  A$player$
     000008C7  A$player$ |    000008C8  A$player$ |    000008C9  A$player$
     000008CA  A$player$ |    000008CB  A$player$ |    000008CC  A$player$
     000008CF  A$player$ |    000008D0  A$player$ |    000008D1  A$player$
     000008D2  A$player$ |    000008D3  A$player$ |    000008D4  A$player$
     000008D5  A$player$ |    000008D8  A$player$ |    000008D9  A$player$
     000008DC  A$player$ |    000008DD  A$player$ |    000008DF  A$player$
     000008E0  A$player$ |    000008E3  A$player$ |    000008E4  A$player$
     000008E5  A$player$ |    000008E6  A$player$ |    000008E7  A$player$
     000008EA  A$player$ |    000008EB  A$player$ |    000008ED  A$player$
     000008EE  A$player$ |    000008EF  A$player$ |    000008F0  A$player$
     000008F1  A$player$ |    000008F4  A$player$ |    000008F5  A$player$
     000008F6  A$player$ |    000008F8  A$player$ |    000008F9  A$player$
     000008FA  A$player$ |    000008FD  A$player$ |    000008FE  A$player$
     000008FE  C$player. |    00000901  A$player$ |    00000902  A$player$
     00000905  A$player$ |    00000908  A$player$ |    00000908  C$player.
     0000090B  A$player$ |    0000090B  C$player. |    0000090E  A$player$
     00000910  A$player$ |    00000911  A$player$ |    00000914  A$player$
     00000916  A$player$ |    00000918  A$player$ |    0000091B  A$player$
     0000091C  A$player$ |    0000091D  A$player$ |    0000091E  A$player$
     0000091F  A$player$ |    00000920  A$player$ |    00000921  A$player$
     00000923  A$player$ |    00000924  A$player$ |    00000925  A$player$
     00000926  A$player$ |    00000927  A$player$ |    00000928  A$player$
     00000929  A$player$ |    0000092A  A$player$ |    0000092D  A$player$
     0000092E  A$player$ |    0000092F  A$player$ |    00000930  A$player$
     00000933  A$player$ |    00000935  A$player$ |    00000937  A$player$
     00000938  A$player$ |    00000939  A$player$ |    0000093A  A$player$
     0000093C  A$player$ |    0000093D  A$player$ |    0000093F  A$player$
ASxxxx Linker V03.00 + NoICE + sdld,  page 11.
Hexadecimal  [32-Bits]

Area                       Addr        Size        Decimal Bytes (Attributes)
--------------------       ----        ----        ------- ----- ------------
_CODE                  00000200    000037CF =       14287. bytes (REL,CON)

        Value  Global            Value  Global            Value  Global    
        -----  ------            -----  ------            -----  ------    
     00000940  A$player$ |    00000943  A$player$ |    00000945  A$player$
     00000945  C$player. |    00000947  A$player$ |    00000949  A$player$
     0000094A  A$player$ |    0000094B  A$player$ |    0000094C  A$player$
     0000094F  A$player$ |    00000950  A$player$ |    00000951  A$player$
     00000952  A$player$ |    00000953  A$player$ |    00000954  A$player$
     00000956  A$player$ |    00000957  A$player$ |    00000958  A$player$
     00000959  A$player$ |    0000095B  A$player$ |    0000095C  A$player$
     0000095D  A$player$ |    0000095E  A$player$ |    0000095F  A$player$
     00000960  A$player$ |    00000961  A$player$ |    00000962  A$player$
     00000963  A$player$ |    00000964  A$player$ |    00000965  A$player$
     00000966  A$player$ |    00000967  A$player$ |    00000968  A$player$
     0000096A  A$player$ |    0000096B  A$player$ |    0000096C  A$player$
     0000096D  A$player$ |    0000096E  A$player$ |    0000096F  A$player$
     00000970  A$player$ |    00000971  A$player$ |    00000974  A$player$
     00000975  A$player$ |    00000976  A$player$ |    00000977  A$player$
     0000097A  A$player$ |    0000097C  A$player$ |    0000097E  A$player$
     0000097F  A$player$ |    00000981  A$player$ |    00000982  A$player$
     00000983  A$player$ |    00000984  A$player$ |    00000985  A$player$
     00000987  A$player$ |    00000988  A$player$ |    0000098B  A$player$
     0000098D  A$player$ |    0000098D  C$player. |    0000098D  C$player.
     00000990  A$player$ |    00000991  A$player$ |    00000993  A$player$
     00000996  A$player$ |    00000997  A$player$ |    00000999  A$player$
     0000099B  A$player$ |    0000099D  A$player$ |    0000099E  A$player$
     0000099F  A$player$ |    000009A0  A$player$ |    000009A0  C$player.
     000009A2  A$player$ |    000009A5  A$player$ |    000009A6  A$player$
     000009A9  A$player$ |    000009A9  C$player. |    000009AC  A$player$
     000009AF  A$player$ |    000009B0  A$player$ |    000009B2  A$player$
     000009B3  A$player$ |    000009B3  C$player. |    000009B6  A$player$
     000009B8  A$player$ |    000009B9  A$player$ |    000009BC  A$player$
     000009BE  A$player$ |    000009C0  A$player$ |    000009C3  A$player$
     000009C5  A$player$ |    000009C7  A$player$ |    000009C9  A$player$
     000009CA  A$player$ |    000009CB  A$player$ |    000009CE  A$player$
     000009D0  A$player$ |    000009D2  A$player$ |    000009D3  A$player$
     000009D6  A$player$ |    000009D7  A$player$ |    000009D8  A$player$
     000009D9  A$player$ |    000009DA  A$player$ |    000009DB  A$player$
     000009DC  A$player$ |    000009DD  A$player$ |    000009E0  A$player$
     000009E1  A$player$ |    000009E2  A$player$ |    000009E5  A$player$
     000009E7  A$player$ |    000009E9  A$player$ |    000009EA  A$player$
     000009EB  A$player$ |    000009EC  A$player$ |    000009ED  A$player$
     000009EF  A$player$ |    000009F0  A$player$ |    000009F3  A$player$
     000009F5  A$player$ |    000009F5  C$player. |    000009F8  A$player$
     000009FA  A$player$ |    000009FB  A$player$ |    000009FD  A$player$
     000009FE  A$player$ |    00000A01  A$player$ |    00000A02  A$player$
     00000A03  A$player$ |    00000A04  A$player$ |    00000A05  A$player$
     00000A06  A$player$ |    00000A07  A$player$ |    00000A08  A$player$
     00000A0B  A$player$ |    00000A0C  A$player$ |    00000A0D  A$player$
     00000A10  A$player$ |    00000A12  A$player$ |    00000A14  A$player$
     00000A15  A$player$ |    00000A17  A$player$ |    00000A18  A$player$
     00000A19  A$player$ |    00000A1A  A$player$ |    00000A1B  A$player$
     00000A1D  A$player$ |    00000A1E  A$player$ |    00000A21  A$player$
     00000A23  A$player$ |    00000A23  C$player. |    00000A25  A$player$
ASxxxx Linker V03.00 + NoICE + sdld,  page 12.
Hexadecimal  [32-Bits]

Area                       Addr        Size        Decimal Bytes (Attributes)
--------------------       ----        ----        ------- ----- ------------
_CODE                  00000200    000037CF =       14287. bytes (REL,CON)

        Value  Global            Value  Global            Value  Global    
        -----  ------            -----  ------            -----  ------    
     00000A25  C$player. |    00000A28  A$player$ |    00000A2A  A$player$
     00000A2C  A$player$ |    00000A2E  A$player$ |    00000A2F  A$player$
     00000A30  A$player$ |    00000A33  A$player$ |    00000A35  A$player$
     00000A37  A$player$ |    00000A38  A$player$ |    00000A3B  A$player$
     00000A3C  A$player$ |    00000A3D  A$player$ |    00000A3E  A$player$
     00000A3F  A$player$ |    00000A40  A$player$ |    00000A41  A$player$
     00000A42  A$player$ |    00000A45  A$player$ |    00000A46  A$player$
     00000A47  A$player$ |    00000A4A  A$player$ |    00000A4C  A$player$
     00000A4E  A$player$ |    00000A4F  A$player$ |    00000A50  A$player$
     00000A51  A$player$ |    00000A52  A$player$ |    00000A54  A$player$
     00000A55  A$player$ |    00000A58  A$player$ |    00000A5A  A$player$
     00000A5A  C$player. |    00000A5C  A$player$ |    00000A5E  A$player$
     00000A5F  A$player$ |    00000A61  A$player$ |    00000A62  A$player$
     00000A65  A$player$ |    00000A66  A$player$ |    00000A67  A$player$
     00000A68  A$player$ |    00000A69  A$player$ |    00000A6A  A$player$
     00000A6B  A$player$ |    00000A6C  A$player$ |    00000A6F  A$player$
     00000A70  A$player$ |    00000A71  A$player$ |    00000A74  A$player$
     00000A76  A$player$ |    00000A78  A$player$ |    00000A79  A$player$
     00000A7B  A$player$ |    00000A7C  A$player$ |    00000A7D  A$player$
     00000A7E  A$player$ |    00000A7F  A$player$ |    00000A81  A$player$
     00000A82  A$player$ |    00000A85  A$player$ |    00000A87  A$player$
     00000A87  C$player. |    00000A89  A$player$ |    00000A8C  A$player$
     00000A8D  A$player$ |    00000A8E  A$player$ |    00000A8F  A$player$
     00000A90  A$player$ |    00000A91  A$player$ |    00000A92  A$player$
     00000A93  A$player$ |    00000A96  A$player$ |    00000A97  A$player$
     00000A98  A$player$ |    00000A9A  A$player$ |    00000A9B  A$player$
     00000A9C  A$player$ |    00000A9F  A$player$ |    00000AA0  A$player$
     00000AA0  C$player. |    00000AA0  C$player. |    00000AA3  A$player$
     00000AA6  A$player$ |    00000AA7  A$player$ |    00000AA8  A$player$
     00000AAA  A$player$ |    00000AAC  A$player$ |    00000AAF  A$player$
     00000AB1  A$player$ |    00000AB3  A$player$ |    00000AB3  C$player.
     00000AB5  A$player$ |    00000AB6  A$player$ |    00000AB7  A$player$
     00000ABA  A$player$ |    00000ABB  A$player$ |    00000ABC  A$player$
     00000ABD  A$player$ |    00000ABF  A$player$ |    00000ABF  C$player.
     00000ABF  XFplayer$ |    00000AC0  A$player$ |    00000AC0  C$player.
     00000AC0  Fplayer$r |    00000AC2  A$player$ |    00000AC5  A$player$
     00000AC7  A$player$ |    00000AC9  A$player$ |    00000ACC  A$player$
     00000ACD  A$player$ |    00000ACE  A$player$ |    00000AD0  A$player$
     00000AD2  A$player$ |    00000AD3  A$player$ |    00000AD4  A$player$
     00000AD5  A$player$ |    00000AD5  C$player. |    00000AD6  A$player$
     00000AD8  A$player$ |    00000AD9  A$player$ |    00000AD9  C$player.
     00000ADA  A$player$ |    00000ADB  A$player$ |    00000ADD  A$player$
     00000AE0  A$player$ |    00000AE1  A$player$ |    00000AE3  A$player$
     00000AE4  A$player$ |    00000AE5  A$player$ |    00000AE6  A$player$
     00000AE8  A$player$ |    00000AE8  C$player. |    00000AEA  A$player$
     00000AEB  A$player$ |    00000AEC  A$player$ |    00000AED  A$player$
     00000AEF  A$player$ |    00000AF1  A$player$ |    00000AF2  A$player$
     00000AF3  A$player$ |    00000AF5  A$player$ |    00000AF6  A$player$
     00000AF7  A$player$ |    00000AFA  A$player$ |    00000AFB  A$player$
     00000AFC  A$player$ |    00000AFD  A$player$ |    00000AFE  A$player$
     00000AFE  C$player. |    00000B00  A$player$ |    00000B03  A$player$
ASxxxx Linker V03.00 + NoICE + sdld,  page 13.
Hexadecimal  [32-Bits]

Area                       Addr        Size        Decimal Bytes (Attributes)
--------------------       ----        ----        ------- ----- ------------
_CODE                  00000200    000037CF =       14287. bytes (REL,CON)

        Value  Global            Value  Global            Value  Global    
        -----  ------            -----  ------            -----  ------    
     00000B04  A$player$ |    00000B05  A$player$ |    00000B07  A$player$
     00000B09  A$player$ |    00000B0A  A$player$ |    00000B0B  A$player$
     00000B0C  A$player$ |    00000B0E  A$player$ |    00000B0F  A$player$
     00000B0F  C$player. |    00000B12  A$player$ |    00000B13  A$player$
     00000B14  A$player$ |    00000B16  A$player$ |    00000B18  A$player$
     00000B18  C$player. |    00000B1B  A$player$ |    00000B1C  A$player$
     00000B1E  A$player$ |    00000B1E  C$player. |    00000B21  A$player$
     00000B22  A$player$ |    00000B25  A$player$ |    00000B26  A$player$
     00000B28  A$player$ |    00000B28  C$player. |    00000B2B  A$player$
     00000B2C  A$player$ |    00000B2F  A$player$ |    00000B30  A$player$
     00000B32  A$player$ |    00000B35  A$player$ |    00000B36  A$player$
     00000B37  A$player$ |    00000B38  A$player$ |    00000B39  A$player$
     00000B3A  A$player$ |    00000B3B  A$player$ |    00000B3C  A$player$
     00000B3D  A$player$ |    00000B3F  A$player$ |    00000B42  A$player$
     00000B43  A$player$ |    00000B44  A$player$ |    00000B45  A$player$
     00000B46  A$player$ |    00000B47  A$player$ |    00000B48  A$player$
     00000B49  A$player$ |    00000B4C  A$player$ |    00000B4D  A$player$
     00000B4E  A$player$ |    00000B4F  A$player$ |    00000B50  A$player$
     00000B51  A$player$ |    00000B52  A$player$ |    00000B53  A$player$
     00000B56  A$player$ |    00000B57  A$player$ |    00000B58  A$player$
     00000B59  A$player$ |    00000B5A  A$player$ |    00000B5B  A$player$
     00000B5C  A$player$ |    00000B5D  A$player$ |    00000B5D  C$player.
     00000B5E  A$player$ |    00000B5E  C$player. |    00000B61  A$player$
     00000B62  A$player$ |    00000B65  A$player$ |    00000B65  C$player.
     00000B68  A$player$ |    00000B69  A$player$ |    00000B6C  A$player$
     00000B6F  A$player$ |    00000B70  A$player$ |    00000B71  A$player$
     00000B73  A$player$ |    00000B74  A$player$ |    00000B76  A$player$
     00000B79  A$player$ |    00000B79  C$player. |    00000B7C  A$player$
     00000B7E  A$player$ |    00000B81  A$player$ |    00000B82  A$player$
     00000B83  A$player$ |    00000B85  A$player$ |    00000B86  A$player$
     00000B87  A$player$ |    00000B88  A$player$ |    00000B8B  A$player$
     00000B8C  A$player$ |    00000B8D  A$player$ |    00000B8E  A$player$
     00000B90  A$player$ |    00000B93  A$player$ |    00000B94  A$player$
     00000B96  A$player$ |    00000B97  A$player$ |    00000B98  A$player$
     00000B99  A$player$ |    00000B9C  A$player$ |    00000B9D  A$player$
     00000B9E  A$player$ |    00000B9F  A$player$ |    00000BA0  A$player$
     00000BA1  A$player$ |    00000BA3  A$player$ |    00000BA6  A$player$
     00000BA7  A$player$ |    00000BA9  A$player$ |    00000BAA  A$player$
     00000BAB  A$player$ |    00000BAE  A$player$ |    00000BAF  A$player$
     00000BB0  A$player$ |    00000BB1  A$player$ |    00000BB2  A$player$
     00000BB3  A$player$ |    00000BB3  C$player. |    00000BB5  A$player$
     00000BB8  A$player$ |    00000BB9  A$player$ |    00000BBA  A$player$
     00000BBC  A$player$ |    00000BBE  A$player$ |    00000BBF  A$player$
     00000BC1  A$player$ |    00000BC2  A$player$ |    00000BC5  A$player$
     00000BC7  A$player$ |    00000BCA  A$player$ |    00000BCB  A$player$
     00000BCC  A$player$ |    00000BCE  A$player$ |    00000BCF  A$player$
     00000BD2  A$player$ |    00000BD4  A$player$ |    00000BD6  A$player$
     00000BD7  A$player$ |    00000BDA  A$player$ |    00000BDB  A$player$
     00000BDC  A$player$ |    00000BDE  A$player$ |    00000BDF  A$player$
     00000BE1  A$player$ |    00000BE2  A$player$ |    00000BE4  A$player$
     00000BE5  A$player$ |    00000BE6  A$player$ |    00000BE7  A$player$
ASxxxx Linker V03.00 + NoICE + sdld,  page 14.
Hexadecimal  [32-Bits]

Area                       Addr        Size        Decimal Bytes (Attributes)
--------------------       ----        ----        ------- ----- ------------
_CODE                  00000200    000037CF =       14287. bytes (REL,CON)

        Value  Global            Value  Global            Value  Global    
        -----  ------            -----  ------            -----  ------    
     00000BEA  A$player$ |    00000BEB  A$player$ |    00000BEC  A$player$
     00000BED  A$player$ |    00000BEE  A$player$ |    00000BEF  A$player$
     00000BF1  A$player$ |    00000BF2  A$player$ |    00000BF3  A$player$
     00000BF4  A$player$ |    00000BF6  A$player$ |    00000BF7  A$player$
     00000BF8  A$player$ |    00000BF9  A$player$ |    00000BFA  A$player$
     00000BFC  A$player$ |    00000BFD  A$player$ |    00000BFE  A$player$
     00000BFF  A$player$ |    00000C00  A$player$ |    00000C01  A$player$
     00000C02  A$player$ |    00000C03  A$player$ |    00000C04  A$player$
     00000C05  A$player$ |    00000C06  A$player$ |    00000C07  A$player$
     00000C0A  A$player$ |    00000C0C  A$player$ |    00000C0E  A$player$
     00000C11  A$player$ |    00000C12  A$player$ |    00000C15  A$player$
     00000C17  A$player$ |    00000C18  A$player$ |    00000C19  A$player$
     00000C1A  A$player$ |    00000C1B  A$player$ |    00000C1C  A$player$
     00000C1D  A$player$ |    00000C1F  A$player$ |    00000C1F  C$player.
     00000C1F  C$player. |    00000C22  A$player$ |    00000C23  A$player$
     00000C24  A$player$ |    00000C26  A$player$ |    00000C27  A$player$
     00000C29  A$player$ |    00000C29  C$player. |    00000C29  XFplayer$
     00000C2A  A$player$ |    00000C2A  C$player. |    00000C2A  C$player.
     00000C2A  Fplayer$i |    00000C2D  A$player$ |    00000C2F  A$player$
     00000C30  A$player$ |    00000C33  A$player$ |    00000C34  A$player$
     00000C36  A$player$ |    00000C37  A$player$ |    00000C38  A$player$
     00000C39  A$player$ |    00000C3A  A$player$ |    00000C3B  A$player$
     00000C3D  A$player$ |    00000C3E  A$player$ |    00000C40  A$player$
     00000C41  A$player$ |    00000C42  A$player$ |    00000C43  A$player$
     00000C44  A$player$ |    00000C47  A$player$ |    00000C48  A$player$
     00000C49  A$player$ |    00000C4A  A$player$ |    00000C4B  A$player$
     00000C4D  A$player$ |    00000C50  A$player$ |    00000C51  A$player$
     00000C52  A$player$ |    00000C53  A$player$ |    00000C54  A$player$
     00000C54  C$player. |    00000C56  A$player$ |    00000C59  A$player$
     00000C5A  A$player$ |    00000C5B  A$player$ |    00000C5D  A$player$
     00000C5F  A$player$ |    00000C60  A$player$ |    00000C62  A$player$
     00000C63  A$player$ |    00000C66  A$player$ |    00000C68  A$player$
     00000C6B  A$player$ |    00000C6C  A$player$ |    00000C6D  A$player$
     00000C6E  A$player$ |    00000C71  A$player$ |    00000C73  A$player$
     00000C74  A$player$ |    00000C77  A$player$ |    00000C78  A$player$
     00000C79  A$player$ |    00000C7A  A$player$ |    00000C7B  A$player$
     00000C7B  C$player. |    00000C7E  A$player$ |    00000C7F  A$player$
     00000C80  A$player$ |    00000C82  A$player$ |    00000C83  A$player$
     00000C83  C$player. |    00000C84  A$player$ |    00000C86  A$player$
     00000C87  A$player$ |    00000C8A  A$player$ |    00000C8B  A$player$
     00000C8D  A$player$ |    00000C8E  A$player$ |    00000C8F  A$player$
     00000C90  A$player$ |    00000C91  A$player$ |    00000C92  A$player$
     00000C94  A$player$ |    00000C95  A$player$ |    00000C97  A$player$
     00000C98  A$player$ |    00000C99  A$player$ |    00000C9A  A$player$
     00000C9B  A$player$ |    00000C9E  A$player$ |    00000C9F  A$player$
     00000CA0  A$player$ |    00000CA1  A$player$ |    00000CA2  A$player$
     00000CA4  A$player$ |    00000CA7  A$player$ |    00000CA8  A$player$
     00000CA9  A$player$ |    00000CAA  A$player$ |    00000CAB  A$player$
     00000CAB  C$player. |    00000CAD  A$player$ |    00000CB0  A$player$
     00000CB1  A$player$ |    00000CB2  A$player$ |    00000CB4  A$player$
     00000CB6  A$player$ |    00000CB7  A$player$ |    00000CB9  A$player$
ASxxxx Linker V03.00 + NoICE + sdld,  page 15.
Hexadecimal  [32-Bits]

Area                       Addr        Size        Decimal Bytes (Attributes)
--------------------       ----        ----        ------- ----- ------------
_CODE                  00000200    000037CF =       14287. bytes (REL,CON)

        Value  Global            Value  Global            Value  Global    
        -----  ------            -----  ------            -----  ------    
     00000CBA  A$player$ |    00000CBD  A$player$ |    00000CBF  A$player$
     00000CC2  A$player$ |    00000CC3  A$player$ |    00000CC4  A$player$
     00000CC5  A$player$ |    00000CC8  A$player$ |    00000CCA  A$player$
     00000CCB  A$player$ |    00000CCE  A$player$ |    00000CCF  A$player$
     00000CD0  A$player$ |    00000CD1  A$player$ |    00000CD2  A$player$
     00000CD2  C$player. |    00000CD5  A$player$ |    00000CD6  A$player$
     00000CD7  A$player$ |    00000CD9  A$player$ |    00000CDA  A$player$
     00000CDA  C$player. |    00000CDA  XFplayer$ |    00000CDB  A$player$
     00000CDB  C$player. |    00000CDB  C$player. |    00000CDB  Fplayer$i
     00000CDE  A$player$ |    00000CDF  A$player$ |    00000CE1  A$player$
     00000CE3  A$player$ |    00000CE4  A$player$ |    00000CE5  A$player$
     00000CE6  A$player$ |    00000CE8  A$player$ |    00000CE9  A$player$
     00000CE9  C$player. |    00000CEC  A$player$ |    00000CED  A$player$
     00000CEE  A$player$ |    00000CF0  A$player$ |    00000CF1  A$player$
     00000CF2  A$player$ |    00000CF3  A$player$ |    00000CF4  A$player$
     00000CF5  A$player$ |    00000CF8  A$player$ |    00000CF9  A$player$
     00000CFB  A$player$ |    00000CFC  A$player$ |    00000CFD  A$player$
     00000CFE  A$player$ |    00000CFF  A$player$ |    00000D00  A$player$
     00000D01  A$player$ |    00000D04  A$player$ |    00000D05  A$player$
     00000D06  A$player$ |    00000D08  A$player$ |    00000D09  A$player$
     00000D0A  A$player$ |    00000D0D  A$player$ |    00000D0E  A$player$
     00000D0F  A$player$ |    00000D10  A$player$ |    00000D13  A$player$
     00000D14  A$player$ |    00000D15  A$player$ |    00000D16  A$player$
     00000D19  A$player$ |    00000D1A  A$player$ |    00000D1B  A$player$
     00000D1C  A$player$ |    00000D1F  A$player$ |    00000D20  A$player$
     00000D21  A$player$ |    00000D22  A$player$ |    00000D22  C$player.
     00000D25  A$player$ |    00000D27  A$player$ |    00000D27  C$player.
     00000D2A  A$player$ |    00000D2C  A$player$ |    00000D2C  C$player.
     00000D2C  XFplayer$ |    00000D2D  A$player$ |    00000D2D  C$player.
     00000D2D  C$player. |    00000D2D  Fplayer$h |    00000D30  A$player$
     00000D32  A$player$ |    00000D34  A$player$ |    00000D34  C$player.
     00000D36  A$player$ |    00000D37  A$player$ |    00000D38  A$player$
     00000D3B  A$player$ |    00000D3C  A$player$ |    00000D3C  C$player.
     00000D3C  C$player. |    00000D3F  A$player$ |    00000D3F  C$player.
     00000D42  A$player$ |    00000D43  A$player$ |    00000D45  A$player$
     00000D47  A$player$ |    00000D4A  A$player$ |    00000D4C  A$player$
     00000D4E  A$player$ |    00000D51  A$player$ |    00000D52  A$player$
     00000D54  A$player$ |    00000D57  A$player$ |    00000D58  A$player$
     00000D5B  A$player$ |    00000D5B  C$player. |    00000D5E  A$player$
     00000D60  A$player$ |    00000D62  A$player$ |    00000D65  A$player$
     00000D66  A$player$ |    00000D67  A$player$ |    00000D68  A$player$
     00000D68  C$player. |    00000D6B  A$player$ |    00000D6C  A$player$
     00000D6D  A$player$ |    00000D70  A$player$ |    00000D71  A$player$
     00000D72  A$player$ |    00000D74  A$player$ |    00000D76  A$player$
     00000D78  A$player$ |    00000D7A  A$player$ |    00000D7B  A$player$
     00000D7D  A$player$ |    00000D7F  A$player$ |    00000D81  A$player$
     00000D82  A$player$ |    00000D84  A$player$ |    00000D87  A$player$
     00000D88  A$player$ |    00000D89  A$player$ |    00000D8A  A$player$
     00000D8D  A$player$ |    00000D8E  A$player$ |    00000D8E  C$player.
     00000D8E  XFplayer$ |    00000D8F  A$player$ |    00000D8F  C$player.
     00000D8F  C$player. |    00000D8F  Fplayer$e |    00000D92  A$player$
ASxxxx Linker V03.00 + NoICE + sdld,  page 16.
Hexadecimal  [32-Bits]

Area                       Addr        Size        Decimal Bytes (Attributes)
--------------------       ----        ----        ------- ----- ------------
_CODE                  00000200    000037CF =       14287. bytes (REL,CON)

        Value  Global            Value  Global            Value  Global    
        -----  ------            -----  ------            -----  ------    
     00000D95  A$player$ |    00000D96  A$player$ |    00000D98  A$player$
     00000D99  A$player$ |    00000D9A  A$player$ |    00000D9B  A$player$
     00000D9C  A$player$ |    00000D9D  A$player$ |    00000D9E  A$player$
     00000DA1  A$player$ |    00000DA2  A$player$ |    00000DA3  A$player$
     00000DA5  A$player$ |    00000DA6  A$player$ |    00000DA7  A$player$
     00000DA8  A$player$ |    00000DAB  A$player$ |    00000DAC  A$player$
     00000DAE  A$player$ |    00000DAE  C$player. |    00000DB1  A$player$
     00000DB3  A$player$ |    00000DB3  C$player. |    00000DB6  A$player$
     00000DB7  A$player$ |    00000DB7  C$player. |    00000DBA  A$player$
     00000DBB  A$player$ |    00000DBE  A$player$ |    00000DBF  A$player$
     00000DC0  A$player$ |    00000DC2  A$player$ |    00000DC3  A$player$
     00000DC4  A$player$ |    00000DC5  A$player$ |    00000DC8  A$player$
     00000DC9  A$player$ |    00000DCB  A$player$ |    00000DCE  A$player$
     00000DD0  A$player$ |    00000DD2  A$player$ |    00000DD2  C$player.
     00000DD5  A$player$ |    00000DD6  A$player$ |    00000DD6  C$player.
     00000DD9  A$player$ |    00000DDB  A$player$ |    00000DDC  A$player$
     00000DDC  C$player. |    00000DDE  A$player$ |    00000DE1  A$player$
     00000DE2  A$player$ |    00000DE5  A$player$ |    00000DE6  A$player$
     00000DE9  A$player$ |    00000DEA  A$player$ |    00000DEB  A$player$
     00000DED  A$player$ |    00000DEF  A$player$ |    00000DF0  A$player$
     00000DF2  A$player$ |    00000DF3  A$player$ |    00000DF6  A$player$
     00000DF6  C$player. |    00000DF6  XFplayer$ |    00000DF7  A$player$
     00000DF7  C$player. |    00000DF7  C$player. |    00000DF7  Fplayer$s
     00000DFA  A$player$ |    00000DFC  A$player$ |    00000DFD  A$player$
     00000DFE  A$player$ |    00000E00  A$player$ |    00000E00  C$player.
     00000E03  A$player$ |    00000E05  A$player$ |    00000E07  A$player$
     00000E0A  A$player$ |    00000E0A  C$player. |    00000E0D  A$player$
     00000E0F  A$player$ |    00000E0F  C$player. |    00000E12  A$player$
     00000E14  A$player$ |    00000E14  C$player. |    00000E16  A$player$
     00000E17  A$player$ |    00000E1A  A$player$ |    00000E1A  C$player.
     00000E1A  XFplayer$ |    00000E1B  A$player$ |    00000E1B  C$player.
     00000E1B  Fplayer$c |    00000E1D  A$player$ |    00000E20  A$player$
     00000E22  A$player$ |    00000E22  C$player. |    00000E25  A$player$
     00000E26  A$player$ |    00000E27  A$player$ |    00000E29  A$player$
     00000E2A  A$player$ |    00000E2C  A$player$ |    00000E2D  A$player$
     00000E2E  A$player$ |    00000E2F  A$player$ |    00000E30  A$player$
     00000E31  A$player$ |    00000E32  A$player$ |    00000E33  A$player$
     00000E34  A$player$ |    00000E37  A$player$ |    00000E38  A$player$
     00000E39  A$player$ |    00000E3A  A$player$ |    00000E3D  A$player$
     00000E3E  A$player$ |    00000E3F  A$player$ |    00000E40  A$player$
     00000E41  A$player$ |    00000E42  A$player$ |    00000E43  A$player$
     00000E45  A$player$ |    00000E46  A$player$ |    00000E48  A$player$
     00000E49  A$player$ |    00000E4A  A$player$ |    00000E4A  C$player.
     00000E4B  A$player$ |    00000E4C  A$player$ |    00000E4D  A$player$
     00000E4E  A$player$ |    00000E51  A$player$ |    00000E52  A$player$
     00000E53  A$player$ |    00000E54  A$player$ |    00000E55  A$player$
     00000E57  A$player$ |    00000E5A  A$player$ |    00000E5A  C$player.
     00000E5C  A$player$ |    00000E5D  A$player$ |    00000E5E  A$player$
     00000E5F  A$player$ |    00000E60  A$player$ |    00000E63  A$player$
     00000E64  A$player$ |    00000E66  A$player$ |    00000E69  A$player$
     00000E69  C$player. |    00000E6B  A$player$ |    00000E6B  C$player.
ASxxxx Linker V03.00 + NoICE + sdld,  page 17.
Hexadecimal  [32-Bits]

Area                       Addr        Size        Decimal Bytes (Attributes)
--------------------       ----        ----        ------- ----- ------------
_CODE                  00000200    000037CF =       14287. bytes (REL,CON)

        Value  Global            Value  Global            Value  Global    
        -----  ------            -----  ------            -----  ------    
     00000E6D  A$player$ |    00000E6E  A$player$ |    00000E6F  A$player$
     00000E70  A$player$ |    00000E71  A$player$ |    00000E72  A$player$
     00000E74  A$player$ |    00000E75  A$player$ |    00000E76  A$player$
     00000E78  A$player$ |    00000E7A  A$player$ |    00000E7B  A$player$
     00000E7C  A$player$ |    00000E7D  A$player$ |    00000E80  A$player$
     00000E81  A$player$ |    00000E82  A$player$ |    00000E83  A$player$
     00000E85  A$player$ |    00000E86  A$player$ |    00000E87  A$player$
     00000E88  A$player$ |    00000E8A  A$player$ |    00000E8B  A$player$
     00000E8C  A$player$ |    00000E8D  A$player$ |    00000E8E  A$player$
     00000E8F  A$player$ |    00000E91  A$player$ |    00000E92  A$player$
     00000E94  A$player$ |    00000E95  A$player$ |    00000E96  A$player$
     00000E97  A$player$ |    00000E98  A$player$ |    00000E99  A$player$
     00000E9A  A$player$ |    00000E9C  A$player$ |    00000E9D  A$player$
     00000E9E  A$player$ |    00000E9F  A$player$ |    00000EA1  A$player$
     00000EA2  A$player$ |    00000EA5  A$player$ |    00000EA7  A$player$
     00000EA8  A$player$ |    00000EAA  A$player$ |    00000EAC  A$player$
     00000EAD  A$player$ |    00000EAE  A$player$ |    00000EB0  A$player$
     00000EB1  A$player$ |    00000EB2  A$player$ |    00000EB3  A$player$
     00000EB4  A$player$ |    00000EB5  A$player$ |    00000EB6  A$player$
     00000EB7  A$player$ |    00000EB8  A$player$ |    00000EBA  A$player$
     00000EBC  A$player$ |    00000EBE  A$player$ |    00000EC0  A$player$
     00000EC1  A$player$ |    00000EC3  A$player$ |    00000EC5  A$player$
     00000EC7  A$player$ |    00000EC8  A$player$ |    00000ECA  A$player$
     00000ECD  A$player$ |    00000ECF  A$player$ |    00000ED0  A$player$
     00000ED3  A$player$ |    00000ED4  A$player$ |    00000ED6  A$player$
     00000ED9  A$player$ |    00000EDB  A$player$ |    00000EDE  A$player$
     00000EDF  A$player$ |    00000EE0  A$player$ |    00000EE2  A$player$
     00000EE2  C$player. |    00000EE3  A$player$ |    00000EE4  A$player$
     00000EE5  A$player$ |    00000EE6  A$player$ |    00000EE7  A$player$
     00000EE8  A$player$ |    00000EE9  A$player$ |    00000EEA  A$player$
     00000EEB  A$player$ |    00000EEC  A$player$ |    00000EEE  A$player$
     00000EEF  A$player$ |    00000EF0  A$player$ |    00000EF1  A$player$
     00000EF3  A$player$ |    00000EF4  A$player$ |    00000EF5  A$player$
     00000EF6  A$player$ |    00000EF7  A$player$ |    00000EF8  A$player$
     00000EF9  A$player$ |    00000EFB  A$player$ |    00000EFC  A$player$
     00000EFD  A$player$ |    00000EFE  A$player$ |    00000EFF  A$player$
     00000F00  A$player$ |    00000F01  A$player$ |    00000F02  A$player$
     00000F05  A$player$ |    00000F06  A$player$ |    00000F07  A$player$
     00000F08  A$player$ |    00000F0A  A$player$ |    00000F0B  A$player$
     00000F0C  A$player$ |    00000F0D  A$player$ |    00000F0F  A$player$
     00000F10  A$player$ |    00000F11  A$player$ |    00000F12  A$player$
     00000F13  A$player$ |    00000F14  A$player$ |    00000F16  A$player$
     00000F17  A$player$ |    00000F19  A$player$ |    00000F1A  A$player$
     00000F1B  A$player$ |    00000F1C  A$player$ |    00000F1D  A$player$
     00000F1E  A$player$ |    00000F1F  A$player$ |    00000F20  A$player$
     00000F21  A$player$ |    00000F22  A$player$ |    00000F23  A$player$
     00000F25  A$player$ |    00000F26  A$player$ |    00000F27  A$player$
     00000F2A  A$player$ |    00000F2C  A$player$ |    00000F2D  A$player$
     00000F2F  A$player$ |    00000F31  A$player$ |    00000F32  A$player$
     00000F33  A$player$ |    00000F35  A$player$ |    00000F36  A$player$
     00000F37  A$player$ |    00000F38  A$player$ |    00000F39  A$player$
ASxxxx Linker V03.00 + NoICE + sdld,  page 18.
Hexadecimal  [32-Bits]

Area                       Addr        Size        Decimal Bytes (Attributes)
--------------------       ----        ----        ------- ----- ------------
_CODE                  00000200    000037CF =       14287. bytes (REL,CON)

        Value  Global            Value  Global            Value  Global    
        -----  ------            -----  ------            -----  ------    
     00000F3A  A$player$ |    00000F3B  A$player$ |    00000F3C  A$player$
     00000F3D  A$player$ |    00000F3F  A$player$ |    00000F41  A$player$
     00000F43  A$player$ |    00000F45  A$player$ |    00000F46  A$player$
     00000F48  A$player$ |    00000F4A  A$player$ |    00000F4C  A$player$
     00000F4D  A$player$ |    00000F4F  A$player$ |    00000F51  A$player$
     00000F53  A$player$ |    00000F56  A$player$ |    00000F57  A$player$
     00000F59  A$player$ |    00000F5B  A$player$ |    00000F5D  A$player$
     00000F5E  A$player$ |    00000F5F  A$player$ |    00000F60  A$player$
     00000F62  A$player$ |    00000F64  A$player$ |    00000F66  A$player$
     00000F67  A$player$ |    00000F68  A$player$ |    00000F69  A$player$
     00000F6B  A$player$ |    00000F6C  A$player$ |    00000F6E  A$player$
     00000F6F  A$player$ |    00000F70  A$player$ |    00000F70  C$player.
     00000F73  A$player$ |    00000F76  A$player$ |    00000F77  A$player$
     00000F79  A$player$ |    00000F7A  A$player$ |    00000F7C  A$player$
     00000F7F  A$player$ |    00000F80  A$player$ |    00000F82  A$player$
     00000F83  A$player$ |    00000F84  A$player$ |    00000F85  A$player$
     00000F86  A$player$ |    00000F87  A$player$ |    00000F88  A$player$
     00000F8A  A$player$ |    00000F8C  A$player$ |    00000F8D  A$player$
     00000F8F  A$player$ |    00000F90  A$player$ |    00000F92  A$player$
     00000F94  A$player$ |    00000F96  A$player$ |    00000F98  A$player$
     00000F99  A$player$ |    00000F9B  A$player$ |    00000F9D  A$player$
     00000F9F  A$player$ |    00000FA0  A$player$ |    00000FA2  A$player$
     00000FA3  A$player$ |    00000FA5  A$player$ |    00000FA8  A$player$
     00000FA9  A$player$ |    00000FAB  A$player$ |    00000FAE  A$player$
     00000FAF  A$player$ |    00000FB1  A$player$ |    00000FB2  A$player$
     00000FB3  A$player$ |    00000FB4  A$player$ |    00000FB5  A$player$
     00000FB6  A$player$ |    00000FB7  A$player$ |    00000FB8  A$player$
     00000FBA  A$player$ |    00000FBC  A$player$ |    00000FBD  A$player$
     00000FBF  A$player$ |    00000FC0  A$player$ |    00000FC2  A$player$
     00000FC4  A$player$ |    00000FC6  A$player$ |    00000FC8  A$player$
     00000FC9  A$player$ |    00000FCB  A$player$ |    00000FCD  A$player$
     00000FCF  A$player$ |    00000FD0  A$player$ |    00000FD2  A$player$
     00000FD3  A$player$ |    00000FD4  A$player$ |    00000FD6  A$player$
     00000FD6  C$player. |    00000FD7  A$player$ |    00000FD9  A$player$
     00000FDB  A$player$ |    00000FDC  A$player$ |    00000FDC  C$player.
     00000FDE  A$player$ |    00000FDF  A$player$ |    00000FE0  A$player$
     00000FE1  A$player$ |    00000FE4  A$player$ |    00000FE5  A$player$
     00000FE6  A$player$ |    00000FE7  A$player$ |    00000FE8  A$player$
     00000FEA  A$player$ |    00000FEB  A$player$ |    00000FEC  A$player$
     00000FEF  A$player$ |    00000FF0  A$player$ |    00000FF1  A$player$
     00000FF2  A$player$ |    00000FF3  A$player$ |    00000FF4  A$player$
     00000FF5  A$player$ |    00000FF6  A$player$ |    00000FF7  A$player$
     00000FF8  A$player$ |    00000FFB  A$player$ |    00000FFC  A$player$
     00000FFD  A$player$ |    00000FFE  A$player$ |    00001000  A$player$
     00001003  A$player$ |    00001003  C$player. |    00001004  A$player$
     00001006  A$player$ |    00001008  A$player$ |    0000100A  A$player$
     0000100D  A$player$ |    0000100F  A$player$ |    00001012  A$player$
     00001014  A$player$ |    00001017  A$player$ |    00001019  A$player$
     0000101C  A$player$ |    0000101E  A$player$ |    00001021  A$player$
     00001023  A$player$ |    00001026  A$player$ |    00001028  A$player$
     0000102B  A$player$ |    0000102E  A$player$ |    0000102E  C$player.
ASxxxx Linker V03.00 + NoICE + sdld,  page 19.
Hexadecimal  [32-Bits]

Area                       Addr        Size        Decimal Bytes (Attributes)
--------------------       ----        ----        ------- ----- ------------
_CODE                  00000200    000037CF =       14287. bytes (REL,CON)

        Value  Global            Value  Global            Value  Global    
        -----  ------            -----  ------            -----  ------    
     0000102E  C$player. |    00001030  A$player$ |    00001031  A$player$
     00001032  A$player$ |    00001033  A$player$ |    00001034  A$player$
     00001036  A$player$ |    00001037  A$player$ |    00001038  A$player$
     00001039  A$player$ |    0000103A  A$player$ |    0000103B  A$player$
     0000103D  A$player$ |    0000103E  A$player$ |    0000103F  A$player$
     00001040  A$player$ |    00001041  A$player$ |    00001042  A$player$
     00001042  C$player. |    00001044  A$player$ |    00001045  A$player$
     00001046  A$player$ |    00001047  A$player$ |    00001048  A$player$
     00001049  A$player$ |    0000104A  A$player$ |    0000104B  A$player$
     0000104C  A$player$ |    0000104D  A$player$ |    0000104E  A$player$
     0000104F  A$player$ |    00001050  A$player$ |    00001051  A$player$
     00001052  A$player$ |    00001053  A$player$ |    00001055  A$player$
     00001056  A$player$ |    00001057  A$player$ |    00001057  C$player.
     00001059  A$player$ |    0000105C  A$player$ |    0000105E  A$player$
     0000105F  A$player$ |    00001060  A$player$ |    00001061  A$player$
     00001062  A$player$ |    00001063  A$player$ |    00001064  A$player$
     00001065  A$player$ |    00001066  A$player$ |    00001067  A$player$
     00001068  A$player$ |    00001069  A$player$ |    0000106B  A$player$
     0000106C  A$player$ |    0000106D  A$player$ |    00001070  A$player$
     00001072  A$player$ |    00001075  A$player$ |    00001076  A$player$
     00001078  A$player$ |    00001079  A$player$ |    0000107A  A$player$
     0000107B  A$player$ |    0000107C  A$player$ |    0000107D  A$player$
     0000107E  A$player$ |    0000107F  A$player$ |    00001081  A$player$
     00001082  A$player$ |    00001083  A$player$ |    00001084  A$player$
     00001085  A$player$ |    00001088  A$player$ |    0000108A  A$player$
     0000108C  A$player$ |    0000108D  A$player$ |    0000108E  A$player$
     0000108F  A$player$ |    00001090  A$player$ |    00001093  A$player$
     00001095  A$player$ |    00001096  A$player$ |    00001097  A$player$
     00001098  A$player$ |    00001099  A$player$ |    0000109A  A$player$
     0000109B  A$player$ |    0000109D  A$player$ |    0000109E  A$player$
     0000109F  A$player$ |    000010A0  A$player$ |    000010A1  A$player$
     000010A2  A$player$ |    000010A3  A$player$ |    000010A4  A$player$
     000010A5  A$player$ |    000010A7  A$player$ |    000010A8  A$player$
     000010A9  A$player$ |    000010AB  A$player$ |    000010AC  A$player$
     000010AE  A$player$ |    000010AF  A$player$ |    000010B0  A$player$
     000010B1  A$player$ |    000010B2  A$player$ |    000010B3  A$player$
     000010B4  A$player$ |    000010B5  A$player$ |    000010B7  A$player$
     000010B8  A$player$ |    000010B9  A$player$ |    000010BA  A$player$
     000010BB  A$player$ |    000010BE  A$player$ |    000010C0  A$player$
     000010C1  A$player$ |    000010C2  A$player$ |    000010C4  A$player$
     000010C5  A$player$ |    000010C6  A$player$ |    000010C7  A$player$
     000010C8  A$player$ |    000010C9  A$player$ |    000010CA  A$player$
     000010CC  A$player$ |    000010CE  A$player$ |    000010D0  A$player$
     000010D2  A$player$ |    000010D3  A$player$ |    000010D5  A$player$
     000010D7  A$player$ |    000010D9  A$player$ |    000010DA  A$player$
     000010DC  A$player$ |    000010DC  C$player. |    000010DE  A$player$
     000010DF  A$player$ |    000010E0  A$player$ |    000010E1  A$player$
     000010E2  A$player$ |    000010E3  A$player$ |    000010E4  A$player$
     000010E5  A$player$ |    000010E8  A$player$ |    000010E8  C$player.
     000010EB  A$player$ |    000010ED  A$player$ |    000010F0  A$player$
     000010F0  C$player. |    000010F2  A$player$ |    000010F3  A$player$
ASxxxx Linker V03.00 + NoICE + sdld,  page 20.
Hexadecimal  [32-Bits]

Area                       Addr        Size        Decimal Bytes (Attributes)
--------------------       ----        ----        ------- ----- ------------
_CODE                  00000200    000037CF =       14287. bytes (REL,CON)

        Value  Global            Value  Global            Value  Global    
        -----  ------            -----  ------            -----  ------    
     000010F4  A$player$ |    000010F7  A$player$ |    000010F7  C$player.
     000010FA  A$player$ |    000010FC  A$player$ |    000010FC  C$player.
     000010FF  A$player$ |    00001101  A$player$ |    00001101  C$player.
     00001104  A$player$ |    00001106  A$player$ |    00001106  C$player.
     00001109  A$player$ |    00001109  C$player. |    00001109  C$player.
     0000110B  A$player$ |    0000110C  A$player$ |    0000110D  A$player$
     0000110E  A$player$ |    0000110F  A$player$ |    00001111  A$player$
     00001112  A$player$ |    00001113  A$player$ |    00001114  A$player$
     00001115  A$player$ |    00001116  A$player$ |    00001118  A$player$
     00001119  A$player$ |    0000111A  A$player$ |    0000111B  A$player$
     0000111C  A$player$ |    0000111D  A$player$ |    0000111D  C$player.
     0000111F  A$player$ |    00001120  A$player$ |    00001121  A$player$
     00001122  A$player$ |    00001123  A$player$ |    00001125  A$player$
     00001126  A$player$ |    00001127  A$player$ |    00001127  C$player.
     00001129  A$player$ |    0000112C  A$player$ |    0000112E  A$player$
     0000112F  A$player$ |    00001130  A$player$ |    00001131  A$player$
     00001132  A$player$ |    00001133  A$player$ |    00001134  A$player$
     00001135  A$player$ |    00001136  A$player$ |    00001137  A$player$
     00001138  A$player$ |    00001139  A$player$ |    0000113B  A$player$
     0000113C  A$player$ |    0000113D  A$player$ |    00001140  A$player$
     00001142  A$player$ |    00001145  A$player$ |    00001146  A$player$
     00001148  A$player$ |    00001149  A$player$ |    0000114A  A$player$
     0000114B  A$player$ |    0000114C  A$player$ |    0000114D  A$player$
     0000114E  A$player$ |    0000114F  A$player$ |    00001151  A$player$
     00001152  A$player$ |    00001153  A$player$ |    00001154  A$player$
     00001155  A$player$ |    00001158  A$player$ |    0000115A  A$player$
     0000115C  A$player$ |    0000115D  A$player$ |    0000115E  A$player$
     0000115F  A$player$ |    00001160  A$player$ |    00001163  A$player$
     00001165  A$player$ |    00001166  A$player$ |    00001167  A$player$
     00001168  A$player$ |    00001169  A$player$ |    0000116A  A$player$
     0000116B  A$player$ |    0000116D  A$player$ |    0000116E  A$player$
     0000116F  A$player$ |    00001170  A$player$ |    00001171  A$player$
     00001172  A$player$ |    00001173  A$player$ |    00001174  A$player$
     00001175  A$player$ |    00001177  A$player$ |    00001178  A$player$
     00001179  A$player$ |    0000117B  A$player$ |    0000117C  A$player$
     0000117E  A$player$ |    0000117F  A$player$ |    00001180  A$player$
     00001181  A$player$ |    00001182  A$player$ |    00001183  A$player$
     00001184  A$player$ |    00001185  A$player$ |    00001187  A$player$
     00001188  A$player$ |    00001189  A$player$ |    0000118A  A$player$
     0000118B  A$player$ |    0000118E  A$player$ |    00001190  A$player$
     00001191  A$player$ |    00001192  A$player$ |    00001194  A$player$
     00001195  A$player$ |    00001196  A$player$ |    00001197  A$player$
     00001198  A$player$ |    00001199  A$player$ |    0000119A  A$player$
     0000119B  A$player$ |    0000119D  A$player$ |    0000119F  A$player$
     000011A1  A$player$ |    000011A3  A$player$ |    000011A4  A$player$
     000011A6  A$player$ |    000011A8  A$player$ |    000011AA  A$player$
     000011AB  A$player$ |    000011AD  A$player$ |    000011AD  C$player.
     000011AF  A$player$ |    000011B0  A$player$ |    000011B1  A$player$
     000011B2  A$player$ |    000011B3  A$player$ |    000011B4  A$player$
     000011B5  A$player$ |    000011B6  A$player$ |    000011B9  A$player$
     000011B9  C$player. |    000011BC  A$player$ |    000011BE  A$player$
ASxxxx Linker V03.00 + NoICE + sdld,  page 21.
Hexadecimal  [32-Bits]

Area                       Addr        Size        Decimal Bytes (Attributes)
--------------------       ----        ----        ------- ----- ------------
_CODE                  00000200    000037CF =       14287. bytes (REL,CON)

        Value  Global            Value  Global            Value  Global    
        -----  ------            -----  ------            -----  ------    
     000011C1  A$player$ |    000011C1  C$player. |    000011C3  A$player$
     000011C4  A$player$ |    000011C5  A$player$ |    000011C8  A$player$
     000011C8  C$player. |    000011CB  A$player$ |    000011CD  A$player$
     000011CD  C$player. |    000011D0  A$player$ |    000011D0  C$player.
     000011D0  C$player. |    000011D2  A$player$ |    000011D3  A$player$
     000011D4  A$player$ |    000011D5  A$player$ |    000011D6  A$player$
     000011D7  A$player$ |    000011D9  A$player$ |    000011DA  A$player$
     000011DB  A$player$ |    000011DC  A$player$ |    000011DD  A$player$
     000011DE  A$player$ |    000011DF  A$player$ |    000011E2  A$player$
     000011E2  C$player. |    000011E5  A$player$ |    000011E7  A$player$
     000011E7  C$player. |    000011EA  A$player$ |    000011EA  C$player.
     000011EA  C$player. |    000011EC  A$player$ |    000011ED  A$player$
     000011EE  A$player$ |    000011EF  A$player$ |    000011F0  A$player$
     000011F2  A$player$ |    000011F3  A$player$ |    000011F3  C$player.
     000011F5  A$player$ |    000011F6  A$player$ |    000011F7  A$player$
     000011F8  A$player$ |    000011F9  A$player$ |    000011FA  A$player$
     000011FB  A$player$ |    000011FC  A$player$ |    000011FD  A$player$
     000011FE  A$player$ |    000011FF  A$player$ |    00001200  A$player$
     00001201  A$player$ |    00001202  A$player$ |    00001203  A$player$
     00001204  A$player$ |    00001206  A$player$ |    00001207  A$player$
     00001208  A$player$ |    00001208  C$player. |    0000120A  A$player$
     0000120D  A$player$ |    0000120F  A$player$ |    00001210  A$player$
     00001211  A$player$ |    00001212  A$player$ |    00001213  A$player$
     00001214  A$player$ |    00001215  A$player$ |    00001216  A$player$
     00001217  A$player$ |    00001218  A$player$ |    00001219  A$player$
     0000121A  A$player$ |    0000121C  A$player$ |    0000121D  A$player$
     0000121E  A$player$ |    00001221  A$player$ |    00001223  A$player$
     00001226  A$player$ |    00001227  A$player$ |    00001229  A$player$
     0000122A  A$player$ |    0000122B  A$player$ |    0000122C  A$player$
     0000122D  A$player$ |    0000122E  A$player$ |    0000122F  A$player$
     00001230  A$player$ |    00001232  A$player$ |    00001233  A$player$
     00001234  A$player$ |    00001235  A$player$ |    00001236  A$player$
     00001239  A$player$ |    0000123B  A$player$ |    0000123D  A$player$
     0000123E  A$player$ |    0000123F  A$player$ |    00001240  A$player$
     00001241  A$player$ |    00001244  A$player$ |    00001246  A$player$
     00001247  A$player$ |    00001248  A$player$ |    00001249  A$player$
     0000124A  A$player$ |    0000124B  A$player$ |    0000124C  A$player$
     0000124E  A$player$ |    0000124F  A$player$ |    00001250  A$player$
     00001251  A$player$ |    00001252  A$player$ |    00001253  A$player$
     00001254  A$player$ |    00001255  A$player$ |    00001256  A$player$
     00001258  A$player$ |    00001259  A$player$ |    0000125A  A$player$
     0000125C  A$player$ |    0000125D  A$player$ |    0000125F  A$player$
     00001260  A$player$ |    00001261  A$player$ |    00001262  A$player$
     00001263  A$player$ |    00001264  A$player$ |    00001265  A$player$
     00001266  A$player$ |    00001268  A$player$ |    00001269  A$player$
     0000126A  A$player$ |    0000126B  A$player$ |    0000126C  A$player$
     0000126F  A$player$ |    00001271  A$player$ |    00001272  A$player$
     00001273  A$player$ |    00001275  A$player$ |    00001276  A$player$
     00001277  A$player$ |    00001278  A$player$ |    00001279  A$player$
     0000127A  A$player$ |    0000127B  A$player$ |    0000127C  A$player$
     0000127E  A$player$ |    00001280  A$player$ |    00001282  A$player$
ASxxxx Linker V03.00 + NoICE + sdld,  page 22.
Hexadecimal  [32-Bits]

Area                       Addr        Size        Decimal Bytes (Attributes)
--------------------       ----        ----        ------- ----- ------------
_CODE                  00000200    000037CF =       14287. bytes (REL,CON)

        Value  Global            Value  Global            Value  Global    
        -----  ------            -----  ------            -----  ------    
     00001284  A$player$ |    00001285  A$player$ |    00001287  A$player$
     00001289  A$player$ |    0000128B  A$player$ |    0000128C  A$player$
     0000128E  A$player$ |    0000128E  C$player. |    00001290  A$player$
     00001291  A$player$ |    00001292  A$player$ |    00001293  A$player$
     00001294  A$player$ |    00001295  A$player$ |    00001298  A$player$
     00001298  C$player. |    0000129B  A$player$ |    0000129D  A$player$
     000012A0  A$player$ |    000012A0  C$player. |    000012A2  A$player$
     000012A3  A$player$ |    000012A4  A$player$ |    000012A7  A$player$
     000012A7  C$player. |    000012AA  A$player$ |    000012AC  A$player$
     000012AC  C$player. |    000012AF  A$player$ |    000012B1  A$player$
     000012B1  C$player. |    000012B4  A$player$ |    000012B6  A$player$
     000012B6  C$player. |    000012B9  A$player$ |    000012B9  C$player.
     000012B9  C$player. |    000012BB  A$player$ |    000012BC  A$player$
     000012BD  A$player$ |    000012BE  A$player$ |    000012BF  A$player$
     000012C1  A$player$ |    000012C1  C$player. |    000012C2  A$player$
     000012C3  A$player$ |    000012C4  A$player$ |    000012C5  A$player$
     000012C6  A$player$ |    000012C7  A$player$ |    000012C8  A$player$
     000012C8  C$player. |    000012CA  A$player$ |    000012CD  A$player$
     000012CF  A$player$ |    000012D0  A$player$ |    000012D1  A$player$
     000012D2  A$player$ |    000012D3  A$player$ |    000012D4  A$player$
     000012D5  A$player$ |    000012D6  A$player$ |    000012D7  A$player$
     000012D8  A$player$ |    000012D9  A$player$ |    000012DA  A$player$
     000012DC  A$player$ |    000012DD  A$player$ |    000012DE  A$player$
     000012E1  A$player$ |    000012E3  A$player$ |    000012E6  A$player$
     000012E7  A$player$ |    000012E9  A$player$ |    000012EA  A$player$
     000012EB  A$player$ |    000012EC  A$player$ |    000012ED  A$player$
     000012EE  A$player$ |    000012EF  A$player$ |    000012F0  A$player$
     000012F2  A$player$ |    000012F3  A$player$ |    000012F4  A$player$
     000012F5  A$player$ |    000012F6  A$player$ |    000012F9  A$player$
     000012FB  A$player$ |    000012FD  A$player$ |    000012FE  A$player$
     000012FF  A$player$ |    00001300  A$player$ |    00001301  A$player$
     00001304  A$player$ |    00001306  A$player$ |    00001307  A$player$
     00001308  A$player$ |    00001309  A$player$ |    0000130A  A$player$
     0000130B  A$player$ |    0000130C  A$player$ |    0000130E  A$player$
     0000130F  A$player$ |    00001310  A$player$ |    00001311  A$player$
     00001312  A$player$ |    00001313  A$player$ |    00001314  A$player$
     00001315  A$player$ |    00001316  A$player$ |    00001318  A$player$
     00001319  A$player$ |    0000131A  A$player$ |    0000131B  A$player$
     0000131C  A$player$ |    0000131D  A$player$ |    0000131E  A$player$
     0000131F  A$player$ |    00001321  A$player$ |    00001322  A$player$
     00001323  A$player$ |    00001324  A$player$ |    00001325  A$player$
     00001326  A$player$ |    00001327  A$player$ |    00001328  A$player$
     00001329  A$player$ |    0000132A  A$player$ |    0000132B  A$player$
     0000132C  A$player$ |    0000132F  A$player$ |    00001331  A$player$
     00001332  A$player$ |    00001333  A$player$ |    00001335  A$player$
     00001336  A$player$ |    00001337  A$player$ |    00001338  A$player$
     00001339  A$player$ |    0000133A  A$player$ |    0000133B  A$player$
     0000133D  A$player$ |    0000133F  A$player$ |    00001341  A$player$
     00001343  A$player$ |    00001344  A$player$ |    00001346  A$player$
     00001348  A$player$ |    0000134A  A$player$ |    0000134B  A$player$
     0000134D  A$player$ |    0000134D  C$player. |    0000134F  A$player$
ASxxxx Linker V03.00 + NoICE + sdld,  page 23.
Hexadecimal  [32-Bits]

Area                       Addr        Size        Decimal Bytes (Attributes)
--------------------       ----        ----        ------- ----- ------------
_CODE                  00000200    000037CF =       14287. bytes (REL,CON)

        Value  Global            Value  Global            Value  Global    
        -----  ------            -----  ------            -----  ------    
     00001350  A$player$ |    00001351  A$player$ |    00001352  A$player$
     00001353  A$player$ |    00001354  A$player$ |    00001357  A$player$
     00001357  C$player. |    0000135A  A$player$ |    0000135C  A$player$
     0000135E  A$player$ |    0000135E  C$player. |    00001360  A$player$
     00001361  A$player$ |    00001362  A$player$ |    00001365  A$player$
     00001365  C$player. |    00001368  A$player$ |    0000136A  A$player$
     0000136A  C$player. |    0000136C  A$player$ |    0000136C  C$player.
     0000136C  C$player. |    0000136E  A$player$ |    0000136F  A$player$
     00001370  A$player$ |    00001371  A$player$ |    00001372  A$player$
     00001373  A$player$ |    00001376  A$player$ |    00001376  C$player.
     00001379  A$player$ |    0000137B  A$player$ |    0000137B  C$player.
     0000137D  A$player$ |    0000137D  C$player. |    0000137D  C$player.
     0000137F  A$player$ |    00001380  A$player$ |    00001381  A$player$
     00001382  A$player$ |    00001383  A$player$ |    00001384  A$player$
     00001385  A$player$ |    00001386  A$player$ |    00001387  A$player$
     00001388  A$player$ |    00001389  A$player$ |    0000138A  A$player$
     0000138B  A$player$ |    0000138C  A$player$ |    0000138D  A$player$
     0000138E  A$player$ |    0000138F  A$player$ |    00001392  A$player$
     00001392  C$player. |    00001395  A$player$ |    00001397  A$player$
     00001397  C$player. |    0000139A  A$player$ |    0000139C  A$player$
     0000139C  C$player. |    0000139F  A$player$ |    000013A1  A$player$
     000013A1  C$player. |    000013A3  A$player$ |    000013A3  C$player.
     000013A3  C$player. |    000013A5  A$player$ |    000013A6  A$player$
     000013A7  A$player$ |    000013A8  A$player$ |    000013A9  A$player$
     000013AA  A$player$ |    000013AD  A$player$ |    000013AD  C$player.
     000013B0  A$player$ |    000013B2  A$player$ |    000013B2  C$player.
     000013B2  C$player. |    000013B5  A$player$ |    000013B6  A$player$
     000013B7  A$player$ |    000013B9  A$player$ |    000013BC  A$player$
     000013BE  A$player$ |    000013BE  C$player. |    000013BE  XFplayer$
     000013BF  A$player$ |    000013BF  C$player. |    000013BF  Fplayer$u
     000013C0  A$player$ |    000013C1  A$player$ |    000013C4  A$player$
     000013C5  A$player$ |    000013C6  A$player$ |    000013C8  A$player$
     000013CA  A$player$ |    000013CB  A$player$ |    000013CE  A$player$
     000013CF  A$player$ |    000013D0  A$player$ |    000013D1  A$player$
     000013D3  A$player$ |    000013D4  A$player$ |    000013D4  C$player.
     000013D5  A$player$ |    000013D7  A$player$ |    000013D7  C$player.
     000013D8  A$player$ |    000013D9  A$player$ |    000013DA  A$player$
     000013DC  A$player$ |    000013DF  A$player$ |    000013E0  A$player$
     000013E2  A$player$ |    000013E3  A$player$ |    000013E4  A$player$
     000013E6  A$player$ |    000013E7  A$player$ |    000013E9  A$player$
     000013EA  A$player$ |    000013EC  A$player$ |    000013ED  A$player$
     000013EF  A$player$ |    000013F0  A$player$ |    000013F1  A$player$
     000013F3  A$player$ |    000013F3  C$player. |    000013F6  A$player$
     000013F7  A$player$ |    000013F8  A$player$ |    000013F9  A$player$
     000013FA  A$player$ |    000013FB  A$player$ |    000013FC  A$player$
     000013FD  A$player$ |    000013FE  A$player$ |    000013FF  A$player$
     00001400  A$player$ |    00001401  A$player$ |    00001401  C$player.
     00001404  A$player$ |    00001405  A$player$ |    00001405  C$player.
     00001407  A$player$ |    00001408  A$player$ |    00001409  A$player$
     0000140A  A$player$ |    0000140C  A$player$ |    0000140D  A$player$
     00001410  A$player$ |    00001410  C$player. |    00001412  A$player$
ASxxxx Linker V03.00 + NoICE + sdld,  page 24.
Hexadecimal  [32-Bits]

Area                       Addr        Size        Decimal Bytes (Attributes)
--------------------       ----        ----        ------- ----- ------------
_CODE                  00000200    000037CF =       14287. bytes (REL,CON)

        Value  Global            Value  Global            Value  Global    
        -----  ------            -----  ------            -----  ------    
     00001412  C$player. |    00001415  A$player$ |    00001416  A$player$
     00001418  A$player$ |    00001418  C$player. |    00001419  A$player$
     0000141A  A$player$ |    0000141C  A$player$ |    0000141D  A$player$
     0000141E  A$player$ |    00001420  A$player$ |    00001422  A$player$
     00001423  A$player$ |    00001426  A$player$ |    00001426  C$player.
     00001429  A$player$ |    0000142C  A$player$ |    0000142D  A$player$
     0000142F  A$player$ |    0000142F  C$player. |    00001430  A$player$
     00001433  A$player$ |    00001434  A$player$ |    00001435  A$player$
     00001435  C$player. |    00001435  XFplayer$ |    00001436  A$player$
     00001436  C$player. |    00001436  C$player. |    00001436  Fplayer$c
     00001439  A$player$ |    0000143B  A$player$ |    0000143D  A$player$
     0000143E  A$player$ |    00001440  A$player$ |    00001443  A$player$
     00001444  A$player$ |    00001447  A$player$ |    00001448  A$player$
     00001449  A$player$ |    0000144A  A$player$ |    0000144B  A$player$
     0000144E  A$player$ |    0000144F  A$player$ |    00001450  A$player$
     00001451  A$player$ |    00001451  C$player. |    00001451  XFplayer$
     00001452  A$player$ |    00001452  C$player. |    00001452  Fplayer$p
     00001454  A$player$ |    00001454  C$player. |    00001456  A$player$
     00001457  A$player$ |    00001459  A$player$ |    0000145A  A$player$
     0000145C  A$player$ |    0000145D  A$player$ |    0000145F  A$player$
     00001460  A$player$ |    00001461  A$player$ |    00001462  A$player$
     00001463  A$player$ |    00001464  A$player$ |    00001467  A$player$
     00001469  A$player$ |    0000146A  A$player$ |    0000146C  A$player$
     0000146D  A$player$ |    0000146E  A$player$ |    0000146F  A$player$
     00001470  A$player$ |    00001471  A$player$ |    00001472  A$player$
     00001475  A$player$ |    00001476  A$player$ |    00001478  A$player$
     0000147A  A$player$ |    0000147B  A$player$ |    0000147D  A$player$
     0000147E  A$player$ |    0000147F  A$player$ |    00001480  A$player$
     00001481  A$player$ |    00001482  A$player$ |    00001484  A$player$
     00001485  A$player$ |    00001486  A$player$ |    00001487  A$player$
     0000148A  A$player$ |    0000148B  A$player$ |    0000148C  A$player$
     0000148E  A$player$ |    0000148F  A$player$ |    00001490  A$player$
     00001491  A$player$ |    00001492  A$player$ |    00001493  A$player$
     00001494  A$player$ |    00001496  A$player$ |    00001498  A$player$
     0000149A  A$player$ |    0000149C  A$player$ |    0000149D  A$player$
     0000149F  A$player$ |    000014A1  A$player$ |    000014A3  A$player$
     000014A4  A$player$ |    000014A6  A$player$ |    000014A8  A$player$
     000014A9  A$player$ |    000014AB  A$player$ |    000014AC  A$player$
     000014AD  A$player$ |    000014AE  A$player$ |    000014AF  A$player$
     000014B0  A$player$ |    000014B1  A$player$ |    000014B2  A$player$
     000014B4  A$player$ |    000014B5  A$player$ |    000014B6  A$player$
     000014B7  A$player$ |    000014B8  A$player$ |    000014B9  A$player$
     000014BA  A$player$ |    000014BD  A$player$ |    000014BE  A$player$
     000014C0  A$player$ |    000014C1  A$player$ |    000014C2  A$player$
     000014C3  A$player$ |    000014C4  A$player$ |    000014C5  A$player$
     000014C6  A$player$ |    000014C8  A$player$ |    000014CA  A$player$
     000014CC  A$player$ |    000014CE  A$player$ |    000014CF  A$player$
     000014D1  A$player$ |    000014D3  A$player$ |    000014D5  A$player$
     000014D6  A$player$ |    000014D8  A$player$ |    000014DA  A$player$
     000014DC  A$player$ |    000014DE  A$player$ |    000014E0  A$player$
     000014E0  C$player. |    000014E0  XFplayer$ |    000014E1  A$player$
ASxxxx Linker V03.00 + NoICE + sdld,  page 25.
Hexadecimal  [32-Bits]

Area                       Addr        Size        Decimal Bytes (Attributes)
--------------------       ----        ----        ------- ----- ------------
_CODE                  00000200    000037CF =       14287. bytes (REL,CON)

        Value  Global            Value  Global            Value  Global    
        -----  ------            -----  ------            -----  ------    
     000014E1  C$player. |    000014E1  Fplayer$r |    000014E2  A$player$
     000014E3  A$player$ |    000014E3  C$player. |    000014E5  A$player$
     000014E6  A$player$ |    000014E8  A$player$ |    000014EB  A$player$
     000014EB  C$player. |    000014EE  A$player$ |    000014F0  A$player$
     000014F1  A$player$ |    000014F3  A$player$ |    000014F4  A$player$
     000014F4  C$player. |    000014F7  A$player$ |    000014F8  A$player$
     000014F9  A$player$ |    000014FB  A$player$ |    000014FC  A$player$
     000014FF  A$player$ |    00001501  A$player$ |    00001503  A$player$
     00001504  A$player$ |    00001506  A$player$ |    00001507  A$player$
     00001509  A$player$ |    0000150B  A$player$ |    0000150D  A$player$
     0000150F  A$player$ |    00001511  A$player$ |    00001513  A$player$
     00001515  A$player$ |    00001517  A$player$ |    0000151A  A$player$
     0000151B  A$player$ |    0000151C  A$player$ |    0000151D  A$player$
     0000151F  A$player$ |    00001520  A$player$ |    00001522  A$player$
     00001523  A$player$ |    00001524  A$player$ |    00001525  A$player$
     00001526  A$player$ |    00001528  A$player$ |    0000152A  A$player$
     0000152C  A$player$ |    0000152F  A$player$ |    00001530  A$player$
     00001531  A$player$ |    00001532  A$player$ |    00001534  A$player$
     00001535  A$player$ |    00001537  A$player$ |    00001538  A$player$
     00001539  A$player$ |    0000153A  A$player$ |    0000153B  A$player$
     0000153D  A$player$ |    0000153D  C$player. |    0000153F  A$player$
     00001542  A$player$ |    00001542  C$player. |    00001544  A$player$
     00001546  A$player$ |    00001549  A$player$ |    00001549  C$player.
     0000154A  A$player$ |    0000154D  A$player$ |    0000154E  A$player$
     0000154F  A$player$ |    00001550  A$player$ |    00001551  A$player$
     00001552  A$player$ |    00001553  A$player$ |    00001554  A$player$
     00001556  A$player$ |    00001557  A$player$ |    00001558  A$player$
     00001559  A$player$ |    0000155A  A$player$ |    0000155B  A$player$
     0000155D  A$player$ |    0000155F  A$player$ |    00001561  A$player$
     00001561  C$player. |    00001562  A$player$ |    00001565  A$player$
     00001566  A$player$ |    00001566  C$player. |    00001569  A$player$
     0000156A  A$player$ |    0000156B  A$player$ |    0000156D  A$player$
     0000156E  A$player$ |    0000156F  A$player$ |    00001570  A$player$
     00001571  A$player$ |    00001572  A$player$ |    00001575  A$player$
     00001576  A$player$ |    00001578  A$player$ |    0000157A  A$player$
     0000157D  A$player$ |    0000157E  A$player$ |    00001580  A$player$
     00001581  A$player$ |    00001582  A$player$ |    00001584  A$player$
     00001585  A$player$ |    00001586  A$player$ |    00001587  A$player$
     00001588  A$player$ |    0000158B  A$player$ |    0000158D  A$player$
     0000158D  C$player. |    00001590  A$player$ |    00001591  A$player$
     00001592  A$player$ |    00001594  A$player$ |    00001596  A$player$
     00001597  A$player$ |    00001598  A$player$ |    00001599  A$player$
     0000159A  A$player$ |    0000159B  A$player$ |    0000159C  A$player$
     0000159D  A$player$ |    000015A0  A$player$ |    000015A2  A$player$
     000015A3  A$player$ |    000015A4  A$player$ |    000015A6  A$player$
     000015A7  A$player$ |    000015A8  A$player$ |    000015AA  A$player$
     000015AA  C$player. |    000015AC  A$player$ |    000015AF  A$player$
     000015AF  C$player. |    000015B0  A$player$ |    000015B3  A$player$
     000015B6  A$player$ |    000015B7  A$player$ |    000015B7  C$player.
     000015BA  A$player$ |    000015BB  A$player$ |    000015BC  A$player$
     000015BE  A$player$ |    000015BF  A$player$ |    000015C0  A$player$
ASxxxx Linker V03.00 + NoICE + sdld,  page 26.
Hexadecimal  [32-Bits]

Area                       Addr        Size        Decimal Bytes (Attributes)
--------------------       ----        ----        ------- ----- ------------
_CODE                  00000200    000037CF =       14287. bytes (REL,CON)

        Value  Global            Value  Global            Value  Global    
        -----  ------            -----  ------            -----  ------    
     000015C1  A$player$ |    000015C2  A$player$ |    000015C3  A$player$
     000015C6  A$player$ |    000015C7  A$player$ |    000015C9  A$player$
     000015CB  A$player$ |    000015CE  A$player$ |    000015CF  A$player$
     000015D1  A$player$ |    000015D2  A$player$ |    000015D3  A$player$
     000015D5  A$player$ |    000015D6  A$player$ |    000015D7  A$player$
     000015D8  A$player$ |    000015D9  A$player$ |    000015DC  A$player$
     000015DE  A$player$ |    000015DE  C$player. |    000015E1  A$player$
     000015E2  A$player$ |    000015E3  A$player$ |    000015E5  A$player$
     000015E7  A$player$ |    000015E8  A$player$ |    000015E9  A$player$
     000015EA  A$player$ |    000015EB  A$player$ |    000015EC  A$player$
     000015ED  A$player$ |    000015EE  A$player$ |    000015F1  A$player$
     000015F3  A$player$ |    000015F4  A$player$ |    000015F5  A$player$
     000015F7  A$player$ |    000015F8  A$player$ |    000015F9  A$player$
     000015FB  A$player$ |    000015FC  A$player$ |    000015FC  C$player.
     000015FF  A$player$ |    00001600  A$player$ |    00001601  A$player$
     00001603  A$player$ |    00001605  A$player$ |    00001606  A$player$
     00001607  A$player$ |    00001608  A$player$ |    00001609  A$player$
     0000160A  A$player$ |    0000160B  A$player$ |    0000160C  A$player$
     0000160F  A$player$ |    00001611  A$player$ |    00001612  A$player$
     00001613  A$player$ |    00001615  A$player$ |    00001616  A$player$
     00001617  A$player$ |    00001618  A$player$ |    0000161A  A$player$
     0000161B  A$player$ |    0000161B  C$player. |    0000161E  A$player$
     00001621  A$player$ |    00001622  A$player$ |    00001623  A$player$
     00001625  A$player$ |    00001626  A$player$ |    00001628  A$player$
     00001629  A$player$ |    0000162A  A$player$ |    0000162B  A$player$
     0000162C  A$player$ |    0000162D  A$player$ |    0000162E  A$player$
     0000162F  A$player$ |    00001630  A$player$ |    00001631  A$player$
     00001632  A$player$ |    00001633  A$player$ |    00001636  A$player$
     00001637  A$player$ |    00001638  A$player$ |    00001639  A$player$
     0000163A  A$player$ |    0000163B  A$player$ |    0000163D  A$player$
     0000163E  A$player$ |    00001641  A$player$ |    00001642  A$player$
     00001644  A$player$ |    00001647  A$player$ |    00001647  C$player.
     0000164A  A$player$ |    0000164B  A$player$ |    0000164C  A$player$
     0000164D  A$player$ |    0000164E  A$player$ |    0000164F  A$player$
     00001650  A$player$ |    00001652  A$player$ |    00001653  A$player$
     00001655  A$player$ |    00001656  A$player$ |    00001657  A$player$
     00001658  A$player$ |    00001659  A$player$ |    0000165A  A$player$
     0000165C  A$player$ |    0000165E  A$player$ |    0000165E  C$player.
     0000165F  A$player$ |    00001662  A$player$ |    00001663  A$player$
     00001663  C$player. |    00001666  A$player$ |    00001667  A$player$
     00001668  A$player$ |    0000166A  A$player$ |    0000166B  A$player$
     0000166C  A$player$ |    0000166D  A$player$ |    0000166F  A$player$
     00001670  A$player$ |    00001673  A$player$ |    00001674  A$player$
     00001676  A$player$ |    00001678  A$player$ |    0000167B  A$player$
     0000167C  A$player$ |    0000167E  A$player$ |    0000167F  A$player$
     00001680  A$player$ |    00001682  A$player$ |    00001683  A$player$
     00001684  A$player$ |    00001685  A$player$ |    00001686  A$player$
     00001689  A$player$ |    0000168B  A$player$ |    0000168B  C$player.
     0000168E  A$player$ |    0000168F  A$player$ |    00001690  A$player$
     00001692  A$player$ |    00001694  A$player$ |    00001695  A$player$
     00001696  A$player$ |    00001697  A$player$ |    00001698  A$player$
ASxxxx Linker V03.00 + NoICE + sdld,  page 27.
Hexadecimal  [32-Bits]

Area                       Addr        Size        Decimal Bytes (Attributes)
--------------------       ----        ----        ------- ----- ------------
_CODE                  00000200    000037CF =       14287. bytes (REL,CON)

        Value  Global            Value  Global            Value  Global    
        -----  ------            -----  ------            -----  ------    
     00001699  A$player$ |    0000169A  A$player$ |    0000169B  A$player$
     0000169E  A$player$ |    000016A0  A$player$ |    000016A1  A$player$
     000016A2  A$player$ |    000016A4  A$player$ |    000016A5  A$player$
     000016A6  A$player$ |    000016A8  A$player$ |    000016A8  C$player.
     000016AA  A$player$ |    000016AD  A$player$ |    000016AD  C$player.
     000016AE  A$player$ |    000016B1  A$player$ |    000016B4  A$player$
     000016B5  A$player$ |    000016B5  C$player. |    000016B8  A$player$
     000016B9  A$player$ |    000016BA  A$player$ |    000016BC  A$player$
     000016BD  A$player$ |    000016BE  A$player$ |    000016BF  A$player$
     000016C1  A$player$ |    000016C2  A$player$ |    000016C5  A$player$
     000016C6  A$player$ |    000016C8  A$player$ |    000016CA  A$player$
     000016CD  A$player$ |    000016CE  A$player$ |    000016D0  A$player$
     000016D1  A$player$ |    000016D2  A$player$ |    000016D4  A$player$
     000016D5  A$player$ |    000016D6  A$player$ |    000016D7  A$player$
     000016D8  A$player$ |    000016DB  A$player$ |    000016DD  A$player$
     000016DD  C$player. |    000016E0  A$player$ |    000016E1  A$player$
     000016E2  A$player$ |    000016E4  A$player$ |    000016E6  A$player$
     000016E7  A$player$ |    000016E8  A$player$ |    000016E9  A$player$
     000016EA  A$player$ |    000016EB  A$player$ |    000016EC  A$player$
     000016ED  A$player$ |    000016F0  A$player$ |    000016F2  A$player$
     000016F3  A$player$ |    000016F4  A$player$ |    000016F6  A$player$
     000016F7  A$player$ |    000016F8  A$player$ |    000016FA  A$player$
     000016FB  A$player$ |    000016FB  C$player. |    000016FE  A$player$
     000016FF  A$player$ |    00001700  A$player$ |    00001702  A$player$
     00001704  A$player$ |    00001705  A$player$ |    00001706  A$player$
     00001707  A$player$ |    00001708  A$player$ |    00001709  A$player$
     0000170A  A$player$ |    0000170B  A$player$ |    0000170E  A$player$
     00001710  A$player$ |    00001711  A$player$ |    00001712  A$player$
     00001714  A$player$ |    00001715  A$player$ |    00001716  A$player$
     00001717  A$player$ |    00001719  A$player$ |    0000171A  A$player$
     0000171A  C$player. |    0000171D  A$player$ |    00001720  A$player$
     00001721  A$player$ |    00001722  A$player$ |    00001724  A$player$
     00001725  A$player$ |    00001727  A$player$ |    00001728  A$player$
     00001729  A$player$ |    0000172A  A$player$ |    0000172B  A$player$
     0000172C  A$player$ |    0000172D  A$player$ |    0000172E  A$player$
     0000172F  A$player$ |    00001730  A$player$ |    00001731  A$player$
     00001732  A$player$ |    00001735  A$player$ |    00001736  A$player$
     00001737  A$player$ |    00001738  A$player$ |    00001739  A$player$
     0000173A  A$player$ |    0000173C  A$player$ |    0000173D  A$player$
     00001740  A$player$ |    00001741  A$player$ |    00001743  A$player$
     00001743  C$player. |    00001745  A$player$ |    00001746  A$player$
     00001747  A$player$ |    00001747  C$player. |    00001747  XFplayer$
     00001748  A$player$ |    00001748  C$player. |    00001748  C$player.
     00001748  Fplayer$r |    0000174A  A$player$ |    0000174B  A$player$
     0000174D  A$player$ |    0000174F  A$player$ |    00001752  A$player$
     00001753  A$player$ |    00001754  A$player$ |    00001755  A$player$
     00001757  A$player$ |    00001759  A$player$ |    0000175A  A$player$
     0000175B  A$player$ |    0000175D  A$player$ |    0000175D  C$player.
     0000175D  XFplayer$ |    0000175E  A$player$ |    0000175E  C$player.
     0000175E  C$player. |    0000175E  Fplayer$r |    00001760  A$player$
     00001760  C$player. |    00001760  XFplayer$ |    00001761  A$player$
ASxxxx Linker V03.00 + NoICE + sdld,  page 28.
Hexadecimal  [32-Bits]

Area                       Addr        Size        Decimal Bytes (Attributes)
--------------------       ----        ----        ------- ----- ------------
_CODE                  00000200    000037CF =       14287. bytes (REL,CON)

        Value  Global            Value  Global            Value  Global    
        -----  ------            -----  ------            -----  ------    
     00001761  C$player. |    00001761  C$player. |    00001761  Fplayer$r
     00001763  A$player$ |    00001764  A$player$ |    00001766  A$player$
     00001769  A$player$ |    0000176C  A$player$ |    0000176E  A$player$
     00001770  A$player$ |    00001772  A$player$ |    00001774  A$player$
     00001777  A$player$ |    0000177A  A$player$ |    0000177C  A$player$
     0000177F  A$player$ |    00001781  A$player$ |    00001784  A$player$
     00001786  A$player$ |    00001786  C$player. |    00001789  A$player$
     00001789  C$player. |    0000178C  A$player$ |    0000178E  A$player$
     0000178E  C$player. |    00001791  A$player$ |    00001793  A$player$
     00001793  C$player. |    00001796  A$player$ |    00001798  A$player$
     00001798  C$player. |    00001799  A$player$ |    0000179C  A$player$
     0000179E  A$player$ |    0000179F  A$player$ |    000017A1  A$player$
     000017A3  A$player$ |    000017A4  A$player$ |    000017A4  C$player.
     000017A7  A$player$ |    000017A8  A$player$ |    000017A9  A$player$
     000017AB  A$player$ |    000017AC  A$player$ |    000017AE  A$player$
     000017AF  A$player$ |    000017B0  A$player$ |    000017B1  A$player$
     000017B2  A$player$ |    000017B4  A$player$ |    000017B5  A$player$
     000017B6  A$player$ |    000017B8  A$player$ |    000017B9  A$player$
     000017BC  A$player$ |    000017BE  A$player$ |    000017BF  A$player$
     000017C0  A$player$ |    000017C2  A$player$ |    000017C3  A$player$
     000017C4  A$player$ |    000017C5  A$player$ |    000017C7  A$player$
     000017C7  C$player. |    000017C8  A$player$ |    000017C9  A$player$
     000017CB  A$player$ |    000017CB  C$player. |    000017CD  A$player$
     000017CE  A$player$ |    000017CF  A$player$ |    000017D1  A$player$
     000017D2  A$player$ |    000017D4  A$player$ |    000017D4  C$player.
     000017D5  A$player$ |    000017D7  A$player$ |    000017D8  A$player$
     000017D8  C$player. |    000017D9  A$player$ |    000017DB  A$player$
     000017DC  A$player$ |    000017DE  A$player$ |    000017DE  C$player.
     000017DF  A$player$ |    000017E0  A$player$ |    000017E1  A$player$
     000017E4  A$player$ |    000017E5  A$player$ |    000017E6  A$player$
     000017E6  C$player. |    000017E7  A$player$ |    000017E8  A$player$
     000017EA  A$player$ |    000017EB  A$player$ |    000017EC  A$player$
     000017EF  A$player$ |    000017F0  A$player$ |    000017F2  A$player$
     000017F2  C$player. |    000017F3  A$player$ |    000017F4  A$player$
     000017F7  A$player$ |    000017F8  A$player$ |    000017F8  C$player.
     000017FB  A$player$ |    000017FC  A$player$ |    000017FD  A$player$
     000017FF  A$player$ |    00001800  A$player$ |    00001802  A$player$
     00001803  A$player$ |    00001804  A$player$ |    00001805  A$player$
     00001806  A$player$ |    00001808  A$player$ |    00001809  A$player$
     0000180A  A$player$ |    0000180C  A$player$ |    0000180D  A$player$
     00001810  A$player$ |    00001812  A$player$ |    00001813  A$player$
     00001814  A$player$ |    00001816  A$player$ |    00001817  A$player$
     00001818  A$player$ |    00001819  A$player$ |    0000181B  A$player$
     0000181C  A$player$ |    0000181C  C$player. |    0000181E  A$player$
     0000181E  C$player. |    0000181E  XFplayer$ |    0000181F  A$player$
     0000181F  C$player. |    0000181F  C$player. |    0000181F  Fplayer$m
     00001821  A$player$ |    00001822  A$player$ |    00001823  A$player$
     00001824  A$player$ |    00001825  A$player$ |    00001827  A$player$
     00001828  A$player$ |    0000182A  A$player$ |    0000182B  A$player$
     0000182C  A$player$ |    0000182E  A$player$ |    00001831  A$player$
     00001832  A$player$ |    00001833  A$player$ |    00001834  A$player$
ASxxxx Linker V03.00 + NoICE + sdld,  page 29.
Hexadecimal  [32-Bits]

Area                       Addr        Size        Decimal Bytes (Attributes)
--------------------       ----        ----        ------- ----- ------------
_CODE                  00000200    000037CF =       14287. bytes (REL,CON)

        Value  Global            Value  Global            Value  Global    
        -----  ------            -----  ------            -----  ------    
     00001836  A$player$ |    00001837  A$player$ |    00001838  A$player$
     0000183B  A$player$ |    0000183D  A$player$ |    0000183E  A$player$
     0000183F  A$player$ |    00001840  A$player$ |    00001841  A$player$
     00001842  A$player$ |    00001843  A$player$ |    00001844  A$player$
     00001845  A$player$ |    00001846  A$player$ |    00001848  A$player$
     00001849  A$player$ |    0000184A  A$player$ |    0000184D  A$player$
     0000184E  A$player$ |    0000184F  A$player$ |    00001850  A$player$
     00001851  A$player$ |    00001851  C$player. |    00001851  C$player.
     00001851  XFplayer$ |    00001852  A$player$ |    00001852  C$player.
     00001852  C$player. |    00001852  Fplayer$r |    00001854  A$player$
     00001855  A$player$ |    00001857  A$player$ |    00001859  A$player$
     0000185C  A$player$ |    0000185E  A$player$ |    00001860  A$player$
     00001863  A$player$ |    00001865  A$player$ |    00001867  A$player$
     0000186A  A$player$ |    0000186D  A$player$ |    0000186F  A$player$
     00001872  A$player$ |    00001874  A$player$ |    00001877  A$player$
     00001879  A$player$ |    00001879  C$player. |    0000187C  A$player$
     0000187E  A$player$ |    0000187E  C$player. |    00001881  A$player$
     00001883  A$player$ |    00001883  C$player. |    00001885  A$player$
     00001886  A$player$ |    00001886  C$player. |    00001888  A$player$
     00001889  A$player$ |    0000188B  A$player$ |    0000188D  A$player$
     0000188D  C$player. |    00001890  A$player$ |    00001890  C$player.
     00001892  A$player$ |    00001892  C$player. |    00001892  XFplayer$
     00001893  A$player$ |    00001893  C$player. |    00001893  C$player.
     00001893  Fplayer$r |    00001895  A$player$ |    00001896  A$player$
     00001898  A$player$ |    0000189A  A$player$ |    0000189D  A$player$
     0000189F  A$player$ |    000018A1  A$player$ |    000018A3  A$player$
     000018A5  A$player$ |    000018A8  A$player$ |    000018AB  A$player$
     000018AD  A$player$ |    000018B0  A$player$ |    000018B2  A$player$
     000018B5  A$player$ |    000018B7  A$player$ |    000018B7  C$player.
     000018BA  A$player$ |    000018BC  A$player$ |    000018BC  C$player.
     000018BF  A$player$ |    000018C1  A$player$ |    000018C1  C$player.
     000018C3  A$player$ |    000018C4  A$player$ |    000018C4  C$player.
     000018C6  A$player$ |    000018C7  A$player$ |    000018C9  A$player$
     000018CB  A$player$ |    000018CB  C$player. |    000018CE  A$player$
     000018CE  C$player. |    000018D0  A$player$ |    000018D0  C$player.
     000018D0  XFplayer$ |    000018D1  A$player$ |    000018D1  C$player.
     000018D1  C$player. |    000018D1  Fplayer$r |    000018D3  A$player$
     000018D4  A$player$ |    000018D6  A$player$ |    000018D8  A$player$
     000018DA  A$player$ |    000018DB  A$player$ |    000018DC  A$player$
     000018DF  A$player$ |    000018E0  A$player$ |    000018E0  C$player.
     000018E2  A$player$ |    000018E4  A$player$ |    000018E7  A$player$
     000018E8  A$player$ |    000018E9  A$player$ |    000018EA  A$player$
     000018EC  A$player$ |    000018EE  A$player$ |    000018EF  A$player$
     000018F0  A$player$ |    000018F2  A$player$ |    000018F2  C$player.
     000018F2  XFplayer$ |    000018F3  A$scene$1 |    000018F3  C$scene.c
     000018F3  G$scene_i |    000018F3  _scene_in |    000018F5  A$scene$1
     000018F5  C$scene.c |    000018F8  A$scene$1 |    000018F9  A$scene$1
     000018FC  A$scene$1 |    000018FD  A$scene$1 |    00001900  A$scene$1
     00001902  A$scene$1 |    00001902  C$scene.c |    00001905  A$scene$1
     00001906  A$scene$1 |    00001909  A$scene$1 |    0000190A  A$scene$1
     0000190D  A$scene$1 |    0000190F  A$scene$1 |    0000190F  C$scene.c
ASxxxx Linker V03.00 + NoICE + sdld,  page 30.
Hexadecimal  [32-Bits]

Area                       Addr        Size        Decimal Bytes (Attributes)
--------------------       ----        ----        ------- ----- ------------
_CODE                  00000200    000037CF =       14287. bytes (REL,CON)

        Value  Global            Value  Global            Value  Global    
        -----  ------            -----  ------            -----  ------    
     00001912  A$scene$1 |    00001913  A$scene$1 |    00001916  A$scene$1
     00001917  A$scene$1 |    0000191A  A$scene$1 |    0000191C  A$scene$1
     0000191C  C$scene.c |    0000191F  A$scene$1 |    00001920  A$scene$2
     00001923  A$scene$2 |    00001924  A$scene$2 |    00001927  A$scene$2
     00001928  A$scene$2 |    0000192B  A$scene$2 |    0000192D  A$scene$2
     0000192D  C$scene.c |    00001930  A$scene$2 |    00001932  A$scene$2
     00001932  C$scene.c |    00001935  A$scene$2 |    00001937  A$scene$2
     00001937  C$scene.c |    0000193A  A$scene$2 |    0000193C  A$scene$2
     0000193C  C$scene.c |    0000193F  A$scene$2 |    00001941  A$scene$2
     00001941  C$scene.c |    00001944  A$scene$2 |    00001946  A$scene$2
     00001946  C$scene.c |    00001949  A$scene$2 |    0000194B  A$scene$2
     0000194B  C$scene.c |    0000194E  A$scene$2 |    00001950  A$scene$2
     00001952  A$scene$2 |    00001954  A$scene$2 |    00001955  A$scene$2
     00001957  A$scene$2 |    00001957  C$scene.c |    0000195A  A$scene$2
     0000195C  A$scene$2 |    0000195C  C$scene.c |    0000195E  A$scene$2
     0000195F  A$scene$2 |    00001960  A$scene$2 |    00001961  A$scene$2
     00001962  A$scene$2 |    00001964  A$scene$2 |    00001965  A$scene$2
     00001966  A$scene$2 |    00001967  A$scene$2 |    00001969  A$scene$2
     0000196A  A$scene$2 |    0000196B  A$scene$2 |    0000196C  A$scene$2
     0000196D  A$scene$2 |    0000196F  A$scene$2 |    00001970  A$scene$2
     00001971  A$scene$2 |    00001972  A$scene$2 |    00001973  A$scene$2
     00001974  A$scene$2 |    00001976  A$scene$2 |    00001979  A$scene$2
     0000197A  A$scene$2 |    0000197C  A$scene$2 |    0000197C  C$scene.c
     0000197E  A$scene$2 |    00001980  A$scene$2 |    00001981  A$scene$2
     00001982  A$scene$2 |    00001984  A$scene$2 |    00001985  A$scene$2
     00001986  A$scene$3 |    00001987  A$scene$3 |    00001988  A$scene$3
     00001989  A$scene$3 |    0000198A  A$scene$3 |    0000198B  A$scene$3
     0000198C  A$scene$3 |    0000198E  A$scene$3 |    0000198F  A$scene$3
     00001990  A$scene$3 |    00001991  A$scene$3 |    00001992  A$scene$3
     00001993  A$scene$3 |    00001994  A$scene$3 |    00001995  A$scene$3
     00001997  A$scene$3 |    00001998  A$scene$3 |    00001999  A$scene$3
     0000199A  A$scene$3 |    0000199B  A$scene$3 |    0000199C  A$scene$3
     0000199D  A$scene$3 |    0000199E  A$scene$3 |    0000199F  A$scene$3
     000019A1  A$scene$3 |    000019A2  A$scene$3 |    000019A3  A$scene$3
     000019A4  A$scene$3 |    000019A5  A$scene$3 |    000019A8  A$scene$3
     000019A9  A$scene$3 |    000019AB  A$scene$3 |    000019AB  C$scene.c
     000019AD  A$scene$3 |    000019AF  A$scene$3 |    000019B0  A$scene$3
     000019B1  A$scene$3 |    000019B3  A$scene$3 |    000019B4  A$scene$3
     000019B5  A$scene$3 |    000019B6  A$scene$3 |    000019B7  A$scene$3
     000019B8  A$scene$3 |    000019B9  A$scene$3 |    000019BA  A$scene$3
     000019BB  A$scene$3 |    000019BD  A$scene$3 |    000019BE  A$scene$3
     000019BF  A$scene$3 |    000019C0  A$scene$3 |    000019C1  A$scene$3
     000019C2  A$scene$3 |    000019C3  A$scene$3 |    000019C4  A$scene$3
     000019C6  A$scene$3 |    000019C7  A$scene$3 |    000019C8  A$scene$3
     000019C9  A$scene$3 |    000019CA  A$scene$3 |    000019CB  A$scene$3
     000019CC  A$scene$3 |    000019CD  A$scene$3 |    000019CE  A$scene$3
     000019D0  A$scene$3 |    000019D1  A$scene$3 |    000019D2  A$scene$3
     000019D3  A$scene$3 |    000019D4  A$scene$3 |    000019D7  A$scene$3
     000019D8  A$scene$3 |    000019D9  A$scene$3 |    000019DA  A$scene$3
     000019DB  A$scene$3 |    000019DC  A$scene$3 |    000019DC  C$scene.c
     000019DE  A$scene$3 |    000019E0  A$scene$3 |    000019E1  A$scene$3
ASxxxx Linker V03.00 + NoICE + sdld,  page 31.
Hexadecimal  [32-Bits]

Area                       Addr        Size        Decimal Bytes (Attributes)
--------------------       ----        ----        ------- ----- ------------
_CODE                  00000200    000037CF =       14287. bytes (REL,CON)

        Value  Global            Value  Global            Value  Global    
        -----  ------            -----  ------            -----  ------    
     000019E2  A$scene$3 |    000019E4  A$scene$3 |    000019E5  A$scene$3
     000019E6  A$scene$3 |    000019E7  A$scene$3 |    000019E8  A$scene$3
     000019E9  A$scene$3 |    000019EA  A$scene$3 |    000019EB  A$scene$3
     000019EC  A$scene$3 |    000019EE  A$scene$3 |    000019EF  A$scene$3
     000019F0  A$scene$3 |    000019F1  A$scene$3 |    000019F2  A$scene$3
     000019F3  A$scene$3 |    000019F4  A$scene$3 |    000019F5  A$scene$3
     000019F7  A$scene$4 |    000019F8  A$scene$4 |    000019F9  A$scene$4
     000019FA  A$scene$4 |    000019FB  A$scene$4 |    000019FC  A$scene$4
     000019FD  A$scene$4 |    000019FE  A$scene$4 |    000019FF  A$scene$4
     00001A01  A$scene$4 |    00001A02  A$scene$4 |    00001A03  A$scene$4
     00001A04  A$scene$4 |    00001A05  A$scene$4 |    00001A08  A$scene$4
     00001A09  A$scene$4 |    00001A0B  A$scene$4 |    00001A0B  C$scene.c
     00001A0E  A$scene$4 |    00001A10  A$scene$4 |    00001A10  C$scene.c
     00001A12  A$scene$4 |    00001A13  A$scene$4 |    00001A14  A$scene$4
     00001A15  A$scene$4 |    00001A16  A$scene$4 |    00001A16  C$scene.c
     00001A18  A$scene$4 |    00001A19  A$scene$4 |    00001A1A  A$scene$4
     00001A1B  A$scene$4 |    00001A1D  A$scene$4 |    00001A20  A$scene$4
     00001A22  A$scene$4 |    00001A24  A$scene$4 |    00001A25  A$scene$4
     00001A26  A$scene$4 |    00001A27  A$scene$4 |    00001A28  A$scene$4
     00001A29  A$scene$4 |    00001A2A  A$scene$4 |    00001A2B  A$scene$4
     00001A2C  A$scene$4 |    00001A2D  A$scene$4 |    00001A2E  A$scene$4
     00001A2F  A$scene$4 |    00001A30  A$scene$4 |    00001A31  A$scene$4
     00001A32  A$scene$4 |    00001A33  A$scene$4 |    00001A33  C$scene.c
     00001A35  A$scene$4 |    00001A36  A$scene$4 |    00001A37  A$scene$4
     00001A39  A$scene$4 |    00001A3A  A$scene$4 |    00001A3B  A$scene$4
     00001A3C  A$scene$4 |    00001A3D  A$scene$4 |    00001A3E  A$scene$4
     00001A3F  A$scene$4 |    00001A40  A$scene$4 |    00001A43  A$scene$4
     00001A44  A$scene$4 |    00001A47  A$scene$4 |    00001A48  A$scene$4
     00001A49  A$scene$4 |    00001A4C  A$scene$4 |    00001A4E  A$scene$4
     00001A4F  A$scene$4 |    00001A4F  C$scene.c |    00001A51  A$scene$4
     00001A52  A$scene$4 |    00001A53  A$scene$4 |    00001A54  A$scene$4
     00001A55  A$scene$4 |    00001A56  A$scene$4 |    00001A59  A$scene$4
     00001A5A  A$scene$5 |    00001A5B  A$scene$5 |    00001A5D  A$scene$5
     00001A5E  A$scene$5 |    00001A5F  A$scene$5 |    00001A60  A$scene$5
     00001A61  A$scene$5 |    00001A63  A$scene$5 |    00001A64  A$scene$5
     00001A65  A$scene$5 |    00001A66  A$scene$5 |    00001A67  A$scene$5
     00001A68  A$scene$5 |    00001A69  A$scene$5 |    00001A69  C$scene.c
     00001A6B  A$scene$5 |    00001A6C  A$scene$5 |    00001A6D  A$scene$5
     00001A6E  A$scene$5 |    00001A6F  A$scene$5 |    00001A70  A$scene$5
     00001A71  A$scene$5 |    00001A72  A$scene$5 |    00001A73  A$scene$5
     00001A75  A$scene$5 |    00001A76  A$scene$5 |    00001A77  A$scene$5
     00001A78  A$scene$5 |    00001A7A  A$scene$5 |    00001A7B  A$scene$5
     00001A7C  A$scene$5 |    00001A7D  A$scene$5 |    00001A7E  A$scene$5
     00001A7F  A$scene$5 |    00001A80  A$scene$5 |    00001A82  A$scene$5
     00001A83  A$scene$5 |    00001A84  A$scene$5 |    00001A85  A$scene$5
     00001A86  A$scene$5 |    00001A87  A$scene$5 |    00001A88  A$scene$5
     00001A88  C$scene.c |    00001A8A  A$scene$5 |    00001A8B  A$scene$5
     00001A8C  A$scene$5 |    00001A8E  A$scene$5 |    00001A8F  A$scene$5
     00001A90  A$scene$5 |    00001A93  A$scene$5 |    00001A94  A$scene$5
     00001A96  A$scene$5 |    00001A98  A$scene$5 |    00001A99  A$scene$5
     00001A9B  A$scene$5 |    00001A9C  A$scene$5 |    00001A9D  A$scene$5
ASxxxx Linker V03.00 + NoICE + sdld,  page 32.
Hexadecimal  [32-Bits]

Area                       Addr        Size        Decimal Bytes (Attributes)
--------------------       ----        ----        ------- ----- ------------
_CODE                  00000200    000037CF =       14287. bytes (REL,CON)

        Value  Global            Value  Global            Value  Global    
        -----  ------            -----  ------            -----  ------    
     00001A9E  A$scene$5 |    00001A9F  A$scene$5 |    00001AA0  A$scene$5
     00001AA3  A$scene$5 |    00001AA4  A$scene$5 |    00001AA5  A$scene$5
     00001AA6  A$scene$5 |    00001AA7  A$scene$5 |    00001AAA  A$scene$5
     00001AAB  A$scene$5 |    00001AAD  A$scene$5 |    00001AAE  A$scene$5
     00001AAF  A$scene$5 |    00001AB0  A$scene$5 |    00001AB1  A$scene$5
     00001AB2  A$scene$5 |    00001AB5  A$scene$5 |    00001AB7  A$scene$5
     00001AB8  A$scene$5 |    00001AB8  C$scene.c |    00001ABA  A$scene$5
     00001ABB  A$scene$5 |    00001ABC  A$scene$5 |    00001ABD  A$scene$5
     00001ABE  A$scene$5 |    00001AC1  A$scene$5 |    00001AC2  A$scene$5
     00001AC5  A$scene$5 |    00001AC6  A$scene$5 |    00001AC7  A$scene$6
     00001ACA  A$scene$6 |    00001ACC  A$scene$6 |    00001ACD  A$scene$6
     00001ACD  C$scene.c |    00001ACF  A$scene$6 |    00001AD0  A$scene$6
     00001AD1  A$scene$6 |    00001AD2  A$scene$6 |    00001AD3  A$scene$6
     00001AD4  A$scene$6 |    00001AD7  A$scene$6 |    00001AD8  A$scene$6
     00001AD9  A$scene$6 |    00001ADB  A$scene$6 |    00001ADC  A$scene$6
     00001ADD  A$scene$6 |    00001ADE  A$scene$6 |    00001ADF  A$scene$6
     00001AE1  A$scene$6 |    00001AE2  A$scene$6 |    00001AE3  A$scene$6
     00001AE4  A$scene$6 |    00001AE5  A$scene$6 |    00001AE6  A$scene$6
     00001AE7  A$scene$6 |    00001AE7  C$scene.c |    00001AE9  A$scene$6
     00001AEA  A$scene$6 |    00001AEB  A$scene$6 |    00001AEC  A$scene$6
     00001AED  A$scene$6 |    00001AEE  A$scene$6 |    00001AF0  A$scene$6
     00001AF1  A$scene$6 |    00001AF2  A$scene$6 |    00001AF3  A$scene$6
     00001AF4  A$scene$6 |    00001AF5  A$scene$6 |    00001AF6  A$scene$6
     00001AF6  C$scene.c |    00001AF8  A$scene$6 |    00001AF9  A$scene$6
     00001AFA  A$scene$6 |    00001AFC  A$scene$6 |    00001AFD  A$scene$6
     00001AFE  A$scene$6 |    00001B01  A$scene$6 |    00001B02  A$scene$6
     00001B03  A$scene$6 |    00001B04  A$scene$6 |    00001B05  A$scene$6
     00001B07  A$scene$6 |    00001B08  A$scene$6 |    00001B0A  A$scene$6
     00001B0B  A$scene$6 |    00001B0C  A$scene$6 |    00001B0D  A$scene$6
     00001B0E  A$scene$6 |    00001B0F  A$scene$6 |    00001B12  A$scene$6
     00001B13  A$scene$6 |    00001B14  A$scene$6 |    00001B15  A$scene$6
     00001B16  A$scene$6 |    00001B19  A$scene$6 |    00001B1A  A$scene$6
     00001B1C  A$scene$6 |    00001B1D  A$scene$6 |    00001B1E  A$scene$6
     00001B1F  A$scene$6 |    00001B20  A$scene$6 |    00001B21  A$scene$6
     00001B24  A$scene$6 |    00001B26  A$scene$6 |    00001B27  A$scene$6
     00001B27  C$scene.c |    00001B29  A$scene$6 |    00001B2A  A$scene$6
     00001B2B  A$scene$6 |    00001B2C  A$scene$7 |    00001B2F  A$scene$7
     00001B30  A$scene$7 |    00001B32  A$scene$7 |    00001B33  A$scene$7
     00001B34  A$scene$7 |    00001B35  A$scene$7 |    00001B36  A$scene$7
     00001B39  A$scene$7 |    00001B3A  A$scene$7 |    00001B3B  A$scene$7
     00001B3C  A$scene$7 |    00001B3F  A$scene$7 |    00001B40  A$scene$7
     00001B41  A$scene$7 |    00001B42  A$scene$7 |    00001B45  A$scene$7
     00001B47  A$scene$7 |    00001B48  A$scene$7 |    00001B48  C$scene.c
     00001B4A  A$scene$7 |    00001B4B  A$scene$7 |    00001B4C  A$scene$7
     00001B4D  A$scene$7 |    00001B50  A$scene$7 |    00001B51  A$scene$7
     00001B53  A$scene$7 |    00001B54  A$scene$7 |    00001B55  A$scene$7
     00001B56  A$scene$7 |    00001B57  A$scene$7 |    00001B5A  A$scene$7
     00001B5B  A$scene$7 |    00001B5C  A$scene$7 |    00001B5D  A$scene$7
     00001B5E  A$scene$7 |    00001B5F  A$scene$7 |    00001B62  A$scene$7
     00001B63  A$scene$7 |    00001B64  A$scene$7 |    00001B65  A$scene$7
     00001B68  A$scene$7 |    00001B6A  A$scene$7 |    00001B6B  A$scene$7
ASxxxx Linker V03.00 + NoICE + sdld,  page 33.
Hexadecimal  [32-Bits]

Area                       Addr        Size        Decimal Bytes (Attributes)
--------------------       ----        ----        ------- ----- ------------
_CODE                  00000200    000037CF =       14287. bytes (REL,CON)

        Value  Global            Value  Global            Value  Global    
        -----  ------            -----  ------            -----  ------    
     00001B6B  C$scene.c |    00001B6D  A$scene$7 |    00001B6E  A$scene$7
     00001B6F  A$scene$7 |    00001B70  A$scene$7 |    00001B73  A$scene$7
     00001B74  A$scene$7 |    00001B76  A$scene$7 |    00001B77  A$scene$7
     00001B78  A$scene$7 |    00001B79  A$scene$7 |    00001B7A  A$scene$7
     00001B7D  A$scene$7 |    00001B7E  A$scene$7 |    00001B7F  A$scene$7
     00001B80  A$scene$7 |    00001B81  A$scene$7 |    00001B82  A$scene$7
     00001B83  A$scene$7 |    00001B84  A$scene$7 |    00001B87  A$scene$7
     00001B88  A$scene$7 |    00001B89  A$scene$7 |    00001B8A  A$scene$7
     00001B8D  A$scene$7 |    00001B8F  A$scene$7 |    00001B90  A$scene$7
     00001B90  C$scene.c |    00001B92  A$scene$7 |    00001B93  A$scene$7
     00001B94  A$scene$7 |    00001B95  A$scene$7 |    00001B98  A$scene$7
     00001B99  A$scene$7 |    00001B9B  A$scene$8 |    00001B9C  A$scene$8
     00001B9D  A$scene$8 |    00001B9E  A$scene$8 |    00001B9F  A$scene$8
     00001BA2  A$scene$8 |    00001BA3  A$scene$8 |    00001BA6  A$scene$8
     00001BA7  A$scene$8 |    00001BA8  A$scene$8 |    00001BA9  A$scene$8
     00001BAC  A$scene$8 |    00001BAD  A$scene$8 |    00001BAE  A$scene$8
     00001BAF  A$scene$8 |    00001BB2  A$scene$8 |    00001BB4  A$scene$8
     00001BB5  A$scene$8 |    00001BB5  C$scene.c |    00001BB8  A$scene$8
     00001BB9  A$scene$8 |    00001BBA  A$scene$8 |    00001BBC  A$scene$8
     00001BBF  A$scene$8 |    00001BBF  C$scene.c |    00001BC1  A$scene$8
     00001BC2  A$scene$8 |    00001BC3  A$scene$8 |    00001BC4  A$scene$8
     00001BC5  A$scene$8 |    00001BC8  A$scene$8 |    00001BC9  A$scene$8
     00001BCA  A$scene$8 |    00001BCD  A$scene$8 |    00001BCE  A$scene$8
     00001BD1  A$scene$8 |    00001BD3  A$scene$8 |    00001BD4  A$scene$8
     00001BD4  C$scene.c |    00001BD6  A$scene$8 |    00001BD7  A$scene$8
     00001BD8  A$scene$8 |    00001BD9  A$scene$8 |    00001BDA  A$scene$8
     00001BDD  A$scene$8 |    00001BDE  A$scene$8 |    00001BDF  A$scene$8
     00001BE2  A$scene$8 |    00001BE3  A$scene$8 |    00001BE6  A$scene$8
     00001BE8  A$scene$8 |    00001BE9  A$scene$8 |    00001BE9  C$scene.c
     00001BEB  A$scene$8 |    00001BEC  A$scene$8 |    00001BED  A$scene$8
     00001BEE  A$scene$8 |    00001BEF  A$scene$8 |    00001BF2  A$scene$8
     00001BF3  A$scene$8 |    00001BF4  A$scene$8 |    00001BF7  A$scene$8
     00001BF8  A$scene$8 |    00001BFB  A$scene$8 |    00001BFD  A$scene$8
     00001BFE  A$scene$8 |    00001BFE  C$scene.c |    00001BFF  A$scene$8
     00001C00  A$scene$8 |    00001C01  A$scene$8 |    00001C04  A$scene$8
     00001C05  A$scene$8 |    00001C06  A$scene$8 |    00001C09  A$scene$8
     00001C0A  A$scene$8 |    00001C0D  A$scene$8 |    00001C0F  A$scene$8
     00001C10  A$scene$8 |    00001C10  C$scene.c |    00001C11  A$scene$8
     00001C12  A$scene$8 |    00001C13  A$scene$8 |    00001C16  A$scene$8
     00001C17  A$scene$8 |    00001C18  A$scene$8 |    00001C1B  A$scene$8
     00001C1C  A$scene$8 |    00001C1F  A$scene$8 |    00001C21  A$scene$9
     00001C22  A$scene$9 |    00001C22  C$scene.c |    00001C23  A$scene$9
     00001C24  A$scene$9 |    00001C25  A$scene$9 |    00001C28  A$scene$9
     00001C29  A$scene$9 |    00001C2A  A$scene$9 |    00001C2D  A$scene$9
     00001C2E  A$scene$9 |    00001C31  A$scene$9 |    00001C33  A$scene$9
     00001C34  A$scene$9 |    00001C34  C$scene.c |    00001C35  A$scene$9
     00001C36  A$scene$9 |    00001C37  A$scene$9 |    00001C3A  A$scene$9
     00001C3B  A$scene$9 |    00001C3C  A$scene$9 |    00001C3F  A$scene$9
     00001C40  A$scene$9 |    00001C43  A$scene$9 |    00001C45  A$scene$9
     00001C46  A$scene$9 |    00001C46  C$scene.c |    00001C47  A$scene$9
     00001C48  A$scene$9 |    00001C49  A$scene$9 |    00001C4C  A$scene$9
ASxxxx Linker V03.00 + NoICE + sdld,  page 34.
Hexadecimal  [32-Bits]

Area                       Addr        Size        Decimal Bytes (Attributes)
--------------------       ----        ----        ------- ----- ------------
_CODE                  00000200    000037CF =       14287. bytes (REL,CON)

        Value  Global            Value  Global            Value  Global    
        -----  ------            -----  ------            -----  ------    
     00001C4D  A$scene$9 |    00001C4E  A$scene$9 |    00001C51  A$scene$9
     00001C52  A$scene$9 |    00001C55  A$scene$9 |    00001C57  A$scene$9
     00001C58  A$scene$9 |    00001C58  C$scene.c |    00001C59  A$scene$9
     00001C5A  A$scene$9 |    00001C5B  A$scene$9 |    00001C5E  A$scene$9
     00001C5F  A$scene$9 |    00001C60  A$scene$9 |    00001C63  A$scene$9
     00001C64  A$scene$9 |    00001C67  A$scene$9 |    00001C69  A$scene$9
     00001C6A  A$scene$9 |    00001C6A  C$scene.c |    00001C6C  A$scene$9
     00001C6D  A$scene$9 |    00001C6E  A$scene$9 |    00001C6F  A$scene$9
     00001C70  A$scene$9 |    00001C73  A$scene$9 |    00001C74  A$scene$9
     00001C75  A$scene$9 |    00001C78  A$scene$9 |    00001C79  A$scene$9
     00001C7C  A$scene$9 |    00001C7E  A$scene$9 |    00001C7F  A$scene$9
     00001C7F  C$scene.c |    00001C80  A$scene$9 |    00001C81  A$scene$9
     00001C82  A$scene$9 |    00001C85  A$scene$9 |    00001C86  A$scene$9
     00001C87  A$scene$9 |    00001C8A  A$scene$9 |    00001C8B  A$scene$9
     00001C8E  A$scene$9 |    00001C90  A$scene$9 |    00001C91  A$scene$9
     00001C91  C$scene.c |    00001C92  A$scene$9 |    00001C93  A$scene$9
     00001C94  A$scene$9 |    00001C97  A$scene$9 |    00001C98  A$scene$9
     00001C99  A$scene$9 |    00001C9C  A$scene$9 |    00001C9D  A$scene$9
     00001CA0  A$scene$9 |    00001CA2  A$scene$1 |    00001CA3  A$scene$1
     00001CA3  C$scene.c |    00001CA4  A$scene$1 |    00001CA5  A$scene$1
     00001CA6  A$scene$1 |    00001CA9  A$scene$1 |    00001CAA  A$scene$1
     00001CAB  A$scene$1 |    00001CAE  A$scene$1 |    00001CAF  A$scene$1
     00001CB2  A$scene$1 |    00001CB4  A$scene$1 |    00001CB5  A$scene$1
     00001CB5  C$scene.c |    00001CB6  A$scene$1 |    00001CB7  A$scene$1
     00001CB8  A$scene$1 |    00001CBB  A$scene$1 |    00001CBC  A$scene$1
     00001CBD  A$scene$1 |    00001CC0  A$scene$1 |    00001CC1  A$scene$1
     00001CC4  A$scene$1 |    00001CC6  A$scene$1 |    00001CC7  A$scene$1
     00001CC7  C$scene.c |    00001CC8  A$scene$1 |    00001CC9  A$scene$1
     00001CCA  A$scene$1 |    00001CCD  A$scene$1 |    00001CCE  A$scene$1
     00001CCF  A$scene$1 |    00001CD2  A$scene$1 |    00001CD3  A$scene$1
     00001CD6  A$scene$1 |    00001CD8  A$scene$1 |    00001CD9  A$scene$1
     00001CD9  C$scene.c |    00001CDA  A$scene$1 |    00001CDB  A$scene$1
     00001CDC  A$scene$1 |    00001CDF  A$scene$1 |    00001CE0  A$scene$1
     00001CE1  A$scene$1 |    00001CE4  A$scene$1 |    00001CE5  A$scene$1
     00001CE8  A$scene$1 |    00001CEA  A$scene$1 |    00001CEB  A$scene$1
     00001CEB  C$scene.c |    00001CEC  A$scene$1 |    00001CED  A$scene$1
     00001CEE  A$scene$1 |    00001CF1  A$scene$1 |    00001CF2  A$scene$1
     00001CF3  A$scene$1 |    00001CF6  A$scene$1 |    00001CF7  A$scene$1
     00001CFA  A$scene$1 |    00001CFC  A$scene$1 |    00001CFD  A$scene$1
     00001CFD  C$scene.c |    00001CFE  A$scene$1 |    00001CFF  A$scene$1
     00001D00  A$scene$1 |    00001D03  A$scene$1 |    00001D04  A$scene$1
     00001D05  A$scene$1 |    00001D08  A$scene$1 |    00001D09  A$scene$1
     00001D0C  A$scene$1 |    00001D0E  A$scene$1 |    00001D0F  A$scene$1
     00001D0F  C$scene.c |    00001D10  A$scene$1 |    00001D11  A$scene$1
     00001D12  A$scene$1 |    00001D15  A$scene$1 |    00001D16  A$scene$1
     00001D17  A$scene$1 |    00001D1A  A$scene$1 |    00001D1B  A$scene$1
     00001D1E  A$scene$1 |    00001D20  A$scene$1 |    00001D21  A$scene$1
     00001D21  C$scene.c |    00001D22  A$scene$1 |    00001D23  A$scene$1
     00001D24  A$scene$1 |    00001D27  A$scene$1 |    00001D28  A$scene$1
     00001D29  A$scene$1 |    00001D2C  A$scene$1 |    00001D2D  A$scene$1
     00001D30  A$scene$1 |    00001D32  A$scene$1 |    00001D33  A$scene$1
ASxxxx Linker V03.00 + NoICE + sdld,  page 35.
Hexadecimal  [32-Bits]

Area                       Addr        Size        Decimal Bytes (Attributes)
--------------------       ----        ----        ------- ----- ------------
_CODE                  00000200    000037CF =       14287. bytes (REL,CON)

        Value  Global            Value  Global            Value  Global    
        -----  ------            -----  ------            -----  ------    
     00001D33  C$scene.c |    00001D34  A$scene$1 |    00001D35  A$scene$1
     00001D36  A$scene$1 |    00001D39  A$scene$1 |    00001D3A  A$scene$1
     00001D3B  A$scene$1 |    00001D3E  A$scene$1 |    00001D3F  A$scene$1
     00001D42  A$scene$1 |    00001D44  A$scene$1 |    00001D45  A$scene$1
     00001D45  C$scene.c |    00001D46  A$scene$1 |    00001D47  A$scene$1
     00001D48  A$scene$1 |    00001D4B  A$scene$1 |    00001D4C  A$scene$1
     00001D4D  A$scene$1 |    00001D50  A$scene$1 |    00001D51  A$scene$1
     00001D54  A$scene$1 |    00001D56  A$scene$1 |    00001D57  A$scene$1
     00001D57  C$scene.c |    00001D58  A$scene$1 |    00001D59  A$scene$1
     00001D5A  A$scene$1 |    00001D5D  A$scene$1 |    00001D5E  A$scene$1
     00001D5F  A$scene$1 |    00001D62  A$scene$1 |    00001D63  A$scene$1
     00001D66  A$scene$1 |    00001D68  A$scene$1 |    00001D69  A$scene$1
     00001D69  C$scene.c |    00001D6C  A$scene$1 |    00001D6D  A$scene$1
     00001D6E  A$scene$1 |    00001D71  A$scene$1 |    00001D72  A$scene$1
     00001D75  A$scene$1 |    00001D77  A$scene$1 |    00001D77  C$scene.c
     00001D7A  A$scene$1 |    00001D7C  A$scene$1 |    00001D7C  C$scene.c
     00001D7F  A$scene$1 |    00001D81  A$scene$1 |    00001D81  C$scene.c
     00001D84  A$scene$1 |    00001D86  A$scene$1 |    00001D86  C$scene.c
     00001D89  A$scene$1 |    00001D8B  A$scene$1 |    00001D8B  C$scene.c
     00001D8E  A$scene$1 |    00001D90  A$scene$1 |    00001D90  C$scene.c
     00001D93  A$scene$1 |    00001D95  A$scene$1 |    00001D95  C$scene.c
     00001D98  A$scene$1 |    00001D9A  A$scene$1 |    00001D9A  C$scene.c
     00001D9D  A$scene$1 |    00001D9F  A$scene$1 |    00001D9F  C$scene.c
     00001DA2  A$scene$1 |    00001DA3  A$scene$1 |    00001DA6  A$scene$1
     00001DA7  A$scene$1 |    00001DAA  A$scene$1 |    00001DAC  A$scene$1
     00001DAC  C$scene.c |    00001DAF  A$scene$1 |    00001DB1  A$scene$1
     00001DB1  C$scene.c |    00001DB4  A$scene$1 |    00001DB6  A$scene$1
     00001DB6  C$scene.c |    00001DB9  A$scene$1 |    00001DBB  A$scene$1
     00001DBB  C$scene.c |    00001DBE  A$scene$1 |    00001DC0  A$scene$1
     00001DC1  A$scene$1 |    00001DC4  A$scene$1 |    00001DC6  A$scene$1
     00001DC9  A$scene$1 |    00001DCC  A$scene$1 |    00001DCD  A$scene$1
     00001DCE  A$scene$1 |    00001DD1  A$scene$1 |    00001DD2  A$scene$1
     00001DD3  A$scene$1 |    00001DD5  A$scene$1 |    00001DD8  A$scene$1
     00001DDA  A$scene$1 |    00001DDD  A$scene$1 |    00001DE0  A$scene$1
     00001DE1  A$scene$1 |    00001DE4  A$scene$1 |    00001DE5  A$scene$1
     00001DE7  A$scene$1 |    00001DEA  A$scene$1 |    00001DEC  A$scene$1
     00001DEF  A$scene$1 |    00001DF2  A$scene$1 |    00001DF3  A$scene$1
     00001DF4  A$scene$1 |    00001DF7  A$scene$1 |    00001DF8  A$scene$1
     00001DF9  A$scene$1 |    00001DFB  A$scene$1 |    00001DFE  A$scene$1
     00001E00  A$scene$1 |    00001E01  A$scene$1 |    00001E04  A$scene$1
     00001E05  A$scene$1 |    00001E08  A$scene$1 |    00001E09  A$scene$1
     00001E0B  A$scene$1 |    00001E0B  C$scene.c |    00001E0E  A$scene$1
     00001E10  A$scene$1 |    00001E10  C$scene.c |    00001E13  A$scene$1
     00001E15  A$scene$1 |    00001E15  C$scene.c |    00001E18  A$scene$1
     00001E1A  A$scene$1 |    00001E1C  A$scene$1 |    00001E1C  C$scene.c
     00001E1C  XG$scene_ |    00001E1D  G$bot_inf |    00001E1D  _bot_info
     00001E53  G$top_inf |    00001E53  _top_info |    00001E80  G$travers
     00001E80  _traversa |    00001E84  G$travers |    00001E84  _traversa
     00001E88  G$bulky_b |    00001E88  _bulky_bo |    00001E8C  G$bulky_t
     00001E8C  _bulky_to |    00001E90  G$all_top |    00001E90  _all_tops
     00001E98  G$all_bot |    00001E98  _all_bots |    00001EA0  G$possibl
ASxxxx Linker V03.00 + NoICE + sdld,  page 36.
Hexadecimal  [32-Bits]

Area                       Addr        Size        Decimal Bytes (Attributes)
--------------------       ----        ----        ------- ----- ------------
_CODE                  00000200    000037CF =       14287. bytes (REL,CON)

        Value  Global            Value  Global            Value  Global    
        -----  ------            -----  ------            -----  ------    
     00001EA0  _possible |    00001EA2  A$scene$1 |    00001EA2  C$scene.c
     00001EA2  C$scene.c |    00001EA2  G$compute |    00001EA2  _compute_
     00001EA5  A$scene$1 |    00001EA7  A$scene$1 |    00001EA8  A$scene$1
     00001EAA  A$scene$1 |    00001EAB  A$scene$1 |    00001EAD  A$scene$1
     00001EAE  A$scene$1 |    00001EB0  A$scene$1 |    00001EB0  C$scene.c
     00001EB3  A$scene$1 |    00001EB5  A$scene$1 |    00001EB7  A$scene$1
     00001EBA  A$scene$1 |    00001EBA  C$scene.c |    00001EBD  A$scene$1
     00001EBD  C$scene.c |    00001EBD  C$scene.c |    00001EBD  XG$comput
     00001EC0  A$scene$1 |    00001EC0  C$scene.c |    00001EC0  C$scene.c
     00001EC0  G$move_ca |    00001EC0  _move_cam |    00001EC3  A$scene$1
     00001EC5  A$scene$1 |    00001EC6  A$scene$1 |    00001EC6  C$scene.c
     00001EC9  A$scene$1 |    00001ECA  A$scene$1 |    00001ECA  C$scene.c
     00001ECD  A$scene$1 |    00001ECE  A$scene$1 |    00001ECE  C$scene.c
     00001ED1  A$scene$1 |    00001ED2  A$scene$1 |    00001ED4  A$scene$1
     00001ED6  A$scene$1 |    00001ED8  A$scene$1 |    00001EDB  A$scene$1
     00001EDC  A$scene$1 |    00001EDD  A$scene$1 |    00001EDF  A$scene$1
     00001EDF  C$scene.c |    00001EE1  A$scene$1 |    00001EE1  C$scene.c
     00001EE4  A$scene$1 |    00001EE5  A$scene$1 |    00001EE5  C$scene.c
     00001EE8  A$scene$1 |    00001EE8  C$scene.c |    00001EEB  A$scene$1
     00001EEB  C$scene.c |    00001EEE  A$scene$1 |    00001EEF  A$scene$1
     00001EF0  A$scene$1 |    00001EF2  A$scene$1 |    00001EF5  A$scene$1
     00001EF6  A$scene$1 |    00001EF7  A$scene$1 |    00001EF7  C$scene.c
     00001EF8  A$scene$1 |    00001EF8  C$scene.c |    00001EF8  XG$move_c
     00001EF9  A$scene$1 |    00001EF9  C$scene.c |    00001EF9  G$set_cam
     00001EF9  _set_came |    00001EFC  A$scene$1 |    00001EFD  A$scene$1
     00001EFF  A$scene$1 |    00001F01  A$scene$1 |    00001F02  A$scene$1
     00001F04  A$scene$1 |    00001F04  C$scene.c |    00001F05  A$scene$1
     00001F07  A$scene$1 |    00001F08  A$scene$1 |    00001F0A  A$scene$1
     00001F0C  A$scene$1 |    00001F0E  A$scene$1 |    00001F10  A$scene$1
     00001F12  A$scene$1 |    00001F14  A$scene$1 |    00001F15  A$scene$1
     00001F17  A$scene$1 |    00001F18  A$scene$1 |    00001F1A  A$scene$1
     00001F1C  A$scene$1 |    00001F1E  A$scene$1 |    00001F20  A$scene$1
     00001F22  A$scene$1 |    00001F24  A$scene$1 |    00001F26  A$scene$1
     00001F29  A$scene$1 |    00001F2A  A$scene$1 |    00001F2A  C$scene.c
     00001F2D  A$scene$1 |    00001F2F  A$scene$1 |    00001F30  A$scene$1
     00001F32  A$scene$1 |    00001F33  A$scene$1 |    00001F35  A$scene$1
     00001F37  A$scene$1 |    00001F39  A$scene$1 |    00001F3B  A$scene$1
     00001F3D  A$scene$1 |    00001F3F  A$scene$1 |    00001F41  A$scene$1
     00001F44  A$scene$1 |    00001F45  A$scene$1 |    00001F45  C$scene.c
     00001F48  A$scene$1 |    00001F4B  A$scene$1 |    00001F4C  A$scene$1
     00001F4D  A$scene$1 |    00001F4D  C$scene.c |    00001F50  A$scene$1
     00001F50  C$scene.c |    00001F53  A$scene$1 |    00001F54  A$scene$1
     00001F57  A$scene$1 |    00001F57  C$scene.c |    00001F57  XG$set_ca
     00001F58  A$scene$1 |    00001F58  C$scene.c |    00001F58  G$move_sp
     00001F58  _move_spr |    00001F5B  A$scene$1 |    00001F5D  A$scene$1
     00001F5D  C$scene.c |    00001F60  A$scene$1 |    00001F61  A$scene$1
     00001F62  A$scene$1 |    00001F65  A$scene$1 |    00001F66  A$scene$1
     00001F67  A$scene$1 |    00001F69  A$scene$1 |    00001F6B  A$scene$1
     00001F6C  A$scene$1 |    00001F6E  A$scene$1 |    00001F6F  A$scene$1
     00001F71  A$scene$1 |    00001F74  A$scene$1 |    00001F77  A$scene$1
     00001F79  A$scene$1 |    00001F7A  A$scene$1 |    00001F7C  A$scene$1
ASxxxx Linker V03.00 + NoICE + sdld,  page 37.
Hexadecimal  [32-Bits]

Area                       Addr        Size        Decimal Bytes (Attributes)
--------------------       ----        ----        ------- ----- ------------
_CODE                  00000200    000037CF =       14287. bytes (REL,CON)

        Value  Global            Value  Global            Value  Global    
        -----  ------            -----  ------            -----  ------    
     00001F7D  A$scene$1 |    00001F7E  A$scene$1 |    00001F7F  A$scene$1
     00001F82  A$scene$1 |    00001F83  A$scene$1 |    00001F84  A$scene$1
     00001F85  A$scene$1 |    00001F86  A$scene$1 |    00001F86  C$scene.c
     00001F88  A$scene$1 |    00001F89  A$scene$1 |    00001F8B  A$scene$1
     00001F8B  C$scene.c |    00001F8D  A$scene$1 |    00001F90  A$scene$1
     00001F91  A$scene$1 |    00001F92  A$scene$1 |    00001F94  A$scene$1
     00001F96  A$scene$1 |    00001F97  A$scene$1 |    00001F98  A$scene$1
     00001F99  A$scene$1 |    00001F9A  A$scene$1 |    00001F9B  A$scene$1
     00001F9C  A$scene$1 |    00001F9F  A$scene$1 |    00001FA0  A$scene$1
     00001FA1  A$scene$1 |    00001FA2  A$scene$1 |    00001FA4  A$scene$1
     00001FA6  A$scene$1 |    00001FA7  A$scene$1 |    00001FA9  A$scene$1
     00001FAA  A$scene$1 |    00001FAC  A$scene$1 |    00001FAD  A$scene$1
     00001FAE  A$scene$1 |    00001FAF  A$scene$1 |    00001FAF  C$scene.c
     00001FB2  A$scene$1 |    00001FB3  A$scene$1 |    00001FB5  A$scene$1
     00001FB7  A$scene$1 |    00001FB7  C$scene.c |    00001FBA  A$scene$1
     00001FBB  A$scene$1 |    00001FBD  A$scene$1 |    00001FC0  A$scene$1
     00001FC1  A$scene$1 |    00001FC2  A$scene$1 |    00001FC3  A$scene$1
     00001FC6  A$scene$1 |    00001FC7  A$scene$1 |    00001FC9  A$scene$1
     00001FC9  C$scene.c |    00001FCB  A$scene$1 |    00001FCB  C$scene.c
     00001FCE  A$scene$1 |    00001FD1  A$scene$1 |    00001FD2  A$scene$1
     00001FD4  A$scene$1 |    00001FD7  A$scene$1 |    00001FD8  A$scene$1
     00001FD9  A$scene$1 |    00001FDA  A$scene$1 |    00001FDB  A$scene$1
     00001FDC  A$scene$1 |    00001FDD  A$scene$1 |    00001FDF  A$scene$1
     00001FE2  A$scene$1 |    00001FE3  A$scene$1 |    00001FE4  A$scene$1
     00001FE6  A$scene$1 |    00001FE8  A$scene$1 |    00001FE9  A$scene$1
     00001FEA  A$scene$1 |    00001FED  A$scene$1 |    00001FEE  A$scene$1
     00001FEF  A$scene$1 |    00001FEF  C$scene.c |    00001FF1  A$scene$1
     00001FF4  A$scene$1 |    00001FF5  A$scene$1 |    00001FF6  A$scene$1
     00001FF8  A$scene$1 |    00001FFA  A$scene$1 |    00001FFB  A$scene$1
     00001FFC  A$scene$1 |    00001FFF  A$scene$1 |    00002000  A$scene$1
     00002002  A$scene$1 |    00002004  A$scene$1 |    00002006  A$scene$1
     00002008  A$scene$1 |    00002008  C$scene.c |    0000200B  A$scene$1
     0000200C  A$scene$1 |    0000200D  A$scene$1 |    0000200E  A$scene$1
     0000200F  A$scene$1 |    00002010  A$scene$1 |    00002012  A$scene$1
     00002013  A$scene$1 |    00002015  A$scene$1 |    00002016  A$scene$1
     00002017  A$scene$1 |    00002019  A$scene$1 |    0000201C  A$scene$1
     0000201D  A$scene$1 |    0000201E  A$scene$1 |    0000201E  C$scene.c
     00002020  A$scene$1 |    00002021  A$scene$1 |    00002023  A$scene$1
     00002024  A$scene$1 |    00002025  A$scene$1 |    00002027  A$scene$1
     00002028  A$scene$1 |    0000202B  A$scene$1 |    0000202C  A$scene$1
     0000202D  A$scene$1 |    0000202E  A$scene$1 |    00002030  A$scene$1
     00002031  A$scene$1 |    00002033  A$scene$1 |    00002034  A$scene$1
     00002035  A$scene$1 |    00002036  A$scene$1 |    00002039  A$scene$1
     0000203A  A$scene$1 |    0000203C  A$scene$1 |    0000203C  C$scene.c
     0000203C  C$scene.c |    0000203F  A$scene$1 |    00002040  A$scene$1
     00002041  A$scene$1 |    00002043  A$scene$1 |    00002046  A$scene$1
     00002046  C$scene.c |    00002046  XG$move_s |    00002047  A$scene$1
     00002047  C$scene.c |    00002047  C$scene.c |    00002047  G$animate
     00002047  _animate_ |    0000204A  A$scene$1 |    0000204B  A$scene$1
     0000204B  C$scene.c |    0000204E  A$scene$1 |    0000204F  A$scene$1
     00002050  A$scene$1 |    00002053  A$scene$1 |    00002055  A$scene$1
ASxxxx Linker V03.00 + NoICE + sdld,  page 38.
Hexadecimal  [32-Bits]

Area                       Addr        Size        Decimal Bytes (Attributes)
--------------------       ----        ----        ------- ----- ------------
_CODE                  00000200    000037CF =       14287. bytes (REL,CON)

        Value  Global            Value  Global            Value  Global    
        -----  ------            -----  ------            -----  ------    
     00002055  C$scene.c |    00002056  A$scene$1 |    00002056  C$scene.c
     00002059  A$scene$1 |    0000205A  A$scene$1 |    0000205C  A$scene$1
     0000205D  A$scene$1 |    0000205D  C$scene.c |    0000205F  A$scene$1
     0000205F  C$scene.c |    00002062  A$scene$1 |    00002063  A$scene$1
     00002064  A$scene$1 |    00002065  A$scene$1 |    00002067  A$scene$1
     00002068  A$scene$1 |    00002068  C$scene.c |    00002069  A$scene$1
     0000206A  A$scene$1 |    0000206B  A$scene$1 |    0000206C  A$scene$1
     0000206D  A$scene$1 |    0000206F  A$scene$1 |    00002070  A$scene$1
     00002071  A$scene$1 |    00002071  C$scene.c |    00002072  A$scene$1
     00002074  A$scene$1 |    00002076  A$scene$1 |    00002077  A$scene$1
     00002078  A$scene$1 |    00002078  C$scene.c |    00002079  A$scene$1
     0000207B  A$scene$1 |    0000207D  A$scene$1 |    0000207E  A$scene$1
     0000207F  A$scene$1 |    00002080  A$scene$1 |    00002081  A$scene$1
     00002083  A$scene$1 |    00002085  A$scene$1 |    00002086  A$scene$1
     00002089  A$scene$1 |    0000208A  A$scene$1 |    0000208D  A$scene$1
     0000208E  A$scene$1 |    0000208F  A$scene$1 |    00002090  A$scene$1
     00002092  A$scene$1 |    00002094  A$scene$1 |    00002095  A$scene$1
     00002098  A$scene$1 |    00002099  A$scene$1 |    0000209C  A$scene$1
     0000209D  A$scene$1 |    0000209E  A$scene$1 |    0000209F  A$scene$1
     000020A1  A$scene$1 |    000020A3  A$scene$1 |    000020A4  A$scene$1
     000020A7  A$scene$1 |    000020A8  A$scene$1 |    000020AB  A$scene$1
     000020AC  A$scene$1 |    000020AE  A$scene$1 |    000020B0  A$scene$1
     000020B1  A$scene$1 |    000020B4  A$scene$1 |    000020B5  A$scene$1
     000020B5  C$scene.c |    000020B5  C$scene.c |    000020B5  XG$animat
     000020B6  A$scene$2 |    000020B6  C$scene.c |    000020B6  G$gen_new
     000020B6  _gen_new_ |    000020B8  A$scene$2 |    000020B8  C$scene.c
     000020BB  A$scene$2 |    000020BD  A$scene$2 |    000020BF  A$scene$2
     000020BF  C$scene.c |    000020C2  A$scene$2 |    000020C3  A$scene$2
     000020C5  A$scene$2 |    000020C6  A$scene$2 |    000020C9  A$scene$2
     000020CA  A$scene$2 |    000020CA  C$scene.c |    000020CD  A$scene$2
     000020CF  A$scene$2 |    000020CF  C$scene.c |    000020D2  A$scene$2
     000020D4  A$scene$2 |    000020D5  A$scene$2 |    000020D7  A$scene$2
     000020D8  A$scene$2 |    000020DA  A$scene$2 |    000020DB  A$scene$2
     000020DD  A$scene$2 |    000020DD  C$scene.c |    000020E0  A$scene$2
     000020E2  A$scene$2 |    000020E2  C$scene.c |    000020E5  A$scene$2
     000020E6  A$scene$2 |    000020E8  A$scene$2 |    000020E9  A$scene$2
     000020E9  C$scene.c |    000020EC  A$scene$2 |    000020EE  A$scene$2
     000020EE  C$scene.c |    000020F1  A$scene$2 |    000020F3  A$scene$2
     000020F5  A$scene$2 |    000020F5  C$scene.c |    000020F8  A$scene$2
     000020FB  A$scene$2 |    000020FC  A$scene$2 |    000020FD  A$scene$2
     000020FE  A$scene$2 |    000020FF  A$scene$2 |    00002100  A$scene$2
     00002102  A$scene$2 |    00002103  A$scene$2 |    00002104  A$scene$2
     00002106  A$scene$2 |    00002107  A$scene$2 |    00002108  A$scene$2
     00002109  A$scene$2 |    0000210B  A$scene$2 |    0000210C  A$scene$2
     0000210F  A$scene$2 |    00002111  A$scene$2 |    00002111  C$scene.c
     00002114  A$scene$2 |    00002115  A$scene$2 |    00002117  A$scene$2
     0000211A  A$scene$2 |    0000211C  A$scene$2 |    0000211C  C$scene.c
     0000211F  A$scene$2 |    00002120  A$scene$2 |    00002121  A$scene$2
     00002122  A$scene$2 |    00002122  C$scene.c |    00002123  A$scene$2
     00002125  A$scene$2 |    00002126  A$scene$2 |    00002129  A$scene$2
     0000212A  A$scene$2 |    0000212D  A$scene$2 |    0000212E  A$scene$2
ASxxxx Linker V03.00 + NoICE + sdld,  page 39.
Hexadecimal  [32-Bits]

Area                       Addr        Size        Decimal Bytes (Attributes)
--------------------       ----        ----        ------- ----- ------------
_CODE                  00000200    000037CF =       14287. bytes (REL,CON)

        Value  Global            Value  Global            Value  Global    
        -----  ------            -----  ------            -----  ------    
     0000212F  A$scene$2 |    00002131  A$scene$2 |    00002132  A$scene$2
     00002135  A$scene$2 |    00002137  A$scene$2 |    0000213A  A$scene$2
     0000213C  A$scene$2 |    0000213E  A$scene$2 |    0000213F  A$scene$2
     00002140  A$scene$2 |    00002142  A$scene$2 |    00002143  A$scene$2
     00002144  A$scene$2 |    00002144  C$scene.c |    00002146  A$scene$2
     00002149  A$scene$2 |    0000214A  A$scene$2 |    0000214B  A$scene$2
     0000214D  A$scene$2 |    0000214F  A$scene$2 |    00002150  A$scene$2
     00002151  A$scene$2 |    00002153  A$scene$2 |    00002155  A$scene$2
     00002156  A$scene$2 |    00002158  A$scene$2 |    00002159  A$scene$2
     0000215A  A$scene$2 |    0000215B  A$scene$2 |    0000215C  A$scene$2
     0000215D  A$scene$2 |    0000215E  A$scene$2 |    00002161  A$scene$2
     00002162  A$scene$2 |    00002165  A$scene$2 |    00002166  A$scene$2
     00002167  A$scene$2 |    00002168  A$scene$2 |    0000216A  A$scene$2
     0000216B  A$scene$2 |    0000216E  A$scene$2 |    0000216F  A$scene$2
     00002170  A$scene$2 |    00002171  A$scene$2 |    00002174  A$scene$2
     00002176  A$scene$2 |    00002177  A$scene$2 |    00002177  C$scene.c
     00002178  A$scene$2 |    00002179  A$scene$2 |    0000217C  A$scene$2
     0000217D  A$scene$2 |    0000217E  A$scene$2 |    00002180  A$scene$2
     00002181  A$scene$2 |    00002182  A$scene$2 |    00002183  A$scene$2
     00002184  A$scene$2 |    00002185  A$scene$2 |    00002185  C$scene.c
     00002186  A$scene$2 |    00002187  A$scene$2 |    00002188  A$scene$2
     00002189  A$scene$2 |    0000218A  A$scene$2 |    0000218C  A$scene$2
     0000218D  A$scene$2 |    0000218E  A$scene$2 |    0000218F  A$scene$2
     00002191  A$scene$2 |    00002192  A$scene$2 |    00002193  A$scene$2
     00002194  A$scene$2 |    00002195  A$scene$2 |    00002196  A$scene$2
     00002197  A$scene$2 |    00002199  A$scene$2 |    0000219A  A$scene$2
     0000219B  A$scene$2 |    0000219C  A$scene$2 |    0000219D  A$scene$2
     0000219F  A$scene$2 |    000021A0  A$scene$2 |    000021A1  A$scene$2
     000021A2  A$scene$2 |    000021A3  A$scene$2 |    000021A4  A$scene$2
     000021A5  A$scene$2 |    000021A6  A$scene$2 |    000021A7  A$scene$2
     000021A8  A$scene$2 |    000021A9  A$scene$2 |    000021AA  A$scene$2
     000021AA  C$scene.c |    000021AB  A$scene$2 |    000021AC  A$scene$2
     000021AE  A$scene$2 |    000021AF  A$scene$2 |    000021B0  A$scene$2
     000021B3  A$scene$2 |    000021B4  A$scene$2 |    000021B6  A$scene$2
     000021B7  A$scene$2 |    000021B8  A$scene$2 |    000021B9  A$scene$2
     000021BA  A$scene$2 |    000021BB  A$scene$2 |    000021BC  A$scene$2
     000021BD  A$scene$2 |    000021BE  A$scene$2 |    000021BF  A$scene$2
     000021C0  A$scene$2 |    000021C2  A$scene$2 |    000021C3  A$scene$2
     000021C4  A$scene$2 |    000021C5  A$scene$2 |    000021C7  A$scene$2
     000021C8  A$scene$2 |    000021CB  A$scene$2 |    000021CC  A$scene$2
     000021CD  A$scene$2 |    000021CE  A$scene$2 |    000021CF  A$scene$2
     000021D0  A$scene$2 |    000021D1  A$scene$2 |    000021D3  A$scene$2
     000021D4  A$scene$2 |    000021D5  A$scene$2 |    000021D6  A$scene$2
     000021D8  A$scene$2 |    000021D9  A$scene$2 |    000021DC  A$scene$2
     000021DD  A$scene$2 |    000021DF  A$scene$2 |    000021E1  A$scene$2
     000021E2  A$scene$2 |    000021E4  A$scene$2 |    000021E5  A$scene$2
     000021E6  A$scene$2 |    000021E7  A$scene$2 |    000021E8  A$scene$2
     000021E9  A$scene$2 |    000021EA  A$scene$2 |    000021EB  A$scene$2
     000021ED  A$scene$2 |    000021EE  A$scene$2 |    000021EF  A$scene$2
     000021F0  A$scene$2 |    000021F2  A$scene$2 |    000021F3  A$scene$2
     000021F5  A$scene$2 |    000021F6  A$scene$2 |    000021F7  A$scene$2
ASxxxx Linker V03.00 + NoICE + sdld,  page 40.
Hexadecimal  [32-Bits]

Area                       Addr        Size        Decimal Bytes (Attributes)
--------------------       ----        ----        ------- ----- ------------
_CODE                  00000200    000037CF =       14287. bytes (REL,CON)

        Value  Global            Value  Global            Value  Global    
        -----  ------            -----  ------            -----  ------    
     000021F8  A$scene$2 |    000021F9  A$scene$2 |    000021FA  A$scene$2
     000021FB  A$scene$2 |    000021FC  A$scene$2 |    000021FD  A$scene$2
     000021FE  A$scene$2 |    000021FF  A$scene$2 |    00002200  A$scene$2
     00002203  A$scene$2 |    00002204  A$scene$2 |    00002206  A$scene$2
     00002207  A$scene$2 |    00002208  A$scene$2 |    00002209  A$scene$2
     0000220A  A$scene$2 |    0000220B  A$scene$2 |    0000220E  A$scene$2
     00002210  A$scene$2 |    00002211  A$scene$2 |    00002211  C$scene.c
     00002213  A$scene$2 |    00002216  A$scene$2 |    00002217  A$scene$2
     00002218  A$scene$2 |    0000221A  A$scene$2 |    0000221C  A$scene$2
     0000221D  A$scene$2 |    0000221E  A$scene$2 |    00002220  A$scene$2
     00002221  A$scene$2 |    00002223  A$scene$2 |    00002224  A$scene$2
     00002225  A$scene$2 |    00002226  A$scene$2 |    00002227  A$scene$2
     00002228  A$scene$2 |    00002229  A$scene$2 |    0000222C  A$scene$2
     0000222D  A$scene$2 |    0000222E  A$scene$2 |    0000222F  A$scene$2
     00002230  A$scene$2 |    00002231  A$scene$2 |    00002232  A$scene$2
     00002233  A$scene$2 |    00002234  A$scene$2 |    00002237  A$scene$2
     00002238  A$scene$2 |    00002239  A$scene$2 |    0000223A  A$scene$2
     0000223D  A$scene$2 |    0000223F  A$scene$2 |    00002240  A$scene$2
     00002240  C$scene.c |    00002241  A$scene$2 |    00002242  A$scene$2
     00002245  A$scene$2 |    00002246  A$scene$2 |    00002247  A$scene$2
     00002249  A$scene$2 |    0000224A  A$scene$2 |    0000224B  A$scene$2
     0000224C  A$scene$2 |    0000224D  A$scene$2 |    0000224E  A$scene$2
     0000224E  C$scene.c |    00002250  A$scene$2 |    00002251  A$scene$2
     00002252  A$scene$2 |    00002253  A$scene$2 |    00002254  A$scene$2
     00002255  A$scene$2 |    00002256  A$scene$2 |    00002257  A$scene$2
     00002258  A$scene$2 |    00002259  A$scene$2 |    0000225A  A$scene$2
     0000225B  A$scene$2 |    0000225C  A$scene$2 |    0000225D  A$scene$2
     0000225E  A$scene$2 |    0000225E  C$scene.c |    00002260  A$scene$2
     00002261  A$scene$2 |    00002262  A$scene$2 |    00002263  A$scene$2
     00002266  A$scene$2 |    00002267  A$scene$2 |    00002269  A$scene$2
     0000226A  A$scene$2 |    0000226B  A$scene$2 |    0000226C  A$scene$2
     0000226D  A$scene$2 |    0000226E  A$scene$2 |    0000226F  A$scene$2
     00002270  A$scene$2 |    00002271  A$scene$2 |    00002274  A$scene$2
     00002275  A$scene$2 |    00002276  A$scene$2 |    00002277  A$scene$2
     0000227A  A$scene$2 |    0000227B  A$scene$2 |    0000227C  A$scene$2
     0000227D  A$scene$2 |    0000227E  A$scene$2 |    00002280  A$scene$2
     00002281  A$scene$2 |    00002283  A$scene$2 |    00002284  A$scene$2
     00002285  A$scene$2 |    00002286  A$scene$2 |    00002287  A$scene$2
     00002288  A$scene$2 |    00002289  A$scene$2 |    0000228A  A$scene$2
     0000228B  A$scene$2 |    0000228E  A$scene$2 |    0000228F  A$scene$2
     00002291  A$scene$2 |    00002292  A$scene$2 |    00002293  A$scene$2
     00002294  A$scene$2 |    00002295  A$scene$2 |    00002296  A$scene$2
     00002299  A$scene$2 |    0000229B  A$scene$2 |    0000229B  C$scene.c
     0000229D  A$scene$2 |    0000229E  A$scene$2 |    0000229F  A$scene$2
     000022A1  A$scene$2 |    000022A4  A$scene$2 |    000022A5  A$scene$2
     000022A6  A$scene$2 |    000022A8  A$scene$2 |    000022AA  A$scene$2
     000022AB  A$scene$2 |    000022AC  A$scene$2 |    000022AD  A$scene$2
     000022AD  C$scene.c |    000022AF  A$scene$2 |    000022B0  A$scene$2
     000022B1  A$scene$2 |    000022B2  A$scene$2 |    000022B3  A$scene$2
     000022B4  A$scene$2 |    000022B5  A$scene$2 |    000022B5  C$scene.c
     000022B7  A$scene$2 |    000022BA  A$scene$2 |    000022BB  A$scene$2
ASxxxx Linker V03.00 + NoICE + sdld,  page 41.
Hexadecimal  [32-Bits]

Area                       Addr        Size        Decimal Bytes (Attributes)
--------------------       ----        ----        ------- ----- ------------
_CODE                  00000200    000037CF =       14287. bytes (REL,CON)

        Value  Global            Value  Global            Value  Global    
        -----  ------            -----  ------            -----  ------    
     000022BC  A$scene$2 |    000022BE  A$scene$2 |    000022C0  A$scene$2
     000022C1  A$scene$2 |    000022C2  A$scene$2 |    000022C4  A$scene$2
     000022C5  A$scene$2 |    000022C7  A$scene$2 |    000022C8  A$scene$2
     000022CA  A$scene$2 |    000022CB  A$scene$2 |    000022CD  A$scene$2
     000022CD  C$scene.c |    000022CF  A$scene$2 |    000022D0  A$scene$2
     000022D1  A$scene$2 |    000022D2  A$scene$2 |    000022D3  A$scene$2
     000022D6  A$scene$2 |    000022D7  A$scene$2 |    000022D7  C$scene.c
     000022D9  A$scene$2 |    000022DA  A$scene$2 |    000022DB  A$scene$2
     000022DC  A$scene$2 |    000022DF  A$scene$2 |    000022E0  A$scene$2
     000022E2  A$scene$2 |    000022E3  A$scene$2 |    000022E4  A$scene$2
     000022E5  A$scene$2 |    000022E6  A$scene$2 |    000022E8  A$scene$2
     000022E9  A$scene$2 |    000022EA  A$scene$2 |    000022EC  A$scene$2
     000022ED  A$scene$2 |    000022F0  A$scene$2 |    000022F1  A$scene$2
     000022F2  A$scene$2 |    000022F4  A$scene$2 |    000022F5  A$scene$2
     000022F8  A$scene$2 |    000022F9  A$scene$2 |    000022FA  A$scene$2
     000022FB  A$scene$2 |    000022FE  A$scene$2 |    00002300  A$scene$2
     00002300  C$scene.c |    00002303  A$scene$2 |    00002304  A$scene$2
     00002305  A$scene$2 |    00002307  A$scene$2 |    0000230A  A$scene$2
     0000230C  A$scene$2 |    0000230C  C$scene.c |    0000230C  XG$gen_ne
     0000230D  A$scene$2 |    0000230D  C$scene.c |    0000230D  G$add_clo
     0000230D  _add_clot |    0000230F  A$scene$2 |    0000230F  C$scene.c
     00002312  A$scene$2 |    00002314  A$scene$2 |    00002317  A$scene$2
     00002317  C$scene.c |    0000231A  A$scene$2 |    0000231C  A$scene$2
     0000231D  A$scene$2 |    0000231D  C$scene.c |    00002320  A$scene$2
     00002321  A$scene$2 |    00002322  A$scene$2 |    00002324  A$scene$2
     00002325  A$scene$2 |    00002326  A$scene$2 |    00002327  A$scene$2
     00002329  A$scene$2 |    0000232B  A$scene$2 |    0000232C  A$scene$2
     0000232C  C$scene.c |    0000232F  A$scene$2 |    00002330  A$scene$2
     00002331  A$scene$2 |    00002332  A$scene$2 |    00002334  A$scene$2
     00002335  A$scene$2 |    00002336  A$scene$2 |    00002337  A$scene$2
     00002339  A$scene$2 |    0000233B  A$scene$2 |    0000233C  A$scene$2
     0000233C  C$scene.c |    0000233E  A$scene$2 |    0000233E  C$scene.c
     0000233F  A$scene$2 |    00002340  A$scene$2 |    00002341  A$scene$2
     00002342  A$scene$2 |    00002343  A$scene$2 |    00002345  A$scene$2
     00002346  A$scene$2 |    00002347  A$scene$2 |    00002348  A$scene$2
     0000234B  A$scene$2 |    0000234D  A$scene$2 |    0000234F  A$scene$2
     00002351  A$scene$2 |    00002351  C$scene.c |    00002353  A$scene$2
     00002354  A$scene$2 |    00002355  A$scene$2 |    00002356  A$scene$2
     00002359  A$scene$2 |    0000235A  A$scene$2 |    0000235B  A$scene$2
     0000235C  A$scene$2 |    0000235E  A$scene$2 |    00002360  A$scene$2
     00002361  A$scene$2 |    00002363  A$scene$2 |    00002364  A$scene$2
     00002366  A$scene$2 |    00002369  A$scene$2 |    00002369  C$scene.c
     0000236B  A$scene$2 |    0000236C  A$scene$2 |    0000236D  A$scene$2
     0000236E  A$scene$2 |    0000236F  A$scene$2 |    00002371  A$scene$2
     00002372  A$scene$2 |    00002373  A$scene$2 |    00002374  A$scene$2
     00002376  A$scene$2 |    00002377  A$scene$2 |    00002378  A$scene$2
     0000237A  A$scene$2 |    0000237C  A$scene$2 |    0000237E  A$scene$2
     0000237F  A$scene$2 |    00002381  A$scene$2 |    00002384  A$scene$2
     00002386  A$scene$2 |    00002387  A$scene$2 |    0000238A  A$scene$2
     0000238C  A$scene$2 |    0000238D  A$scene$2 |    0000238F  A$scene$2
     00002390  A$scene$2 |    00002391  A$scene$2 |    00002392  A$scene$2
ASxxxx Linker V03.00 + NoICE + sdld,  page 42.
Hexadecimal  [32-Bits]

Area                       Addr        Size        Decimal Bytes (Attributes)
--------------------       ----        ----        ------- ----- ------------
_CODE                  00000200    000037CF =       14287. bytes (REL,CON)

        Value  Global            Value  Global            Value  Global    
        -----  ------            -----  ------            -----  ------    
     00002393  A$scene$2 |    00002394  A$scene$2 |    00002396  A$scene$2
     00002397  A$scene$2 |    00002398  A$scene$2 |    00002399  A$scene$2
     0000239A  A$scene$2 |    0000239B  A$scene$2 |    0000239C  A$scene$2
     0000239F  A$scene$2 |    000023A0  A$scene$2 |    000023A1  A$scene$2
     000023A2  A$scene$2 |    000023A4  A$scene$2 |    000023A5  A$scene$2
     000023A6  A$scene$2 |    000023A7  A$scene$2 |    000023A9  A$scene$2
     000023AA  A$scene$2 |    000023AB  A$scene$2 |    000023AC  A$scene$2
     000023AD  A$scene$2 |    000023AE  A$scene$2 |    000023AF  A$scene$2
     000023B0  A$scene$2 |    000023B1  A$scene$2 |    000023B3  A$scene$2
     000023B4  A$scene$2 |    000023B6  A$scene$2 |    000023B8  A$scene$2
     000023B9  A$scene$2 |    000023BA  A$scene$2 |    000023BC  A$scene$2
     000023BD  A$scene$2 |    000023BE  A$scene$2 |    000023C0  A$scene$2
     000023C1  A$scene$2 |    000023C2  A$scene$2 |    000023C5  A$scene$2
     000023C6  A$scene$2 |    000023C7  A$scene$2 |    000023C8  A$scene$2
     000023C9  A$scene$2 |    000023CA  A$scene$2 |    000023CC  A$scene$2
     000023CD  A$scene$2 |    000023CE  A$scene$2 |    000023CE  C$scene.c
     000023D1  A$scene$2 |    000023D3  A$scene$2 |    000023D4  A$scene$2
     000023D6  A$scene$2 |    000023D7  A$scene$2 |    000023D8  A$scene$2
     000023D9  A$scene$2 |    000023DB  A$scene$2 |    000023DC  A$scene$2
     000023DD  A$scene$2 |    000023DE  A$scene$2 |    000023E1  A$scene$2
     000023E2  A$scene$2 |    000023E3  A$scene$2 |    000023E5  A$scene$2
     000023E6  A$scene$2 |    000023E9  A$scene$2 |    000023EB  A$scene$2
     000023EC  A$scene$2 |    000023ED  A$scene$2 |    000023EE  A$scene$2
     000023EF  A$scene$2 |    000023F0  A$scene$2 |    000023F1  A$scene$2
     000023F2  A$scene$2 |    000023F4  A$scene$2 |    000023F5  A$scene$2
     000023F6  A$scene$2 |    000023F6  C$scene.c |    000023F9  A$scene$2
     000023FA  A$scene$2 |    000023FB  A$scene$2 |    000023FD  A$scene$2
     000023FE  A$scene$2 |    00002400  A$scene$2 |    00002401  A$scene$2
     00002402  A$scene$2 |    00002404  A$scene$2 |    00002405  A$scene$2
     00002408  A$scene$2 |    00002409  A$scene$2 |    0000240A  A$scene$2
     0000240A  C$scene.c |    0000240C  A$scene$2 |    0000240D  A$scene$2
     0000240F  A$scene$2 |    00002410  A$scene$2 |    00002410  C$scene.c
     00002412  A$scene$2 |    00002412  C$scene.c |    00002414  A$scene$2
     00002415  A$scene$2 |    00002416  A$scene$2 |    00002418  A$scene$2
     00002419  A$scene$2 |    0000241B  A$scene$2 |    0000241C  A$scene$2
     0000241E  A$scene$2 |    00002421  A$scene$2 |    00002421  C$scene.c
     00002423  A$scene$2 |    00002424  A$scene$2 |    00002426  A$scene$2
     00002428  A$scene$2 |    00002429  A$scene$2 |    00002429  C$scene.c
     0000242B  A$scene$2 |    0000242C  A$scene$2 |    0000242D  A$scene$2
     0000242E  A$scene$2 |    0000242F  A$scene$2 |    00002431  A$scene$2
     00002432  A$scene$2 |    00002433  A$scene$2 |    00002434  A$scene$2
     00002437  A$scene$2 |    00002439  A$scene$2 |    0000243B  A$scene$2
     0000243D  A$scene$2 |    0000243F  A$scene$2 |    0000243F  C$scene.c
     00002441  A$scene$2 |    00002442  A$scene$2 |    00002443  A$scene$2
     00002444  A$scene$2 |    00002447  A$scene$2 |    00002448  A$scene$2
     00002449  A$scene$2 |    0000244B  A$scene$2 |    0000244D  A$scene$2
     0000244E  A$scene$2 |    00002450  A$scene$2 |    00002451  A$scene$2
     00002453  A$scene$2 |    00002456  A$scene$2 |    00002456  C$scene.c
     00002458  A$scene$2 |    00002459  A$scene$2 |    0000245B  A$scene$2
     0000245C  A$scene$2 |    0000245D  A$scene$2 |    0000245E  A$scene$2
     0000245F  A$scene$2 |    00002461  A$scene$2 |    00002462  A$scene$2
ASxxxx Linker V03.00 + NoICE + sdld,  page 43.
Hexadecimal  [32-Bits]

Area                       Addr        Size        Decimal Bytes (Attributes)
--------------------       ----        ----        ------- ----- ------------
_CODE                  00000200    000037CF =       14287. bytes (REL,CON)

        Value  Global            Value  Global            Value  Global    
        -----  ------            -----  ------            -----  ------    
     00002464  A$scene$2 |    00002465  A$scene$2 |    00002466  A$scene$2
     00002468  A$scene$2 |    0000246B  A$scene$2 |    0000246C  A$scene$2
     0000246D  A$scene$2 |    0000246F  A$scene$2 |    00002470  A$scene$2
     00002471  A$scene$2 |    00002472  A$scene$2 |    00002474  A$scene$2
     00002475  A$scene$2 |    00002477  A$scene$2 |    0000247A  A$scene$2
     0000247B  A$scene$2 |    0000247C  A$scene$2 |    0000247D  A$scene$2
     0000247F  A$scene$2 |    00002480  A$scene$2 |    00002481  A$scene$2
     00002482  A$scene$2 |    00002484  A$scene$2 |    00002485  A$scene$2
     00002486  A$scene$2 |    00002487  A$scene$2 |    00002488  A$scene$2
     00002489  A$scene$2 |    0000248B  A$scene$2 |    0000248C  A$scene$2
     0000248E  A$scene$2 |    0000248F  A$scene$2 |    00002491  A$scene$2
     00002493  A$scene$2 |    00002494  A$scene$2 |    00002495  A$scene$2
     00002497  A$scene$2 |    00002498  A$scene$2 |    00002499  A$scene$2
     0000249B  A$scene$2 |    0000249D  A$scene$2 |    0000249F  A$scene$2
     000024A1  A$scene$2 |    000024A2  A$scene$2 |    000024A4  A$scene$2
     000024A5  A$scene$2 |    000024A7  A$scene$2 |    000024A8  A$scene$2
     000024A9  A$scene$2 |    000024AA  A$scene$2 |    000024AB  A$scene$2
     000024AE  A$scene$2 |    000024AF  A$scene$2 |    000024B0  A$scene$2
     000024B1  A$scene$2 |    000024B3  A$scene$2 |    000024B4  A$scene$2
     000024B5  A$scene$2 |    000024B6  A$scene$2 |    000024B8  A$scene$2
     000024B9  A$scene$2 |    000024BA  A$scene$2 |    000024BB  A$scene$2
     000024BC  A$scene$2 |    000024BF  A$scene$2 |    000024C0  A$scene$2
     000024C1  A$scene$2 |    000024C2  A$scene$2 |    000024C4  A$scene$2
     000024C5  A$scene$2 |    000024C6  A$scene$2 |    000024C7  A$scene$2
     000024C9  A$scene$2 |    000024CA  A$scene$2 |    000024CB  A$scene$2
     000024CC  A$scene$2 |    000024CD  A$scene$2 |    000024CF  A$scene$2
     000024CF  C$scene.c |    000024D0  A$scene$2 |    000024D1  A$scene$2
     000024D4  A$scene$2 |    000024D5  A$scene$2 |    000024D7  A$scene$2
     000024D8  A$scene$2 |    000024D9  A$scene$2 |    000024DA  A$scene$2
     000024DC  A$scene$2 |    000024DD  A$scene$2 |    000024DE  A$scene$2
     000024DF  A$scene$2 |    000024E1  A$scene$2 |    000024E2  A$scene$2
     000024E3  A$scene$2 |    000024E4  A$scene$2 |    000024E5  A$scene$2
     000024E7  A$scene$2 |    000024E8  A$scene$2 |    000024E9  A$scene$2
     000024EA  A$scene$2 |    000024ED  A$scene$2 |    000024EE  A$scene$2
     000024F0  A$scene$2 |    000024F1  A$scene$2 |    000024F3  A$scene$2
     000024F4  A$scene$2 |    000024F6  A$scene$2 |    000024F7  A$scene$2
     000024F8  A$scene$2 |    000024F9  A$scene$2 |    000024FB  A$scene$2
     000024FD  A$scene$2 |    000024FF  A$scene$2 |    00002501  A$scene$2
     00002502  A$scene$2 |    00002504  A$scene$2 |    00002505  A$scene$2
     00002507  A$scene$2 |    00002508  A$scene$2 |    00002509  A$scene$2
     0000250A  A$scene$2 |    0000250B  A$scene$2 |    0000250E  A$scene$2
     0000250F  A$scene$2 |    00002510  A$scene$2 |    00002511  A$scene$2
     00002513  A$scene$2 |    00002514  A$scene$2 |    00002515  A$scene$2
     00002516  A$scene$2 |    00002518  A$scene$2 |    00002519  A$scene$2
     0000251A  A$scene$3 |    0000251B  A$scene$3 |    0000251C  A$scene$3
     0000251D  A$scene$3 |    0000251E  A$scene$3 |    0000251F  A$scene$3
     00002520  A$scene$3 |    00002521  A$scene$3 |    00002522  A$scene$3
     00002523  A$scene$3 |    00002524  A$scene$3 |    00002525  A$scene$3
     00002526  A$scene$3 |    00002527  A$scene$3 |    00002528  A$scene$3
     00002529  A$scene$3 |    0000252A  A$scene$3 |    0000252B  A$scene$3
     0000252C  A$scene$3 |    0000252D  A$scene$3 |    0000252E  A$scene$3
ASxxxx Linker V03.00 + NoICE + sdld,  page 44.
Hexadecimal  [32-Bits]

Area                       Addr        Size        Decimal Bytes (Attributes)
--------------------       ----        ----        ------- ----- ------------
_CODE                  00000200    000037CF =       14287. bytes (REL,CON)

        Value  Global            Value  Global            Value  Global    
        -----  ------            -----  ------            -----  ------    
     00002530  A$scene$3 |    00002531  A$scene$3 |    00002532  A$scene$3
     00002533  A$scene$3 |    00002535  A$scene$3 |    00002536  A$scene$3
     00002537  A$scene$3 |    00002538  A$scene$3 |    00002539  A$scene$3
     0000253B  A$scene$3 |    0000253C  A$scene$3 |    0000253D  A$scene$3
     0000253D  C$scene.c |    00002540  A$scene$3 |    00002542  A$scene$3
     00002543  A$scene$3 |    00002545  A$scene$3 |    00002546  A$scene$3
     00002547  A$scene$3 |    00002549  A$scene$3 |    0000254A  A$scene$3
     0000254B  A$scene$3 |    0000254D  A$scene$3 |    0000254F  A$scene$3
     00002551  A$scene$3 |    00002552  A$scene$3 |    00002554  A$scene$3
     00002556  A$scene$3 |    00002557  A$scene$3 |    00002558  A$scene$3
     00002559  A$scene$3 |    0000255C  A$scene$3 |    0000255E  A$scene$3
     0000255F  A$scene$3 |    00002562  A$scene$3 |    00002562  C$scene.c
     00002564  A$scene$3 |    00002565  A$scene$3 |    00002567  A$scene$3
     00002568  A$scene$3 |    00002568  C$scene.c |    00002569  A$scene$3
     0000256B  A$scene$3 |    0000256C  A$scene$3 |    0000256E  A$scene$3
     0000256E  C$scene.c |    00002570  A$scene$3 |    00002571  A$scene$3
     00002573  A$scene$3 |    00002574  A$scene$3 |    00002576  A$scene$3
     00002577  A$scene$3 |    00002577  C$scene.c |    00002579  A$scene$3
     00002579  C$scene.c |    0000257B  A$scene$3 |    0000257C  A$scene$3
     0000257D  A$scene$3 |    0000257F  A$scene$3 |    00002580  A$scene$3
     00002582  A$scene$3 |    00002583  A$scene$3 |    00002585  A$scene$3
     00002588  A$scene$3 |    00002588  C$scene.c |    0000258A  A$scene$3
     0000258B  A$scene$3 |    0000258C  A$scene$3 |    0000258D  A$scene$3
     0000258E  A$scene$3 |    0000258F  A$scene$3 |    00002591  A$scene$3
     00002593  A$scene$3 |    00002594  A$scene$3 |    00002595  A$scene$3
     00002597  A$scene$3 |    00002597  C$scene.c |    00002597  XG$add_cl
     00002598  A$scene$3 |    00002598  C$scene.c |    00002598  C$scene.c
     00002598  G$next_ma |    00002598  _next_map |    0000259B  A$scene$3
     0000259C  A$scene$3 |    0000259E  A$scene$3 |    0000259F  A$scene$3
     000025A1  A$scene$3 |    000025A2  A$scene$3 |    000025A4  A$scene$3
     000025A5  A$scene$3 |    000025A7  A$scene$3 |    000025A8  A$scene$3
     000025A8  C$scene.c |    000025AB  A$scene$3 |    000025AB  C$scene.c
     000025AC  A$scene$3 |    000025AE  A$scene$3 |    000025AF  A$scene$3
     000025B1  A$scene$3 |    000025B2  A$scene$3 |    000025B4  A$scene$3
     000025B5  A$scene$3 |    000025B5  C$scene.c |    000025B8  A$scene$3
     000025B8  C$scene.c |    000025BB  A$scene$3 |    000025BB  C$scene.c
     000025BB  C$scene.c |    000025BB  XG$next_m |    000025BE  A$scene$3
     000025BE  C$scene.c |    000025BE  G$update_ |    000025BE  _update_w
     000025C0  A$scene$3 |    000025C3  A$scene$3 |    000025C5  A$scene$3
     000025C7  A$scene$3 |    000025C7  C$scene.c |    000025CA  A$scene$3
     000025CB  A$scene$3 |    000025CD  A$scene$3 |    000025CF  A$scene$3
     000025D0  A$scene$3 |    000025D2  A$scene$3 |    000025D3  A$scene$3
     000025D5  A$scene$3 |    000025D6  A$scene$3 |    000025D7  A$scene$3
     000025D9  A$scene$3 |    000025DA  A$scene$3 |    000025DA  C$scene.c
     000025DB  A$scene$3 |    000025DD  A$scene$3 |    000025DF  A$scene$3
     000025E0  A$scene$3 |    000025E2  A$scene$3 |    000025E5  A$scene$3
     000025E6  A$scene$3 |    000025E7  A$scene$3 |    000025EA  A$scene$3
     000025EB  A$scene$3 |    000025EC  A$scene$3 |    000025EE  A$scene$3
     000025EF  A$scene$3 |    000025F1  A$scene$3 |    000025F4  A$scene$3
     000025F5  A$scene$3 |    000025F6  A$scene$3 |    000025F7  A$scene$3
     000025F8  A$scene$3 |    000025FB  A$scene$3 |    000025FC  A$scene$3
ASxxxx Linker V03.00 + NoICE + sdld,  page 45.
Hexadecimal  [32-Bits]

Area                       Addr        Size        Decimal Bytes (Attributes)
--------------------       ----        ----        ------- ----- ------------
_CODE                  00000200    000037CF =       14287. bytes (REL,CON)

        Value  Global            Value  Global            Value  Global    
        -----  ------            -----  ------            -----  ------    
     000025FD  A$scene$3 |    000025FE  A$scene$3 |    000025FF  A$scene$3
     00002601  A$scene$3 |    00002603  A$scene$3 |    00002605  A$scene$3
     00002606  A$scene$3 |    00002607  A$scene$3 |    00002609  A$scene$3
     0000260A  A$scene$3 |    0000260B  A$scene$3 |    0000260D  A$scene$3
     0000260F  A$scene$3 |    00002610  A$scene$3 |    00002611  A$scene$3
     00002614  A$scene$3 |    00002614  C$scene.c |    00002617  A$scene$3
     00002618  A$scene$3 |    0000261A  A$scene$3 |    0000261C  A$scene$3
     0000261D  A$scene$3 |    0000261E  A$scene$3 |    0000261F  A$scene$3
     00002620  A$scene$3 |    00002622  A$scene$3 |    00002623  A$scene$3
     00002625  A$scene$3 |    00002627  A$scene$3 |    00002629  A$scene$3
     0000262A  A$scene$3 |    0000262C  A$scene$3 |    0000262D  A$scene$3
     0000262E  A$scene$3 |    00002630  A$scene$3 |    00002631  A$scene$3
     00002633  A$scene$3 |    00002634  A$scene$3 |    00002636  A$scene$3
     00002637  A$scene$3 |    00002639  A$scene$3 |    0000263A  A$scene$3
     0000263C  A$scene$3 |    0000263C  C$scene.c |    0000263F  A$scene$3
     00002640  A$scene$3 |    00002642  A$scene$3 |    00002642  C$scene.c
     00002643  A$scene$3 |    00002645  A$scene$3 |    00002647  A$scene$3
     00002648  A$scene$3 |    0000264A  A$scene$3 |    0000264D  A$scene$3
     0000264E  A$scene$3 |    0000264F  A$scene$3 |    00002650  A$scene$3
     00002651  A$scene$3 |    00002653  A$scene$3 |    00002655  A$scene$3
     00002656  A$scene$3 |    00002657  A$scene$3 |    0000265A  A$scene$3
     0000265B  A$scene$3 |    0000265C  A$scene$3 |    0000265E  A$scene$3
     0000265F  A$scene$3 |    00002661  A$scene$3 |    00002664  A$scene$3
     00002665  A$scene$3 |    00002666  A$scene$3 |    00002668  A$scene$3
     0000266A  A$scene$3 |    0000266C  A$scene$3 |    0000266D  A$scene$3
     0000266E  A$scene$3 |    00002671  A$scene$3 |    00002671  C$scene.c
     00002674  A$scene$3 |    00002676  A$scene$3 |    00002677  A$scene$3
     00002679  A$scene$3 |    00002679  C$scene.c |    0000267C  A$scene$3
     0000267D  A$scene$3 |    0000267F  A$scene$3 |    0000267F  C$scene.c
     00002680  A$scene$3 |    00002682  A$scene$3 |    00002684  A$scene$3
     00002685  A$scene$3 |    00002687  A$scene$3 |    0000268A  A$scene$3
     0000268B  A$scene$3 |    0000268C  A$scene$3 |    0000268D  A$scene$3
     0000268E  A$scene$3 |    00002690  A$scene$3 |    00002692  A$scene$3
     00002693  A$scene$3 |    00002694  A$scene$3 |    00002697  A$scene$3
     00002698  A$scene$3 |    00002699  A$scene$3 |    0000269B  A$scene$3
     0000269C  A$scene$3 |    0000269E  A$scene$3 |    000026A1  A$scene$3
     000026A2  A$scene$3 |    000026A3  A$scene$3 |    000026A5  A$scene$3
     000026A7  A$scene$3 |    000026A9  A$scene$3 |    000026AA  A$scene$3
     000026AB  A$scene$3 |    000026AE  A$scene$3 |    000026B1  A$scene$3
     000026B1  C$scene.c |    000026B1  C$scene.c |    000026B4  A$scene$3
     000026B5  A$scene$3 |    000026B7  A$scene$3 |    000026B9  A$scene$3
     000026BB  A$scene$3 |    000026BC  A$scene$3 |    000026BC  C$scene.c
     000026BD  A$scene$3 |    000026BD  C$scene.c |    000026BE  A$scene$3
     000026BF  A$scene$3 |    000026C1  A$scene$3 |    000026C2  A$scene$3
     000026C3  A$scene$3 |    000026C4  A$scene$3 |    000026C6  A$scene$3
     000026C8  A$scene$3 |    000026C9  A$scene$3 |    000026CA  A$scene$3
     000026CB  A$scene$3 |    000026CB  C$scene.c |    000026CD  A$scene$3
     000026CF  A$scene$3 |    000026D1  A$scene$3 |    000026D2  A$scene$3
     000026D3  A$scene$3 |    000026D5  A$scene$3 |    000026D6  A$scene$3
     000026D9  A$scene$3 |    000026DA  A$scene$3 |    000026DB  A$scene$3
     000026DD  A$scene$3 |    000026DF  A$scene$3 |    000026E0  A$scene$3
ASxxxx Linker V03.00 + NoICE + sdld,  page 46.
Hexadecimal  [32-Bits]

Area                       Addr        Size        Decimal Bytes (Attributes)
--------------------       ----        ----        ------- ----- ------------
_CODE                  00000200    000037CF =       14287. bytes (REL,CON)

        Value  Global            Value  Global            Value  Global    
        -----  ------            -----  ------            -----  ------    
     000026E2  A$scene$3 |    000026E4  A$scene$3 |    000026E6  A$scene$3
     000026E6  C$scene.c |    000026E8  A$scene$3 |    000026E9  A$scene$3
     000026EC  A$scene$3 |    000026EE  A$scene$3 |    000026EE  C$scene.c
     000026F0  A$scene$3 |    000026F1  A$scene$3 |    000026F2  A$scene$3
     000026F4  A$scene$3 |    000026F5  A$scene$3 |    000026F8  A$scene$3
     000026F9  A$scene$3 |    000026FA  A$scene$3 |    000026FC  A$scene$3
     000026FE  A$scene$3 |    000026FF  A$scene$3 |    00002701  A$scene$3
     00002703  A$scene$3 |    00002705  A$scene$3 |    00002705  C$scene.c
     00002707  A$scene$3 |    00002708  A$scene$3 |    00002709  A$scene$3
     0000270A  A$scene$3 |    0000270C  A$scene$3 |    0000270D  A$scene$3
     0000270F  A$scene$3 |    00002711  A$scene$3 |    00002712  A$scene$3
     00002713  A$scene$3 |    00002714  A$scene$3 |    00002717  A$scene$3
     00002719  A$scene$3 |    00002719  C$scene.c |    0000271B  A$scene$3
     0000271C  A$scene$3 |    0000271F  A$scene$3 |    0000271F  C$scene.c
     00002722  A$scene$3 |    00002723  A$scene$3 |    00002725  A$scene$3
     00002727  A$scene$3 |    00002728  A$scene$3 |    0000272A  A$scene$3
     0000272B  A$scene$3 |    0000272D  A$scene$3 |    0000272E  A$scene$3
     0000272F  A$scene$3 |    00002731  A$scene$3 |    00002732  A$scene$3
     00002732  C$scene.c |    00002733  A$scene$3 |    00002735  A$scene$3
     00002737  A$scene$3 |    00002739  A$scene$3 |    0000273B  A$scene$3
     0000273C  A$scene$3 |    0000273D  A$scene$3 |    0000273F  A$scene$3
     00002740  A$scene$3 |    00002741  A$scene$3 |    00002744  A$scene$3
     00002745  A$scene$3 |    00002746  A$scene$3 |    00002748  A$scene$3
     00002749  A$scene$3 |    0000274B  A$scene$3 |    0000274E  A$scene$3
     0000274F  A$scene$3 |    00002750  A$scene$3 |    00002752  A$scene$3
     00002753  A$scene$3 |    00002754  A$scene$3 |    00002757  A$scene$3
     00002758  A$scene$3 |    00002759  A$scene$3 |    0000275B  A$scene$3
     0000275C  A$scene$3 |    0000275E  A$scene$3 |    00002761  A$scene$3
     00002762  A$scene$3 |    00002763  A$scene$3 |    00002765  A$scene$3
     00002767  A$scene$3 |    00002769  A$scene$3 |    0000276A  A$scene$3
     0000276B  A$scene$3 |    0000276D  A$scene$3 |    0000276D  C$scene.c
     0000276D  XG$update |    0000276E  A$scene$3 |    0000276E  C$scene.c
     0000276E  G$fill_wi |    0000276E  _fill_win |    0000276F  A$scene$3
     00002772  A$scene$3 |    00002774  A$scene$3 |    00002774  C$scene.c
     00002777  A$scene$3 |    00002778  A$scene$3 |    0000277B  A$scene$3
     0000277C  A$scene$3 |    0000277D  A$scene$3 |    0000277E  A$scene$3
     00002780  A$scene$3 |    00002782  A$scene$3 |    00002783  A$scene$3
     00002785  A$scene$3 |    00002787  A$scene$3 |    00002789  A$scene$3
     00002789  C$scene.c |    0000278C  A$scene$3 |    0000278D  A$scene$3
     00002790  A$scene$3 |    00002791  A$scene$3 |    00002792  A$scene$3
     00002794  A$scene$3 |    00002795  A$scene$3 |    00002796  A$scene$3
     00002799  A$scene$3 |    0000279A  A$scene$3 |    0000279B  A$scene$3
     0000279D  A$scene$3 |    0000279E  A$scene$3 |    000027A0  A$scene$3
     000027A3  A$scene$3 |    000027A4  A$scene$3 |    000027A5  A$scene$3
     000027A7  A$scene$3 |    000027A8  A$scene$3 |    000027A9  A$scene$3
     000027AC  A$scene$3 |    000027AD  A$scene$3 |    000027AE  A$scene$3
     000027B0  A$scene$3 |    000027B1  A$scene$3 |    000027B3  A$scene$3
     000027B6  A$scene$3 |    000027B7  A$scene$3 |    000027B8  A$scene$3
     000027BA  A$scene$3 |    000027BC  A$scene$3 |    000027BE  A$scene$3
     000027BF  A$scene$3 |    000027C0  A$scene$3 |    000027C0  C$scene.c
     000027C3  A$scene$3 |    000027C4  A$scene$3 |    000027C6  A$scene$3
ASxxxx Linker V03.00 + NoICE + sdld,  page 47.
Hexadecimal  [32-Bits]

Area                       Addr        Size        Decimal Bytes (Attributes)
--------------------       ----        ----        ------- ----- ------------
_CODE                  00000200    000037CF =       14287. bytes (REL,CON)

        Value  Global            Value  Global            Value  Global    
        -----  ------            -----  ------            -----  ------    
     000027C7  A$scene$3 |    000027C9  A$scene$3 |    000027CA  A$scene$3
     000027CB  A$scene$3 |    000027CD  A$scene$3 |    000027D0  A$scene$3
     000027D1  A$scene$3 |    000027D2  A$scene$3 |    000027D2  C$scene.c
     000027D4  A$scene$3 |    000027D4  C$scene.c |    000027D7  A$scene$3
     000027D8  A$scene$3 |    000027D9  A$scene$3 |    000027DB  A$scene$3
     000027DD  A$scene$3 |    000027DE  A$scene$3 |    000027DE  C$scene.c
     000027DE  XG$fill_w |    000027DF  A$scene$3 |    000027DF  C$scene.c
     000027DF  G$mend_in |    000027DF  _mend_inc |    000027E0  A$scene$3
     000027E0  C$scene.c |    000027E3  A$scene$3 |    000027E5  A$scene$3
     000027E7  A$scene$3 |    000027E7  C$scene.c |    000027E9  A$scene$3
     000027E9  C$scene.c |    000027EC  A$scene$3 |    000027ED  A$scene$3
     000027F0  A$scene$3 |    000027F1  A$scene$3 |    000027F2  A$scene$3
     000027F4  A$scene$3 |    000027F5  A$scene$3 |    000027F6  A$scene$3
     000027F8  A$scene$3 |    000027F9  A$scene$3 |    000027FB  A$scene$3
     000027FD  A$scene$3 |    000027FD  C$scene.c |    000027FF  A$scene$3
     00002800  A$scene$3 |    00002800  C$scene.c |    00002802  A$scene$3
     00002802  C$scene.c |    00002804  A$scene$3 |    00002805  A$scene$3
     00002807  A$scene$3 |    00002808  A$scene$3 |    0000280A  A$scene$3
     0000280B  A$scene$3 |    0000280D  A$scene$3 |    0000280E  A$scene$3
     00002810  A$scene$3 |    00002813  A$scene$3 |    00002816  A$scene$3
     00002817  A$scene$3 |    00002819  A$scene$3 |    0000281A  A$scene$3
     0000281B  A$scene$3 |    0000281C  A$scene$3 |    0000281D  A$scene$3
     0000281E  A$scene$3 |    0000281F  A$scene$3 |    00002822  A$scene$3
     00002823  A$scene$3 |    00002824  A$scene$3 |    00002826  A$scene$3
     00002827  A$scene$3 |    00002828  A$scene$3 |    0000282A  A$scene$3
     0000282B  A$scene$3 |    0000282D  A$scene$3 |    0000282E  A$scene$3
     00002830  A$scene$3 |    00002831  A$scene$3 |    00002833  A$scene$3
     00002833  C$scene.c |    00002835  A$scene$3 |    00002836  A$scene$3
     00002838  A$scene$3 |    00002839  A$scene$3 |    00002839  C$scene.c
     0000283A  A$scene$3 |    0000283A  C$scene.c |    0000283A  XG$mend_i
     0000283B  A$scene$3 |    0000283B  C$scene.c |    0000283B  G$fill_me
     0000283B  _fill_mem |    0000283D  A$scene$3 |    0000283D  C$scene.c
     00002840  A$scene$3 |    00002842  A$scene$3 |    00002844  A$scene$3
     00002844  C$scene.c |    00002847  A$scene$3 |    00002848  A$scene$3
     0000284A  A$scene$3 |    0000284B  A$scene$3 |    0000284B  C$scene.c
     0000284E  A$scene$3 |    0000284E  C$scene.c |    00002851  A$scene$3
     00002852  A$scene$3 |    00002853  A$scene$3 |    00002854  A$scene$3
     00002856  A$scene$3 |    00002858  A$scene$3 |    00002859  A$scene$3
     0000285A  A$scene$3 |    0000285C  A$scene$3 |    0000285D  A$scene$3
     0000285E  A$scene$3 |    00002861  A$scene$3 |    00002862  A$scene$3
     00002863  A$scene$3 |    00002864  A$scene$3 |    00002867  A$scene$3
     00002869  A$scene$3 |    00002869  C$scene.c |    0000286B  A$scene$3
     0000286E  A$scene$3 |    0000286F  A$scene$3 |    00002870  A$scene$3
     00002872  A$scene$3 |    00002874  A$scene$3 |    00002875  A$scene$3
     00002876  A$scene$3 |    00002878  A$scene$3 |    0000287A  A$scene$3
     0000287B  A$scene$3 |    0000287D  A$scene$3 |    0000287E  A$scene$3
     0000287F  A$scene$3 |    00002880  A$scene$3 |    00002881  A$scene$3
     00002882  A$scene$3 |    00002883  A$scene$3 |    00002886  A$scene$3
     00002887  A$scene$3 |    00002888  A$scene$3 |    00002889  A$scene$3
     0000288A  A$scene$3 |    0000288B  A$scene$3 |    0000288C  A$scene$3
     0000288D  A$scene$3 |    0000288E  A$scene$3 |    0000288F  A$scene$3
ASxxxx Linker V03.00 + NoICE + sdld,  page 48.
Hexadecimal  [32-Bits]

Area                       Addr        Size        Decimal Bytes (Attributes)
--------------------       ----        ----        ------- ----- ------------
_CODE                  00000200    000037CF =       14287. bytes (REL,CON)

        Value  Global            Value  Global            Value  Global    
        -----  ------            -----  ------            -----  ------    
     00002890  A$scene$3 |    00002891  A$scene$3 |    00002892  A$scene$3
     00002895  A$scene$3 |    00002896  A$scene$3 |    00002898  A$scene$3
     0000289A  A$scene$3 |    0000289B  A$scene$3 |    0000289D  A$scene$3
     0000289E  A$scene$3 |    0000289F  A$scene$3 |    000028A0  A$scene$3
     000028A1  A$scene$3 |    000028A4  A$scene$3 |    000028A6  A$scene$3
     000028A6  C$scene.c |    000028A9  A$scene$3 |    000028AB  A$scene$3
     000028AE  A$scene$3 |    000028AF  A$scene$3 |    000028B0  A$scene$3
     000028B2  A$scene$3 |    000028B4  A$scene$3 |    000028B5  A$scene$3
     000028B6  A$scene$3 |    000028B8  A$scene$3 |    000028B9  A$scene$3
     000028BB  A$scene$3 |    000028BC  A$scene$3 |    000028BD  A$scene$3
     000028BE  A$scene$3 |    000028BF  A$scene$3 |    000028C0  A$scene$3
     000028C1  A$scene$3 |    000028C2  A$scene$3 |    000028C3  A$scene$3
     000028C4  A$scene$3 |    000028C5  A$scene$3 |    000028C6  A$scene$3
     000028C7  A$scene$3 |    000028C8  A$scene$3 |    000028C9  A$scene$3
     000028CA  A$scene$3 |    000028CC  A$scene$3 |    000028CD  A$scene$3
     000028CE  A$scene$3 |    000028CF  A$scene$3 |    000028D0  A$scene$3
     000028D1  A$scene$3 |    000028D2  A$scene$3 |    000028D3  A$scene$3
     000028D4  A$scene$3 |    000028D6  A$scene$3 |    000028D7  A$scene$3
     000028D8  A$scene$3 |    000028D9  A$scene$3 |    000028DA  A$scene$3
     000028DD  A$scene$3 |    000028DE  A$scene$3 |    000028DF  A$scene$3
     000028E0  A$scene$3 |    000028E1  A$scene$3 |    000028E2  A$scene$3
     000028E4  A$scene$3 |    000028E6  A$scene$3 |    000028E7  A$scene$3
     000028E9  A$scene$3 |    000028EA  A$scene$3 |    000028EB  A$scene$3
     000028EC  A$scene$3 |    000028EE  A$scene$3 |    000028EF  A$scene$3
     000028F0  A$scene$3 |    000028F2  A$scene$3 |    000028F3  A$scene$3
     000028F4  A$scene$3 |    000028F5  A$scene$3 |    000028F6  A$scene$3
     000028F7  A$scene$3 |    000028F8  A$scene$3 |    000028FB  A$scene$3
     000028FD  A$scene$3 |    000028FD  C$scene.c |    00002900  A$scene$3
     00002901  A$scene$3 |    00002903  A$scene$3 |    00002903  C$scene.c
     00002903  XG$fill_m |    00002904  A$scene$3 |    00002904  C$scene.c
     00002904  G$memcpy_ |    00002904  _memcpy_r |    00002906  A$scene$3
     00002906  C$scene.c |    00002909  A$scene$3 |    0000290B  A$scene$3
     0000290C  A$scene$3 |    0000290E  A$scene$3 |    0000290F  A$scene$3
     00002910  A$scene$3 |    00002911  A$scene$4 |    00002911  C$scene.c
     00002913  A$scene$4 |    00002914  A$scene$4 |    00002917  A$scene$4
     00002918  A$scene$4 |    00002918  C$scene.c |    0000291A  A$scene$4
     0000291B  A$scene$4 |    0000291D  A$scene$4 |    0000291D  C$scene.c
     0000291E  A$scene$4 |    0000291F  A$scene$4 |    00002921  A$scene$4
     00002922  A$scene$4 |    00002923  A$scene$4 |    00002924  A$scene$4
     00002925  A$scene$4 |    00002926  A$scene$4 |    00002927  A$scene$4
     00002929  A$scene$4 |    0000292A  A$scene$4 |    0000292C  A$scene$4
     0000292D  A$scene$4 |    0000292E  A$scene$4 |    0000292F  A$scene$4
     00002930  A$scene$4 |    00002931  A$scene$4 |    00002932  A$scene$4
     00002934  A$scene$4 |    00002934  C$scene.c |    00002935  A$scene$4
     00002936  A$scene$4 |    00002937  A$scene$4 |    00002938  A$scene$4
     00002938  C$scene.c |    0000293B  A$scene$4 |    0000293B  C$scene.c
     0000293C  A$scene$4 |    0000293E  A$scene$4 |    0000293E  C$scene.c
     00002940  A$scene$4 |    00002941  A$scene$4 |    00002943  A$scene$4
     00002944  A$scene$4 |    00002945  A$scene$4 |    00002946  A$scene$4
     00002946  C$scene.c |    00002948  A$scene$4 |    00002949  A$scene$4
     0000294C  A$scene$4 |    0000294E  A$scene$4 |    00002950  A$scene$4
ASxxxx Linker V03.00 + NoICE + sdld,  page 49.
Hexadecimal  [32-Bits]

Area                       Addr        Size        Decimal Bytes (Attributes)
--------------------       ----        ----        ------- ----- ------------
_CODE                  00000200    000037CF =       14287. bytes (REL,CON)

        Value  Global            Value  Global            Value  Global    
        -----  ------            -----  ------            -----  ------    
     00002950  C$scene.c |    00002950  XG$memcpy |    00002951  A$sound$6
     00002951  C$sound.c |    00002951  C$sound.c |    00002951  G$sound_i
     00002951  _sound_in |    00002953  A$sound$6 |    00002955  A$sound$6
     00002955  C$sound.c |    00002957  A$sound$6 |    00002959  A$sound$7
     00002959  C$sound.c |    0000295B  A$sound$7 |    0000295D  A$sound$8
     0000295D  C$sound.c |    0000295D  XG$sound_ |    0000295E  A$sound$9
     0000295E  C$sound.c |    0000295E  C$sound.c |    0000295E  G$stop_sf
     0000295E  _stop_sfx |    00002960  A$sound$9 |    00002962  A$sound$1
     00002962  C$sound.c |    00002962  XG$stop_s |    00002963  A$sound$1
     00002963  C$sound.c |    00002963  C$sound.c |    00002963  G$play_ju
     00002963  _play_jum |    00002965  A$sound$1 |    00002967  A$sound$1
     00002967  C$sound.c |    00002969  A$sound$1 |    0000296B  A$sound$1
     0000296B  C$sound.c |    0000296D  A$sound$1 |    0000296F  A$sound$1
     0000296F  C$sound.c |    00002971  A$sound$1 |    00002973  A$sound$1
     00002973  C$sound.c |    00002975  A$sound$1 |    00002977  A$sound$1
     00002977  C$sound.c |    00002977  XG$play_j |    00002978  A$sound$1
     00002978  C$sound.c |    00002978  C$sound.c |    00002978  G$stop_ju
     00002978  _stop_jum |    0000297A  A$sound$1 |    0000297C  A$sound$1
     0000297C  C$sound.c |    0000297C  XG$stop_j |    0000297D  A$sound$1
     0000297D  C$sound.c |    0000297D  C$sound.c |    0000297D  G$play_bu
     0000297D  _play_bum |    0000297F  A$sound$1 |    00002981  A$sound$1
     00002981  C$sound.c |    00002983  A$sound$1 |    00002985  A$sound$1
     00002985  C$sound.c |    00002987  A$sound$1 |    00002989  A$sound$1
     00002989  C$sound.c |    0000298B  A$sound$1 |    0000298D  A$sound$2
     0000298D  C$sound.c |    0000298F  A$sound$2 |    00002991  A$sound$2
     00002991  C$sound.c |    00002991  XG$play_b |    00002992  A$sound$2
     00002992  C$sound.c |    00002992  C$sound.c |    00002992  G$play_br
     00002992  _play_bre |    00002994  A$sound$2 |    00002996  A$sound$2
     00002996  C$sound.c |    00002998  A$sound$2 |    0000299A  A$sound$2
     0000299A  C$sound.c |    0000299C  A$sound$2 |    0000299E  A$sound$2
     0000299E  C$sound.c |    000029A0  A$sound$2 |    000029A2  A$sound$2
     000029A2  C$sound.c |    000029A2  XG$play_b |    000029A3  A$sound$2
     000029A3  C$sound.c |    000029A3  C$sound.c |    000029A3  G$play_hu
     000029A3  _play_hur |    000029A5  A$sound$2 |    000029A7  A$sound$2
     000029A7  C$sound.c |    000029A9  A$sound$2 |    000029AB  A$sound$2
     000029AB  C$sound.c |    000029AD  A$sound$2 |    000029AF  A$sound$2
     000029AF  C$sound.c |    000029B1  A$sound$2 |    000029B3  A$sound$2
     000029B3  C$sound.c |    000029B5  A$sound$2 |    000029B7  A$sound$2
     000029B7  C$sound.c |    000029B7  XG$play_h |    000029B8  A$sound$3
     000029B8  C$sound.c |    000029B8  C$sound.c |    000029B8  G$stop_hu
     000029B8  _stop_hur |    000029BA  A$sound$3 |    000029BC  A$sound$3
     000029BC  C$sound.c |    000029BC  XG$stop_h |    000029BD  A$sound$3
     000029BD  C$sound.c |    000029BD  C$sound.c |    000029BD  G$play_bo
     000029BD  _play_boi |    000029BF  A$sound$3 |    000029C1  A$sound$3
     000029C1  C$sound.c |    000029C3  A$sound$3 |    000029C5  A$sound$3
     000029C5  C$sound.c |    000029C7  A$sound$3 |    000029C9  A$sound$3
     000029C9  C$sound.c |    000029CA  A$sound$3 |    000029CC  A$sound$3
     000029CC  C$sound.c |    000029CE  A$sound$3 |    000029D0  A$sound$3
     000029D0  C$sound.c |    000029D0  XG$play_b |    000029D1  G$base_fl
     000029D1  _base_flo |    00002A71  G$hub_dat |    00002A71  _hub_data
     00003171  G$hub_map |    00003171  _hub_map  |    000033C9  G$hud_map
ASxxxx Linker V03.00 + NoICE + sdld,  page 50.
Hexadecimal  [32-Bits]

Area                       Addr        Size        Decimal Bytes (Attributes)
--------------------       ----        ----        ------- ----- ------------
_CODE                  00000200    000037CF =       14287. bytes (REL,CON)

        Value  Global            Value  Global            Value  Global    
        -----  ------            -----  ------            -----  ------    
     000033C9  _hud_map  |    00003405  G$numbers |    00003405  _numbers 
     000034D5  G$playerS |    000034D5  _playerSp |    00003655  G$idle0$0
     00003655  _idle0    |    00003669  G$idle1$0 |    00003669  _idle1   
     0000367D  G$idle2$0 |    0000367D  _idle2    |    00003691  G$idle3$0
     00003691  _idle3    |    000036A5  G$idle_me |    000036A5  _idle_met
     000036AD  G$idle_sp |    000036AD  _idle_spe |    000036B1  G$run0$0_
     000036B1  _run0     |    000036C5  G$run1$0_ |    000036C5  _run1    
     000036D9  G$run2$0_ |    000036D9  _run2     |    000036ED  G$run3$0_
     000036ED  _run3     |    00003701  G$run4$0_ |    00003701  _run4    
     00003715  G$run5$0_ |    00003715  _run5     |    00003729  G$run_met
     00003729  _run_meta |    00003735  G$run_spe |    00003735  _run_spee
     0000373B  G$jump0$0 |    0000373B  _jump0    |    0000374F  G$jump_me
     0000374F  _jump_met |    00003751  G$jump_sp |    00003751  _jump_spe
     00003752  G$fall0$0 |    00003752  _fall0    |    00003766  G$fall_me
     00003766  _fall_met |    00003768  G$fall_sp |    00003768  _fall_spe
     00003769  G$hurt0$0 |    00003769  _hurt0    |    0000377D  G$hurt_me
     0000377D  _hurt_met |    0000377F  G$hurt_sp |    0000377F  _hurt_spe
     00003780  G$metaspr |    00003780  _metaspri |    0000378A  G$metaspr
     0000378A  _metaspri |    00003794  G$frames_ |    00003794  _frames_i
     00003799  G$Sfx$0_0 |    00003799  _Sfx      |    000037C9  G$base$0_
     000037C9  _base     |    000037D5  G$bot_map |    000037D5  _bot_map_
     000037DD  G$bot_map |    000037DD  _bot_map_ |    000037E5  G$bot_map
     000037E5  _bot_map_ |    000037ED  G$bot_map |    000037ED  _bot_map_
     000037F9  G$bot_map |    000037F9  _bot_map_ |    00003801  G$bot_map
     00003801  _bot_map_ |    00003809  G$top_map |    00003809  _top_map_
     0000380D  G$top_map |    0000380D  _top_map_ |    00003811  G$top_map
     00003811  _top_map_ |    00003815  G$top_map |    00003815  _top_map_
     0000381D  G$top_map |    0000381D  _top_map_ |    00003821  G$bot_map
     00003821  _bot_map_ |    00003829  G$top_map |    00003829  _top_map_
     0000382D  _hide_spr |    0000385D  ___hide_m |    00003884  ___move_m
     000038C3  ___move_m |    00003906  ___move_m |    00003949  ___move_m
     0000398E  _set_vram |    0000399D  _set_win_ |    000039A5  _set_bkg_
ASxxxx Linker V03.00 + NoICE + sdld,  page 51.
Hexadecimal  [32-Bits]

Area                       Addr        Size        Decimal Bytes (Attributes)
--------------------       ----        ----        ------- ----- ------------
_HEADER0               00000000    00000001 =           1. bytes (ABS,CON)

        Value  Global            Value  Global            Value  Global    
        -----  ------            -----  ------            -----  ------    
     00000020  .call_hl 
ASxxxx Linker V03.00 + NoICE + sdld,  page 52.
Hexadecimal  [32-Bits]

Area                       Addr        Size        Decimal Bytes (Attributes)
--------------------       ----        ----        ------- ----- ------------
_HEADER1               00000000    00000005 =           5. bytes (ABS,CON)

        Value  Global            Value  Global            Value  Global    
        -----  ------            -----  ------            -----  ------    
     00000028  .MemsetSm
ASxxxx Linker V03.00 + NoICE + sdld,  page 53.
Hexadecimal  [32-Bits]

Area                       Addr        Size        Decimal Bytes (Attributes)
--------------------       ----        ----        ------- ----- ------------
_HEADER2               00000000    00000007 =           7. bytes (ABS,CON)

        Value  Global            Value  Global            Value  Global    
        -----  ------            -----  ------            -----  ------    
     00000030  .MemcpySm
ASxxxx Linker V03.00 + NoICE + sdld,  page 54.
Hexadecimal  [32-Bits]

Area                       Addr        Size        Decimal Bytes (Attributes)
--------------------       ----        ----        ------- ----- ------------
_HEADER3               00000000    00000008 =           8. bytes (ABS,CON)

        Value  Global            Value  Global            Value  Global    
        -----  ------            -----  ------            -----  ------    
ASxxxx Linker V03.00 + NoICE + sdld,  page 55.
Hexadecimal  [32-Bits]

Area                       Addr        Size        Decimal Bytes (Attributes)
--------------------       ----        ----        ------- ----- ------------
_HEADER4               00000000    0000004E =          78. bytes (ABS,CON)

        Value  Global            Value  Global            Value  Global    
        -----  ------            -----  ------            -----  ------    
     00000080  .int      |    0000008F  _wait_int |    0000009C  __standar
     000000AC  _refresh_
ASxxxx Linker V03.00 + NoICE + sdld,  page 56.
Hexadecimal  [32-Bits]

Area                       Addr        Size        Decimal Bytes (Attributes)
--------------------       ----        ----        ------- ----- ------------
_HEADER5               00000000    00000002 =           2. bytes (ABS,CON)

        Value  Global            Value  Global            Value  Global    
        -----  ------            -----  ------            -----  ------    
ASxxxx Linker V03.00 + NoICE + sdld,  page 57.
Hexadecimal  [32-Bits]

Area                       Addr        Size        Decimal Bytes (Attributes)
--------------------       ----        ----        ------- ----- ------------
_HEADER6               00000000    00000030 =          48. bytes (ABS,CON)

        Value  Global            Value  Global            Value  Global    
        -----  ------            -----  ------            -----  ------    
ASxxxx Linker V03.00 + NoICE + sdld,  page 58.
Hexadecimal  [32-Bits]

Area                       Addr        Size        Decimal Bytes (Attributes)
--------------------       ----        ----        ------- ----- ------------
_HEADER7               00000000    00000006 =           6. bytes (ABS,CON)

        Value  Global            Value  Global            Value  Global    
        -----  ------            -----  ------            -----  ------    
ASxxxx Linker V03.00 + NoICE + sdld,  page 59.
Hexadecimal  [32-Bits]

Area                       Addr        Size        Decimal Bytes (Attributes)
--------------------       ----        ----        ------- ----- ------------
_HEADER8               00000000    00000003 =           3. bytes (ABS,CON)

        Value  Global            Value  Global            Value  Global    
        -----  ------            -----  ------            -----  ------    
ASxxxx Linker V03.00 + NoICE + sdld,  page 60.
Hexadecimal  [32-Bits]

Area                       Addr        Size        Decimal Bytes (Attributes)
--------------------       ----        ----        ------- ----- ------------
_HEADER9               00000000    00000001 =           1. bytes (ABS,CON)

        Value  Global            Value  Global            Value  Global    
        -----  ------            -----  ------            -----  ------    
ASxxxx Linker V03.00 + NoICE + sdld,  page 61.
Hexadecimal  [32-Bits]

Area                       Addr        Size        Decimal Bytes (Attributes)
--------------------       ----        ----        ------- ----- ------------
_HEADERa               00000000    00000001 =           1. bytes (ABS,CON)

        Value  Global            Value  Global            Value  Global    
        -----  ------            -----  ------            -----  ------    
ASxxxx Linker V03.00 + NoICE + sdld,  page 62.
Hexadecimal  [32-Bits]

Area                       Addr        Size        Decimal Bytes (Attributes)
--------------------       ----        ----        ------- ----- ------------
_HEADERb               00000000    00000001 =           1. bytes (ABS,CON)

        Value  Global            Value  Global            Value  Global    
        -----  ------            -----  ------            -----  ------    
ASxxxx Linker V03.00 + NoICE + sdld,  page 63.
Hexadecimal  [32-Bits]

Area                       Addr        Size        Decimal Bytes (Attributes)
--------------------       ----        ----        ------- ----- ------------
_HEADERc               00000000    00000002 =           2. bytes (ABS,CON)

        Value  Global            Value  Global            Value  Global    
        -----  ------            -----  ------            -----  ------    
ASxxxx Linker V03.00 + NoICE + sdld,  page 64.
Hexadecimal  [32-Bits]

Area                       Addr        Size        Decimal Bytes (Attributes)
--------------------       ----        ----        ------- ----- ------------
_HEADERd               00000000    00000001 =           1. bytes (ABS,CON)

        Value  Global            Value  Global            Value  Global    
        -----  ------            -----  ------            -----  ------    
ASxxxx Linker V03.00 + NoICE + sdld,  page 65.
Hexadecimal  [32-Bits]

Area                       Addr        Size        Decimal Bytes (Attributes)
--------------------       ----        ----        ------- ----- ------------
_HEADERe               00000000    00000001 =           1. bytes (ABS,CON)

        Value  Global            Value  Global            Value  Global    
        -----  ------            -----  ------            -----  ------    
ASxxxx Linker V03.00 + NoICE + sdld,  page 66.
Hexadecimal  [32-Bits]

Area                       Addr        Size        Decimal Bytes (Attributes)
--------------------       ----        ----        ------- ----- ------------
_HEADERf               00000000    00000002 =           2. bytes (ABS,CON)

        Value  Global            Value  Global            Value  Global    
        -----  ------            -----  ------            -----  ------    
ASxxxx Linker V03.00 + NoICE + sdld,  page 67.
Hexadecimal  [32-Bits]

Area                       Addr        Size        Decimal Bytes (Attributes)
--------------------       ----        ----        ------- ----- ------------
_HEADER10              00000000    00000082 =         130. bytes (ABS,CON)

        Value  Global            Value  Global            Value  Global    
        -----  ------            -----  ------            -----  ------    
     00000150  .reset    |    00000150  _reset    |    00000157  .code_sta
     000001B7  _exit     |    000001BB  _set_inte
ASxxxx Linker V03.00 + NoICE + sdld,  page 68.
Hexadecimal  [32-Bits]

Area                       Addr        Size        Decimal Bytes (Attributes)
--------------------       ----        ----        ------- ----- ------------
_HEADER11              00000000    00000001 =           1. bytes (ABS,CON)

        Value  Global            Value  Global            Value  Global    
        -----  ------            -----  ------            -----  ------    
ASxxxx Linker V03.00 + NoICE + sdld,  page 69.
Hexadecimal  [32-Bits]

Area                       Addr        Size        Decimal Bytes (Attributes)
--------------------       ----        ----        ------- ----- ------------
_HOME                  000039CF    0000035C =         860. bytes (REL,CON)

        Value  Global            Value  Global            Value  Global    
        -----  ------            -----  ------            -----  ------    
     000039CF  .memset_s |    000039D8  .memcpy_s |    000039F5  .remove_V
     000039F8  .remove_i |    00003A15  .add_VBL  |    00003A18  .add_int 
     00003A23  .wait_vbl |    00003A23  _wait_vbl |    00003A33  .display_
     00003A33  _display_ |    00003A4B  _remove_V |    00003A56  _add_VBL 
     00003A61  _rand     |    00003A61  _randw    |    00003A8C  _initrand
     00003A8E  .initrand |    00003A97  _uitoa    |    00003AA6  _itoa    
     00003AB5  .itoa     |    00003AC9  .utoa     |    00003B3D  __mulsuch
     00003B47  __mulusch |    00003B51  __mulscha |    00003B63  __mulucha
     00003B6F  __mulint  |    00003B95  _set_win_ |    00003BA9  _set_tile
     00003BAE  _set_bkg_ |    00003BAE  _set_win_ |    00003BB6  _set_spri
     00003C15  _add_LCD  |    00003C20  .add_LCD  |    00003C26  _remove_L
     00003C31  .remove_L |    00003C37  .padup    |    00003C37  _waitpadu
     00003C47  .jpad     |    00003C47  _joypad   |    00003C6F  _waitpad 
     00003C72  .wait_pad |    00003C79  ___memcpy |    00003C79  _memcpy  
     00003CBC  ___sdcc_c |    00003CBD  _set_bkg_ |    00003CD1  .set_xy_w
     00003CDA  .set_xy_b |    00003CE9  .set_xy_t
ASxxxx Linker V03.00 + NoICE + sdld,  page 70.
Hexadecimal  [32-Bits]

Area                       Addr        Size        Decimal Bytes (Attributes)
--------------------       ----        ----        ------- ----- ------------
_INITIALIZER           00003D2B    00000104 =         260. bytes (REL,CON)

        Value  Global            Value  Global            Value  Global    
        -----  ------            -----  ------            -----  ------    
     00003D2B  Fplayer$_ |    00003D2F  Fplayer$_ |    00003D3D  Fbrick_pa
     00003D5D  Fextra_sp |    00003DDD  Fpartly_b
ASxxxx Linker V03.00 + NoICE + sdld,  page 71.
Hexadecimal  [32-Bits]

Area                       Addr        Size        Decimal Bytes (Attributes)
--------------------       ----        ----        ------- ----- ------------
_GSINIT                00003E2F    0000000C =          12. bytes (REL,CON)

        Value  Global            Value  Global            Value  Global    
        -----  ------            -----  ------            -----  ------    
     00003E2F  gsinit   
ASxxxx Linker V03.00 + NoICE + sdld,  page 72.
Hexadecimal  [32-Bits]

Area                       Addr        Size        Decimal Bytes (Attributes)
--------------------       ----        ----        ------- ----- ------------
_GSFINAL               00003E3B    00000001 =           1. bytes (REL,CON)

        Value  Global            Value  Global            Value  Global    
        -----  ------            -----  ------            -----  ------    
ASxxxx Linker V03.00 + NoICE + sdld,  page 73.
Hexadecimal  [32-Bits]

Area                       Addr        Size        Decimal Bytes (Attributes)
--------------------       ----        ----        ------- ----- ------------
_DATA                  0000C0A0    00000196 =         406. bytes (REL,CON)

        Value  Global            Value  Global            Value  Global    
        -----  ------            -----  ------            -----  ------    
     0000C0A0  __cpu     |    0000C0A1  __is_GBA  |    0000C0A2  .mode    
     0000C0A3  .sys_time |    0000C0A3  _sys_time |    0000C0A5  .int_0x40
     0000C0B9  G$ending_ |    0000C0B9  _ending_f |    0000C0BA  Fending$s
     0000C0BB  Fending$f |    0000C0BC  Fending$w |    0000C0BE  Fending$m
     0000C0BF  Fending$s |    0000C0C4  Fending$i |    0000C0C5  G$i$0_0$0
     0000C0C5  _i        |    0000C0C6  Fmain$sco |    0000C0CB  G$player_
     0000C0CB  _player_d |    0000C0CC  Fplayer$f |    0000C0CD  Fplayer$c
     0000C0CE  G$a_not_p |    0000C0CE  _a_not_pr |    0000C0CF  Fplayer$i
     0000C0D0  Fplayer$j |    0000C0D1  Fplayer$x |    0000C0D2  Fplayer$x
     0000C0D3  Fplayer$i |    0000C0D4  Fplayer$i |    0000C0D5  Fplayer$i
     0000C0D6  Fplayer$y |    0000C0D7  Fplayer$p |    0000C0D8  Fplayer$p
     0000C0D9  Fplayer$l |    0000C0DA  Fplayer$l |    0000C0DB  Fplayer$c
     0000C0DC  Fplayer$c |    0000C0DD  G$score$0 |    0000C0DD  _score   
     0000C0DF  Fplayer$m |    0000C0E0  Fplayer$t |    0000C0E1  Fplayer$h
     0000C0E2  Fplayer$n |    0000C0E3  Fplayer$b |    0000C0E4  Fplayer$b
     0000C0E5  Fscene$i$ |    0000C0E6  G$rand_in |    0000C0E6  _rand_ini
     0000C0E7  G$r$0_0$0 |    0000C0E7  _r        |    0000C0E8  Fscene$wi
     0000C0EC  G$camera_ |    0000C0EC  _camera_y |    0000C0ED  G$old_cam
     0000C0ED  _old_came |    0000C0EE  G$camera_ |    0000C0EE  _camera_y
     0000C0EF  G$old_cam |    0000C0EF  _old_came |    0000C0F0  Fscene$fr
     0000C0F1  Fscene$cu |    0000C0F2  Fscene$ac |    0000C0F3  G$game_st
     0000C0F3  _game_sta |    0000C0F4  G$game_en |    0000C0F4  _game_end
     0000C0F5  G$rect_li |    0000C0F5  _rect_lis |    0000C195  G$map_com
     0000C195  _map_comp |    0000C1B5  Fscene$ne |    0000C1B6  Fscene$wa
     0000C1B7  Fscene$ma |    0000C1B8  Fscene$wi |    0000C218  G$clothes
     0000C218  _clothes_ |    0000C21C  G$clothes |    0000C21C  _clothes_
     0000C21D  G$deactiv |    0000C21D  _deactiva |    0000C21E  Fscene$we
     0000C21F  Fscene$is |    0000C220  Lscene.me |    0000C221  ___rand_s
     0000C223  .int_0x48 |    0000C233  ___curren |    0000C235  ___curren
ASxxxx Linker V03.00 + NoICE + sdld,  page 74.
Hexadecimal  [32-Bits]

Area                       Addr        Size        Decimal Bytes (Attributes)
--------------------       ----        ----        ------- ----- ------------
_INITIALIZED           0000C236    00000104 =         260. bytes (REL,CON)

        Value  Global            Value  Global            Value  Global    
        -----  ------            -----  ------            -----  ------    
     0000C236  Fplayer$p |    0000C23A  Fplayer$r |    0000C248  G$brick_p
     0000C248  _brick_pa |    0000C268  G$extra_s |    0000C268  _extra_sp
     0000C2E8  G$partly_ |    0000C2E8  _partly_b |    0000C338  ___render
     0000C339  __map_til
ASxxxx Linker V03.00 + NoICE + sdld,  page 75.
Hexadecimal  [32-Bits]

Area                       Addr        Size        Decimal Bytes (Attributes)
--------------------       ----        ----        ------- ----- ------------
_HRAM12                00000000    00000003 =           3. bytes (ABS,CON)

        Value  Global            Value  Global            Value  Global    
        -----  ------            -----  ------            -----  ------    
     0000FF90  __current |    0000FF92  __shadow_
ASxxxx Linker V03.00 + NoICE + sdld,  page 76.
Hexadecimal  [32-Bits]

Area                       Addr        Size        Decimal Bytes (Attributes)
--------------------       ----        ----        ------- ----- ------------
_HEADER_LCD0           00000000    00000003 =           3. bytes (ABS,CON)

        Value  Global            Value  Global            Value  Global    
        -----  ------            -----  ------            -----  ------    
ASxxxx Linker V03.00 + NoICE + sdld,  page 77.

Files Linked                              [ module(s) ]

C:\gbdk\lib/small/asxxxx/gb/crt0.o        [ Runtime ]
obj/ending.o                              [ ending ]
obj/main.o                                [ main ]
obj/player.o                              [ player ]
obj/scene.o                               [ scene ]
obj/sound.o                               [ sound ]
obj/base_floor_map.o                      [ base_floor_map ]
obj/brick_particle.o                      [ brick_particle ]
obj/extra_sprites.o                       [ extra_sprites ]
obj/hub_data.o                            [ hub_data ]
obj/hub_map.o                             [ hub_map ]
obj/hud_map.o                             [ hud_map ]
obj/Numbers.o                             [ Numbers ]
obj/partly_broken_bricks.o                [ partly_broken_bricks ]
obj/PlayerSprites.o                       [ PlayerSprites ]
obj/Sfx.o                                 [ Sfx ]
obj/window_maps.o                         [ window_maps ]


Libraries Linked                          [ object file ]

C:\gbdk\lib/small/asxxxx/gb/gb.lib        [ sfr.o ]
C:\gbdk\lib/small/asxxxx/gbz80/gbz80.lib  [ rand.o ]
C:\gbdk\lib/small/asxxxx/gbz80/gbz80.lib  [ itoa.o ]
C:\gbdk\lib/small/asxxxx/gb/gb.lib        [ metasprites_hide_spr.o ]
C:\gbdk\lib/small/asxxxx/gb/gb.lib        [ metasprites_hide.o ]
C:\gbdk\lib/small/asxxxx/gbz80/gbz80.lib  [ mul.o ]
C:\gbdk\lib/small/asxxxx/gb/gb.lib        [ set_wi_t.o ]
C:\gbdk\lib/small/asxxxx/gb/gb.lib        [ set_data.o ]
C:\gbdk\lib/small/asxxxx/gb/gb.lib        [ lcd.o ]
C:\gbdk\lib/small/asxxxx/gb/gb.lib        [ pad.o ]
C:\gbdk\lib/small/asxxxx/gb/gb.lib        [ metasprites.o ]
C:\gbdk\lib/small/asxxxx/gbz80/gbz80.lib  [ _memcpy.o ]
C:\gbdk\lib/small/asxxxx/gbz80/gbz80.lib  [ __sdcc_call_hl.o ]
C:\gbdk\lib/small/asxxxx/gb/gb.lib        [ metasprites_flip.o ]
C:\gbdk\lib/small/asxxxx/gb/gb.lib        [ set_tile.o ]
C:\gbdk\lib/small/asxxxx/gb/gb.lib        [ set_bk_t.o ]
C:\gbdk\lib/small/asxxxx/gb/gb.lib        [ set_xy_t.o ]

ASxxxx Linker V03.00 + NoICE + sdld,  page 78.

User Base Address Definitions

_DATA=0xC0A0
_CODE=0x0200
ASxxxx Linker V03.00 + NoICE + sdld,  page 79.

User Global Definitions

_shadow_OAM=0xC000
.STACK=0xE000
.refresh_OAM=0xFF80

